 CDF

 Timestamp is 520e06ac (Fri Aug 16 16:32:04 2013)

 Preferred load address is 0000000180000000

 Start         Length     Name                   Class
 0001:00000000 00047560H .text                   CODE
 0001:00047560 00006e22H .text$x                 CODE
 0001:0004e390 0000030fH .text$yc                CODE
 0001:0004e6a0 0000018cH .text$yd                CODE
 0002:00000000 00001418H .idata$5                DATA
 0002:00001418 00000008H .CRT$XCA                DATA
 0002:00001420 00000088H .CRT$XCU                DATA
 0002:000014a8 00000008H .CRT$XCZ                DATA
 0002:000014b0 00000008H .CRT$XIA                DATA
 0002:000014b8 00000008H .CRT$XIAA               DATA
 0002:000014c0 00000008H .CRT$XIZ                DATA
 0002:000014d0 0000c91cH .rdata                  DATA
 0002:0000ddec 0000006dH .rdata$debug            DATA
 0002:0000de60 00003254H .rdata$r                DATA
 0002:000110b8 00000008H .rtc$IAA                DATA
 0002:000110c0 00000008H .rtc$IZZ                DATA
 0002:000110c8 00000008H .rtc$TAA                DATA
 0002:000110d0 00000008H .rtc$TZZ                DATA
 0002:000110d8 0000e994H .xdata                  DATA
 0002:0001fa70 000000e4H .xdata$x                DATA
 0002:0001fb54 00000064H .idata$2                DATA
 0002:0001fbb8 00000014H .idata$3                DATA
 0002:0001fbd0 00001418H .idata$4                DATA
 0002:00020fe8 000070caH .idata$6                DATA
 0002:000280c0 00000084H .edata                  DATA
 0003:00000000 00001168H .data                   DATA
 0003:00001168 00000158H .bss                    DATA
 0004:00000000 0000396cH .pdata                  DATA

  Address         Publics by Value              Rva+Base               Lib:Object

 0000:00000000       ___safe_se_handler_table   0000000000000000     <absolute>
 0000:00000000       ___safe_se_handler_count   0000000000000000     <absolute>
 0000:00000000       __ImageBase                0000000180000000     <linker-defined>
 0001:00000000       ??0bad_alloc@std@@QEAA@PEBD@Z 0000000180001000 f i attributebased_cd.obj
 0001:00000030       ??1bad_alloc@std@@UEAA@XZ  0000000180001030 f i attributebased_cd.obj
 0001:00000050       ??_Gbad_alloc@std@@UEAAPEAXI@Z 0000000180001050 f i attributebased_cd.obj
 0001:00000050       ??_Ebad_alloc@std@@UEAAPEAXI@Z 0000000180001050 f i attributebased_cd.obj
 0001:00000090       ??2@YAPEAX_KPEAX@Z         0000000180001090 f i attributebased_cd.obj
 0001:000000a0       ??3@YAXPEAX0@Z             00000001800010a0 f i attributebased_cd.obj
 0001:000000b0       ?length@?$char_traits@D@std@@SA_KPEBD@Z 00000001800010b0 f i attributebased_cd.obj
 0001:000000d0       ?copy@?$char_traits@D@std@@SAPEADPEADPEBD_K@Z 00000001800010d0 f i attributebased_cd.obj
 0001:000000f0       ?move@?$char_traits@D@std@@SAPEADPEADPEBD_K@Z 00000001800010f0 f i attributebased_cd.obj
 0001:00000100       ?assign@?$char_traits@D@std@@SAXAEADAEBD@Z 0000000180001100 f i attributebased_cd.obj
 0001:00000110       ?eq_int_type@?$char_traits@D@std@@SA_NAEBH0@Z 0000000180001110 f i attributebased_cd.obj
 0001:00000120       ?eof@?$char_traits@D@std@@SAHXZ 0000000180001120 f i attributebased_cd.obj
 0001:00000130       ?_Adopt@_Iterator_base0@std@@QEAAXPEBX@Z 0000000180001130 f i attributebased_cd.obj
 0001:00000140       ?retranslateUi@Ui_AttributeBased_cd@@QEAAXPEAVQWidget@@@Z 0000000180001140 f i attributebased_cd.obj
 0001:00000c10       ?on_lineEdit_2_returnPressed@AttributeBased_cd@@AEAAXXZ 0000000180001c10 f   attributebased_cd.obj
 0001:00000c70       ?on_lineEdit_returnPressed@AttributeBased_cd@@AEAAXXZ 0000000180001c70 f   attributebased_cd.obj
 0001:00000cd0       ?on_lineEdit_3_returnPressed@AttributeBased_cd@@AEAAXXZ 0000000180001cd0 f   attributebased_cd.obj
 0001:00000d30       ?on_lineEdit_4_returnPressed@AttributeBased_cd@@AEAAXXZ 0000000180001d30 f   attributebased_cd.obj
 0001:00000d90       ?on_lineEdit_5_returnPressed@AttributeBased_cd@@AEAAXXZ 0000000180001d90 f   attributebased_cd.obj
 0001:00000df0       ?on_lineEdit_6_returnPressed@AttributeBased_cd@@AEAAXXZ 0000000180001df0 f   attributebased_cd.obj
 0001:00000e50       ?on_lineEdit_7_returnPressed@AttributeBased_cd@@AEAAXXZ 0000000180001e50 f   attributebased_cd.obj
 0001:00000eb0       ?on_lineEdit_8_returnPressed@AttributeBased_cd@@AEAAXXZ 0000000180001eb0 f   attributebased_cd.obj
 0001:00000f10       ?on_lineEdit_9_returnPressed@AttributeBased_cd@@AEAAXXZ 0000000180001f10 f   attributebased_cd.obj
 0001:00000f70       ?on_lineEdit_10_returnPressed@AttributeBased_cd@@AEAAXXZ 0000000180001f70 f   attributebased_cd.obj
 0001:00000fd0       ?on_lineEdit_11_returnPressed@AttributeBased_cd@@AEAAXXZ 0000000180001fd0 f   attributebased_cd.obj
 0001:00001030       ?on_lineEdit_12_returnPressed@AttributeBased_cd@@AEAAXXZ 0000000180002030 f   attributebased_cd.obj
 0001:00001090       ?on_lineEdit_13_returnPressed@AttributeBased_cd@@AEAAXXZ 0000000180002090 f   attributebased_cd.obj
 0001:000010f0       ?on_lineEdit_14_returnPressed@AttributeBased_cd@@AEAAXXZ 00000001800020f0 f   attributebased_cd.obj
 0001:00001150       ?on_lineEdit_15_returnPressed@AttributeBased_cd@@AEAAXXZ 0000000180002150 f   attributebased_cd.obj
 0001:000011b0       ?on_lineEdit_16_returnPressed@AttributeBased_cd@@AEAAXXZ 00000001800021b0 f   attributebased_cd.obj
 0001:00001210       ?on_lineEdit_17_returnPressed@AttributeBased_cd@@AEAAXXZ 0000000180002210 f   attributebased_cd.obj
 0001:00001270       ?on_lineEdit_18_returnPressed@AttributeBased_cd@@AEAAXXZ 0000000180002270 f   attributebased_cd.obj
 0001:000012d0       ?on_lineEdit_19_returnPressed@AttributeBased_cd@@AEAAXXZ 00000001800022d0 f   attributebased_cd.obj
 0001:00001330       ?on_lineEdit_20_returnPressed@AttributeBased_cd@@AEAAXXZ 0000000180002330 f   attributebased_cd.obj
 0001:00001390       ?on_lineEdit_21_returnPressed@AttributeBased_cd@@AEAAXXZ 0000000180002390 f   attributebased_cd.obj
 0001:000013f0       ?on_lineEdit_22_returnPressed@AttributeBased_cd@@AEAAXXZ 00000001800023f0 f   attributebased_cd.obj
 0001:00001450       ?on_lineEdit_23_returnPressed@AttributeBased_cd@@AEAAXXZ 0000000180002450 f   attributebased_cd.obj
 0001:000014b0       ?on_lineEdit_24_returnPressed@AttributeBased_cd@@AEAAXXZ 00000001800024b0 f   attributebased_cd.obj
 0001:00001510       ?on_lineEdit_25_returnPressed@AttributeBased_cd@@AEAAXXZ 0000000180002510 f   attributebased_cd.obj
 0001:00001570       ?on_lineEdit_26_returnPressed@AttributeBased_cd@@AEAAXXZ 0000000180002570 f   attributebased_cd.obj
 0001:000015d0       ?on_lineEdit_27_returnPressed@AttributeBased_cd@@AEAAXXZ 00000001800025d0 f   attributebased_cd.obj
 0001:00001630       ?on_lineEdit_28_returnPressed@AttributeBased_cd@@AEAAXXZ 0000000180002630 f   attributebased_cd.obj
 0001:00001690       ?on_pushButton_2_clicked@AttributeBased_cd@@AEAAXXZ 0000000180002690 f   attributebased_cd.obj
 0001:00001760       ?on_pushButton_3_clicked@AttributeBased_cd@@AEAAXXZ 0000000180002760 f   attributebased_cd.obj
 0001:00001830       ?on_pushButton_4_clicked@AttributeBased_cd@@AEAAXXZ 0000000180002830 f   attributebased_cd.obj
 0001:00001900       ?on_pushButton_5_clicked@AttributeBased_cd@@AEAAXXZ 0000000180002900 f   attributebased_cd.obj
 0001:000019d0       ?on_pushButton_6_clicked@AttributeBased_cd@@AEAAXXZ 00000001800029d0 f   attributebased_cd.obj
 0001:00001a90       ?on_pushButton_7_clicked@AttributeBased_cd@@AEAAXXZ 0000000180002a90 f   attributebased_cd.obj
 0001:00001b60       ?on_pushButton_8_clicked@AttributeBased_cd@@AEAAXXZ 0000000180002b60 f   attributebased_cd.obj
 0001:00001c30       ?on_pushButton_9_clicked@AttributeBased_cd@@AEAAXXZ 0000000180002c30 f   attributebased_cd.obj
 0001:00001d00       ?on_pushButton_10_clicked@AttributeBased_cd@@AEAAXXZ 0000000180002d00 f   attributebased_cd.obj
 0001:00001dc0       ?on_pushButton_11_clicked@AttributeBased_cd@@AEAAXXZ 0000000180002dc0 f   attributebased_cd.obj
 0001:00001e80       ?on_pushButton_12_clicked@AttributeBased_cd@@AEAAXXZ 0000000180002e80 f   attributebased_cd.obj
 0001:00001f40       ?on_pushButton_13_clicked@AttributeBased_cd@@AEAAXXZ 0000000180002f40 f   attributebased_cd.obj
 0001:00002010       ?on_pushButton_14_clicked@AttributeBased_cd@@AEAAXXZ 0000000180003010 f   attributebased_cd.obj
 0001:000020e0       ?on_pushButton_15_clicked@AttributeBased_cd@@AEAAXXZ 00000001800030e0 f   attributebased_cd.obj
 0001:000021a0       ?on_pushButton_16_clicked@AttributeBased_cd@@AEAAXXZ 00000001800031a0 f   attributebased_cd.obj
 0001:000028f0       ??0?$QFlags@W4WindowType@Qt@@@@QEAA@PEAPEAX@Z 00000001800038f0 f i attributebased_cd.obj
 0001:00002900       ??0?$QFlags@W4AlignmentFlag@Qt@@@@QEAA@PEAPEAX@Z 0000000180003900 f i attributebased_cd.obj
 0001:00002910       ?size@?$basic_string@DU?$char_traits@D@std@@V?$allocator@D@2@@std@@QEBA_KXZ 0000000180003910 f i attributebased_cd.obj
 0001:00002920       ?size@?$vector@HV?$allocator@H@std@@@std@@QEBA_KXZ 0000000180003920 f i attributebased_cd.obj
 0001:00002930       ??A?$vector@HV?$allocator@H@std@@@std@@QEAAAEAH_K@Z 0000000180003930 f i attributebased_cd.obj
 0001:00002940       ?_Myptr@?$basic_string@DU?$char_traits@D@std@@V?$allocator@D@2@@std@@QEBAPEBDXZ 0000000180003940 f i attributebased_cd.obj
 0001:00002950       ??1?$_String_val@DV?$allocator@D@std@@@std@@QEAA@XZ 0000000180003950 f i attributebased_cd.obj
 0001:00002960       ??0?$allocator@D@std@@QEAA@XZ 0000000180003960 f i attributebased_cd.obj
 0001:00002970       ??0?$allocator@D@std@@QEAA@AEBV01@@Z 0000000180003970 f i attributebased_cd.obj
 0001:00002980       ?_Inside@?$vector@HV?$allocator@H@std@@@std@@IEBA_NPEBH@Z 0000000180003980 f i attributebased_cd.obj
 0001:000029a0       ?_Orphan_range@?$vector@HV?$allocator@H@std@@@std@@IEBAXPEAH0@Z 00000001800039a0 f i attributebased_cd.obj
 0001:000029b0       ??1?$_Vector_val@HV?$allocator@H@std@@@std@@QEAA@XZ 00000001800039b0 f i attributebased_cd.obj
 0001:000029c0       ??0?$allocator@H@std@@QEAA@XZ 00000001800039c0 f i attributebased_cd.obj
 0001:000029d0       ??0?$allocator@H@std@@QEAA@AEBV01@@Z 00000001800039d0 f i attributebased_cd.obj
 0001:000029e0       ??D?$_Vector_const_iterator@V?$_Vector_val@HV?$allocator@H@std@@@std@@@std@@QEBAAEBHXZ 00000001800039e0 f i attributebased_cd.obj
 0001:000029f0       ??E?$_Vector_const_iterator@V?$_Vector_val@HV?$allocator@H@std@@@std@@@std@@QEAAAEAV01@XZ 00000001800039f0 f i attributebased_cd.obj
 0001:00002a00       ??Bsentry@?$basic_ostream@DU?$char_traits@D@std@@@std@@QEBAPEQ_Bool_struct@2@HXZ 0000000180003a00 f i attributebased_cd.obj
 0001:00002a10       ?_Myptr@?$basic_string@DU?$char_traits@D@std@@V?$allocator@D@2@@std@@QEAAPEADXZ 0000000180003a10 f i attributebased_cd.obj
 0001:00002a20       ?_Xran@?$basic_string@DU?$char_traits@D@std@@V?$allocator@D@2@@std@@QEBAXXZ 0000000180003a20 f i attributebased_cd.obj
 0001:00002a40       ?deallocate@?$allocator@D@std@@QEAAXPEAD_K@Z 0000000180003a40 f i attributebased_cd.obj
 0001:00002a50       ?capacity@?$vector@HV?$allocator@H@std@@@std@@QEBA_KXZ 0000000180003a50 f i attributebased_cd.obj
 0001:00002a60       ?_Xlen@?$vector@HV?$allocator@H@std@@@std@@IEBAXXZ 0000000180003a60 f i attributebased_cd.obj
 0001:00002a80       ?deallocate@?$allocator@H@std@@QEAAXPEAH_K@Z 0000000180003a80 f i attributebased_cd.obj
 0001:00002a90       ??0?$_Vector_const_iterator@V?$_Vector_val@HV?$allocator@H@std@@@std@@@std@@QEAA@PEAHPEBU_Container_base0@1@@Z 0000000180003a90 f i attributebased_cd.obj
 0001:00002aa0       ?_Compat@?$_Vector_const_iterator@V?$_Vector_val@HV?$allocator@H@std@@@std@@@std@@QEBAXAEBV12@@Z 0000000180003aa0 f i attributebased_cd.obj
 0001:00002ab0       ??0_Sentry_base@?$basic_ostream@DU?$char_traits@D@std@@@std@@QEAA@AEAV12@@Z 0000000180003ab0 f i attributebased_cd.obj
 0001:00002ae0       ??1_Sentry_base@?$basic_ostream@DU?$char_traits@D@std@@@std@@QEAA@XZ 0000000180003ae0 f i attributebased_cd.obj
 0001:00002b10       ?_Xlen@?$basic_string@DU?$char_traits@D@std@@V?$allocator@D@2@@std@@QEBAXXZ 0000000180003b10 f i attributebased_cd.obj
 0001:00002b30       ?max_size@?$allocator@H@std@@QEBA_KXZ 0000000180003b30 f i attributebased_cd.obj
 0001:00002b40       ??Y?$_Vector_const_iterator@V?$_Vector_val@HV?$allocator@H@std@@@std@@@std@@QEAAAEAV01@_J@Z 0000000180003b40 f i attributebased_cd.obj
 0001:00002b50       ?max_size@?$allocator@D@std@@QEBA_KXZ 0000000180003b50 f i attributebased_cd.obj
 0001:00002b60       ??$addressof@$$CBH@std@@YAPEBHAEBH@Z 0000000180003b60 f i attributebased_cd.obj
 0001:00002b70       ??$_Allocate@H@std@@YAPEAH_KPEAH@Z 0000000180003b70 f i attributebased_cd.obj
 0001:00002be0       ??$_Allocate@D@std@@YAPEAD_KPEAD@Z 0000000180003be0 f i attributebased_cd.obj
 0001:00002c40       ??0bad_alloc@std@@QEAA@AEBV01@@Z 0000000180003c40 f i attributebased_cd.obj
 0001:00002c70       ??$forward@AEAH@std@@YAAEAHAEAH@Z 0000000180003c70 f i attributebased_cd.obj
 0001:00002c80       ??$construct@AEAH@?$allocator@H@std@@QEAAXPEAHAEAH@Z 0000000180003c80 f i attributebased_cd.obj
 0001:00002c90       ??$forward@AEBH@std@@YAAEBHAEBH@Z 0000000180003c90 f i attributebased_cd.obj
 0001:00002ca0       ??$_Ptr_cat@HH@std@@YA?AU_Scalar_ptr_iterator_tag@0@PEAH0@Z 0000000180003ca0 f i attributebased_cd.obj
 0001:00002cb0       ??$_Move@PEAHPEAH@std@@YAPEAHPEAH00U_Scalar_ptr_iterator_tag@0@@Z 0000000180003cb0 f i attributebased_cd.obj
 0001:00002cf0       ??$_Destroy_range@V?$allocator@H@std@@@std@@YAXPEAH0AEAV?$allocator@H@0@U_Scalar_ptr_iterator_tag@0@@Z 0000000180003cf0 f i attributebased_cd.obj
 0001:00002d00       ??$_Construct@HAEBH@std@@YAXPEAHAEBH@Z 0000000180003d00 f i attributebased_cd.obj
 0001:00002d10       ??$_Ptr_cat@V?$_Vector_const_iterator@V?$_Vector_val@HV?$allocator@H@std@@@std@@@std@@PEAH@std@@YA?AU_Nonscalar_ptr_iterator_tag@0@AEAV?$_Vector_const_iterator@V?$_Vector_val@HV?$allocator@H@std@@@std@@@0@AEAPEAH@Z 0000000180003d10 f i attributebased_cd.obj
 0001:00002d20       ??$_Val_type@PEAH@std@@YAPEAHPEAH@Z 0000000180003d20 f i attributebased_cd.obj
 0001:00002d30       ??$_Uninit_move@HHH@std@@YAPEAHPEAH00AEAV?$allocator@H@0@0U_Scalar_ptr_iterator_tag@0@@Z 0000000180003d30 f i attributebased_cd.obj
 0001:00002d60       ??$_Destroy@H@std@@YAXPEAH@Z 0000000180003d60 f i attributebased_cd.obj
 0001:00002d70       ?setupUi@Ui_AttributeBased_cd@@QEAAXPEAVQWidget@@@Z 0000000180003d70 f i attributebased_cd.obj
 0001:00006900       ??_GQLabel@@UEAAPEAXI@Z    0000000180007900 f i attributebased_cd.obj
 0001:00006900       ??_EQLabel@@UEAAPEAXI@Z    0000000180007900 f i attributebased_cd.obj
 0001:00006930       ??_GQWidget@@UEAAPEAXI@Z   0000000180007930 f i attributebased_cd.obj
 0001:00006930       ??_EQWidget@@UEAAPEAXI@Z   0000000180007930 f i attributebased_cd.obj
 0001:00006960       ??_EQVBoxLayout@@UEAAPEAXI@Z 0000000180007960 f i attributebased_cd.obj
 0001:00006960       ??_GQVBoxLayout@@UEAAPEAXI@Z 0000000180007960 f i attributebased_cd.obj
 0001:00006990       ??_EQHBoxLayout@@UEAAPEAXI@Z 0000000180007990 f i attributebased_cd.obj
 0001:00006990       ??_GQHBoxLayout@@UEAAPEAXI@Z 0000000180007990 f i attributebased_cd.obj
 0001:000069c0       ??_GQRadioButton@@UEAAPEAXI@Z 00000001800079c0 f i attributebased_cd.obj
 0001:000069c0       ??_EQRadioButton@@UEAAPEAXI@Z 00000001800079c0 f i attributebased_cd.obj
 0001:000069f0       ??_GQLineEdit@@UEAAPEAXI@Z 00000001800079f0 f i attributebased_cd.obj
 0001:000069f0       ??_EQLineEdit@@UEAAPEAXI@Z 00000001800079f0 f i attributebased_cd.obj
 0001:00006a20       ??_EQPushButton@@UEAAPEAXI@Z 0000000180007a20 f i attributebased_cd.obj
 0001:00006a20       ??_GQPushButton@@UEAAPEAXI@Z 0000000180007a20 f i attributebased_cd.obj
 0001:00006a50       ??_GQSplitter@@UEAAPEAXI@Z 0000000180007a50 f i attributebased_cd.obj
 0001:00006a50       ??_EQSplitter@@UEAAPEAXI@Z 0000000180007a50 f i attributebased_cd.obj
 0001:00006a80       ??_EQTextBrowser@@UEAAPEAXI@Z 0000000180007a80 f i attributebased_cd.obj
 0001:00006a80       ??_GQTextBrowser@@UEAAPEAXI@Z 0000000180007a80 f i attributebased_cd.obj
 0001:00006ab0       ??_EQHBoxLayout@@WBA@EAAPEAXI@Z 0000000180007ab0 f i attributebased_cd.obj
 0001:00006ac0       ??_EQLabel@@WBA@EAAPEAXI@Z 0000000180007ac0 f i attributebased_cd.obj
 0001:00006ad0       ??_EQPushButton@@WBA@EAAPEAXI@Z 0000000180007ad0 f i attributebased_cd.obj
 0001:00006ae0       ??_EQSplitter@@WBA@EAAPEAXI@Z 0000000180007ae0 f i attributebased_cd.obj
 0001:00006af0       ??_EQLineEdit@@WBA@EAAPEAXI@Z 0000000180007af0 f i attributebased_cd.obj
 0001:00006b00       ??_EQWidget@@WBA@EAAPEAXI@Z 0000000180007b00 f i attributebased_cd.obj
 0001:00006b10       ??_EQRadioButton@@WBA@EAAPEAXI@Z 0000000180007b10 f i attributebased_cd.obj
 0001:00006b20       ??_EQTextBrowser@@WBA@EAAPEAXI@Z 0000000180007b20 f i attributebased_cd.obj
 0001:00006b30       ??_EQVBoxLayout@@WBA@EAAPEAXI@Z 0000000180007b30 f i attributebased_cd.obj
 0001:00006b40       ??D?$_Vector_iterator@V?$_Vector_val@HV?$allocator@H@std@@@std@@@std@@QEBAAEAHXZ 0000000180007b40 f i attributebased_cd.obj
 0001:00006b50       ??E?$_Vector_iterator@V?$_Vector_val@HV?$allocator@H@std@@@std@@@std@@QEAAAEAV01@XZ 0000000180007b50 f i attributebased_cd.obj
 0001:00006b60       ??0?$_String_val@DV?$allocator@D@std@@@std@@QEAA@V?$allocator@D@1@@Z 0000000180007b60 f i attributebased_cd.obj
 0001:00006b70       ?begin@?$vector@HV?$allocator@H@std@@@std@@QEBA?AV?$_Vector_const_iterator@V?$_Vector_val@HV?$allocator@H@std@@@std@@@2@XZ 0000000180007b70 f i attributebased_cd.obj
 0001:00006b80       ?end@?$vector@HV?$allocator@H@std@@@std@@QEBA?AV?$_Vector_const_iterator@V?$_Vector_val@HV?$allocator@H@std@@@std@@@2@XZ 0000000180007b80 f i attributebased_cd.obj
 0001:00006b90       ??0?$_Vector_val@HV?$allocator@H@std@@@std@@QEAA@V?$allocator@H@1@@Z 0000000180007b90 f i attributebased_cd.obj
 0001:00006bb0       ??0?$_Vector_iterator@V?$_Vector_val@HV?$allocator@H@std@@@std@@@std@@QEAA@PEAHPEBU_Container_base0@1@@Z 0000000180007bb0 f i attributebased_cd.obj
 0001:00006bc0       ??8?$_Vector_const_iterator@V?$_Vector_val@HV?$allocator@H@std@@@std@@@std@@QEBA_NAEBV01@@Z 0000000180007bc0 f i attributebased_cd.obj
 0001:00006bd0       ??0sentry@?$basic_ostream@DU?$char_traits@D@std@@@std@@QEAA@AEAV12@@Z 0000000180007bd0 f i attributebased_cd.obj
 0001:00006c50       ??1sentry@?$basic_ostream@DU?$char_traits@D@std@@@std@@QEAA@XZ 0000000180007c50 f i attributebased_cd.obj
 0001:00006ca0       ?_Eos@?$basic_string@DU?$char_traits@D@std@@V?$allocator@D@2@@std@@QEAAX_K@Z 0000000180007ca0 f i attributebased_cd.obj
 0001:00006cc0       ?_Inside@?$basic_string@DU?$char_traits@D@std@@V?$allocator@D@2@@std@@QEAA_NPEBD@Z 0000000180007cc0 f i attributebased_cd.obj
 0001:00006d00       ?max_size@?$vector@HV?$allocator@H@std@@@std@@QEBA_KXZ 0000000180007d00 f i attributebased_cd.obj
 0001:00006d10       ?_Grow_to@?$vector@HV?$allocator@H@std@@@std@@IEBA_K_K@Z 0000000180007d10 f i attributebased_cd.obj
 0001:00006d50       ?allocate@?$allocator@H@std@@QEAAPEAH_K@Z 0000000180007d50 f i attributebased_cd.obj
 0001:00006dc0       ??Y?$_Vector_iterator@V?$_Vector_val@HV?$allocator@H@std@@@std@@@std@@QEAAAEAV01@_J@Z 0000000180007dc0 f i attributebased_cd.obj
 0001:00006dd0       ?erase@?$basic_string@DU?$char_traits@D@std@@V?$allocator@D@2@@std@@QEAAAEAV12@_K0@Z 0000000180007dd0 f i attributebased_cd.obj
 0001:00006e70       ?max_size@?$basic_string@DU?$char_traits@D@std@@V?$allocator@D@2@@std@@QEBA_KXZ 0000000180007e70 f i attributebased_cd.obj
 0001:00006e80       ?allocate@?$allocator@D@std@@QEAAPEAD_K@Z 0000000180007e80 f i attributebased_cd.obj
 0001:00006ee0       ??$?6U?$char_traits@D@std@@@std@@YAAEAV?$basic_ostream@DU?$char_traits@D@std@@@0@AEAV10@PEBD@Z 0000000180007ee0 f i attributebased_cd.obj
 0001:000070b0       ??$_Cons_val@V?$allocator@H@std@@HAEAH@std@@YAXAEAV?$allocator@H@0@PEAHAEAH@Z 00000001800080b0 f i attributebased_cd.obj
 0001:000070c0       ??$_Move@PEAHPEAH@std@@YAPEAHPEAH00@Z 00000001800080c0 f i attributebased_cd.obj
 0001:00007100       ??$_Destroy_range@V?$allocator@H@std@@@std@@YAXPEAH0AEAV?$allocator@H@0@@Z 0000000180008100 f i attributebased_cd.obj
 0001:00007110       ?construct@?$allocator@H@std@@QEAAXPEAHAEBH@Z 0000000180008110 f i attributebased_cd.obj
 0001:00007120       ??$_Uninitialized_move@PEAHPEAHV?$allocator@H@std@@@std@@YAPEAHPEAH00AEAV?$allocator@H@0@@Z 0000000180008120 f i attributebased_cd.obj
 0001:00007150       ?destroy@?$allocator@H@std@@QEAAXPEAH@Z 0000000180008150 f i attributebased_cd.obj
 0001:00007160       ??0?$vector@HV?$allocator@H@std@@@std@@QEAA@XZ 0000000180008160 f i attributebased_cd.obj
 0001:00007180       ?begin@?$vector@HV?$allocator@H@std@@@std@@QEAA?AV?$_Vector_iterator@V?$_Vector_val@HV?$allocator@H@std@@@std@@@2@XZ 0000000180008180 f i attributebased_cd.obj
 0001:00007190       ?end@?$vector@HV?$allocator@H@std@@@std@@QEAA?AV?$_Vector_iterator@V?$_Vector_val@HV?$allocator@H@std@@@std@@@2@XZ 0000000180008190 f i attributebased_cd.obj
 0001:000071a0       ??9?$_Vector_const_iterator@V?$_Vector_val@HV?$allocator@H@std@@@std@@@std@@QEBA_NAEBV01@@Z 00000001800081a0 f i attributebased_cd.obj
 0001:000071b0       ?_Tidy@?$basic_string@DU?$char_traits@D@std@@V?$allocator@D@2@@std@@QEAAX_N_K@Z 00000001800081b0 f i attributebased_cd.obj
 0001:00007210       ?_Make_iter@?$vector@HV?$allocator@H@std@@@std@@QEBA?AV?$_Vector_iterator@V?$_Vector_val@HV?$allocator@H@std@@@std@@@2@V?$_Vector_const_iterator@V?$_Vector_val@HV?$allocator@H@std@@@std@@@2@@Z 0000000180008210 f i attributebased_cd.obj
 0001:00007220       ?_Buy@?$vector@HV?$allocator@H@std@@@std@@IEAA_N_K@Z 0000000180008220 f i attributebased_cd.obj
 0001:00007290       ?_Destroy@?$vector@HV?$allocator@H@std@@@std@@IEAAXPEAH0@Z 0000000180008290 f i attributebased_cd.obj
 0001:000072a0       ?_Tidy@?$vector@HV?$allocator@H@std@@@std@@IEAAXXZ 00000001800082a0 f i attributebased_cd.obj
 0001:000072d0       ??Z?$_Vector_iterator@V?$_Vector_val@HV?$allocator@H@std@@@std@@@std@@QEAAAEAV01@_J@Z 00000001800082d0 f i attributebased_cd.obj
 0001:000072e0       ?_Copy@?$basic_string@DU?$char_traits@D@std@@V?$allocator@D@2@@std@@QEAAX_K0@Z 00000001800082e0 f i attributebased_cd.obj
 0001:00007420       ??$_Cons_val@V?$allocator@H@std@@HAEBH@std@@YAXAEAV?$allocator@H@0@PEAHAEBH@Z 0000000180008420 f i attributebased_cd.obj
 0001:00007430       ??$_Umove@PEAH@?$vector@HV?$allocator@H@std@@@std@@IEAAPEAHPEAH00@Z 0000000180008430 f i attributebased_cd.obj
 0001:00007460       ??$_Dest_val@V?$allocator@H@std@@H@std@@YAXAEAV?$allocator@H@0@PEAH@Z 0000000180008460 f i attributebased_cd.obj
 0001:00007470       ??0?$basic_string@DU?$char_traits@D@std@@V?$allocator@D@2@@std@@QEAA@XZ 0000000180008470 f i attributebased_cd.obj
 0001:00007490       ??1?$basic_string@DU?$char_traits@D@std@@V?$allocator@D@2@@std@@QEAA@XZ 0000000180008490 f i attributebased_cd.obj
 0001:000074d0       ??1?$vector@HV?$allocator@H@std@@@std@@QEAA@XZ 00000001800084d0 f i attributebased_cd.obj
 0001:00007500       ?erase@?$vector@HV?$allocator@H@std@@@std@@QEAA?AV?$_Vector_iterator@V?$_Vector_val@HV?$allocator@H@std@@@std@@@2@V?$_Vector_const_iterator@V?$_Vector_val@HV?$allocator@H@std@@@std@@@2@0@Z 0000000180008500 f i attributebased_cd.obj
 0001:00007570       ?clear@?$vector@HV?$allocator@H@std@@@std@@QEAAXXZ 0000000180008570 f i attributebased_cd.obj
 0001:000075d0       ??G?$_Vector_iterator@V?$_Vector_val@HV?$allocator@H@std@@@std@@@std@@QEBA?AV01@_J@Z 00000001800085d0 f i attributebased_cd.obj
 0001:000075e0       ?_Grow@?$basic_string@DU?$char_traits@D@std@@V?$allocator@D@2@@std@@QEAA_N_K_N@Z 00000001800085e0 f i attributebased_cd.obj
 0001:000076b0       ?reserve@?$vector@HV?$allocator@H@std@@@std@@QEAAX_K@Z 00000001800086b0 f i attributebased_cd.obj
 0001:00007770       ??$_Uninit_copy@V?$_Vector_const_iterator@V?$_Vector_val@HV?$allocator@H@std@@@std@@@std@@PEAHV?$allocator@H@2@@std@@YAPEAHV?$_Vector_const_iterator@V?$_Vector_val@HV?$allocator@H@std@@@std@@@0@0PEAHAEAV?$allocator@H@0@U_Nonscalar_ptr_iterator_tag@0@@Z 0000000180008770 f i attributebased_cd.obj
 0001:000077b0       ??1AttributeBased_cd@@UEAA@XZ 00000001800087b0 f   attributebased_cd.obj
 0001:000079c0       ??_EAttributeBased_cd@@WBA@EAAPEAXI@Z 00000001800089c0 f i attributebased_cd.obj
 0001:000079d0       ?_Reserve@?$vector@HV?$allocator@H@std@@@std@@IEAAX_K@Z 00000001800089d0 f i attributebased_cd.obj
 0001:00007a50       ?assign@?$basic_string@DU?$char_traits@D@std@@V?$allocator@D@2@@std@@QEAAAEAV12@AEBV12@_K1@Z 0000000180008a50 f i attributebased_cd.obj
 0001:00007b60       ??$_Uninitialized_copy@V?$_Vector_const_iterator@V?$_Vector_val@HV?$allocator@H@std@@@std@@@std@@PEAHV?$allocator@H@2@@std@@YAPEAHV?$_Vector_const_iterator@V?$_Vector_val@HV?$allocator@H@std@@@std@@@0@0PEAHAEAV?$allocator@H@0@@Z 0000000180008b60 f i attributebased_cd.obj
 0001:00007b80       ??_GAttributeBased_cd@@UEAAPEAXI@Z 0000000180008b80 f i attributebased_cd.obj
 0001:00007b80       ??_EAttributeBased_cd@@UEAAPEAXI@Z 0000000180008b80 f i attributebased_cd.obj
 0001:00007bb0       ?push_back@?$vector@HV?$allocator@H@std@@@std@@QEAAXAEBH@Z 0000000180008bb0 f i attributebased_cd.obj
 0001:00007c40       ?assign@?$basic_string@DU?$char_traits@D@std@@V?$allocator@D@2@@std@@QEAAAEAV12@PEBD_K@Z 0000000180008c40 f i attributebased_cd.obj
 0001:00007d70       ?assign@?$basic_string@DU?$char_traits@D@std@@V?$allocator@D@2@@std@@QEAAAEAV12@PEBD@Z 0000000180008d70 f i attributebased_cd.obj
 0001:00007da0       ??$_Ucopy@V?$_Vector_const_iterator@V?$_Vector_val@HV?$allocator@H@std@@@std@@@std@@@?$vector@HV?$allocator@H@std@@@std@@IEAAPEAHV?$_Vector_const_iterator@V?$_Vector_val@HV?$allocator@H@std@@@std@@@1@0PEAH@Z 0000000180008da0 f i attributebased_cd.obj
 0001:00007de0       ?on_radioButton_clicked@AttributeBased_cd@@AEAAXXZ 0000000180008de0 f   attributebased_cd.obj
 0001:00008fe0       ?on_radioButton_2_clicked@AttributeBased_cd@@AEAAXXZ 0000000180009fe0 f   attributebased_cd.obj
 0001:00009f60       ??4?$basic_string@DU?$char_traits@D@std@@V?$allocator@D@2@@std@@QEAAAEAV01@PEBD@Z 000000018000af60 f i attributebased_cd.obj
 0001:00009f90       ??0?$vector@HV?$allocator@H@std@@@std@@QEAA@AEBV01@@Z 000000018000af90 f i attributebased_cd.obj
 0001:0000a060       ??0AttributeBased_cd@@QEAA@HHPEAPEAH00PEAPEAPEAH1VImage@@2HPEAVQWidget@@@Z 000000018000b060 f   attributebased_cd.obj
 0001:0000b330       ?on_radioButton_3_clicked@AttributeBased_cd@@AEAAXXZ 000000018000c330 f   attributebased_cd.obj
 0001:0000b530       ?on_radioButton_4_clicked@AttributeBased_cd@@AEAAXXZ 000000018000c530 f   attributebased_cd.obj
 0001:0000b770       ?on_radioButton_5_clicked@AttributeBased_cd@@AEAAXXZ 000000018000c770 f   attributebased_cd.obj
 0001:0000b9b0       ?on_pushButton_clicked@AttributeBased_cd@@AEAAXXZ 000000018000c9b0 f   attributebased_cd.obj
 0001:0000bc30       ?on_radioButton_6_clicked@AttributeBased_cd@@AEAAXXZ 000000018000cc30 f   attributebased_cd.obj
 0001:0000be30       ?on_radioButton_7_clicked@AttributeBased_cd@@AEAAXXZ 000000018000ce30 f   attributebased_cd.obj
 0001:0000c030       ?on_radioButton_8_clicked@AttributeBased_cd@@AEAAXXZ 000000018000d030 f   attributebased_cd.obj
 0001:0000c230       ?on_radioButton_9_clicked@AttributeBased_cd@@AEAAXXZ 000000018000d230 f   attributebased_cd.obj
 0001:0000c470       ?on_radioButton_10_clicked@AttributeBased_cd@@AEAAXXZ 000000018000d470 f   attributebased_cd.obj
 0001:0000c6b0       ?on_radioButton_11_clicked@AttributeBased_cd@@AEAAXXZ 000000018000d6b0 f   attributebased_cd.obj
 0001:0000c8f0       ?on_radioButton_12_clicked@AttributeBased_cd@@AEAAXXZ 000000018000d8f0 f   attributebased_cd.obj
 0001:0000caf0       ?on_radioButton_13_clicked@AttributeBased_cd@@AEAAXXZ 000000018000daf0 f   attributebased_cd.obj
 0001:0000cd30       ?on_radioButton_14_clicked@AttributeBased_cd@@AEAAXXZ 000000018000dd30 f   attributebased_cd.obj
 0001:0000cf70       ?on_radioButton_15_clicked@AttributeBased_cd@@AEAAXXZ 000000018000df70 f   attributebased_cd.obj
 0001:0000d1b0       ?on_radioButton_16_clicked@AttributeBased_cd@@AEAAXXZ 000000018000e1b0 f   attributebased_cd.obj
 0001:0000d3f0       ??0PlugInFactory@@QEAA@XZ  000000018000e3f0 f i changeDetection.obj
 0001:0000d400       ??1PlugInFactory@@UEAA@XZ  000000018000e400 f i changeDetection.obj
 0001:0000d410       ??_EPlugInFactory@@UEAAPEAXI@Z 000000018000e410 f i changeDetection.obj
 0001:0000d410       ??_GPlugInFactory@@UEAAPEAXI@Z 000000018000e410 f i changeDetection.obj
 0001:0000d440       ??1changeDetection@@UEAA@XZ 000000018000e440 f   changeDetection.obj
 0001:0000d490       ?getWidget@changeDetection@@MEBAPEAVQWidget@@XZ 000000018000e490 f   changeDetection.obj
 0001:0000d4a0       ?dialogClosed@changeDetection@@IEAAXXZ 000000018000e4a0 f   changeDetection.obj
 0001:0000d4b0       ??C?$Service@VDesktopServices@@@@QEBAPEAVDesktopServices@@XZ 000000018000e4b0 f i changeDetection.obj
 0001:0000d4c0       ?capacity@?$vector@V?$basic_string@DU?$char_traits@D@std@@V?$allocator@D@2@@std@@V?$allocator@V?$basic_string@DU?$char_traits@D@std@@V?$allocator@D@2@@std@@@2@@std@@QEBA_KXZ 000000018000e4c0 f i changeDetection.obj
 0001:0000d4f0       ?size@?$vector@V?$basic_string@DU?$char_traits@D@std@@V?$allocator@D@2@@std@@V?$allocator@V?$basic_string@DU?$char_traits@D@std@@V?$allocator@D@2@@std@@@2@@std@@QEBA_KXZ 000000018000e4f0 f i changeDetection.obj
 0001:0000d520       ?_Inside@?$vector@V?$basic_string@DU?$char_traits@D@std@@V?$allocator@D@2@@std@@V?$allocator@V?$basic_string@DU?$char_traits@D@std@@V?$allocator@D@2@@std@@@2@@std@@IEBA_NPEBV?$basic_string@DU?$char_traits@D@std@@V?$allocator@D@2@@2@@Z 000000018000e520 f i changeDetection.obj
 0001:0000d540       ?_Orphan_range@?$vector@V?$basic_string@DU?$char_traits@D@std@@V?$allocator@D@2@@std@@V?$allocator@V?$basic_string@DU?$char_traits@D@std@@V?$allocator@D@2@@std@@@2@@std@@IEBAXPEAV?$basic_string@DU?$char_traits@D@std@@V?$allocator@D@2@@2@0@Z 000000018000e540 f i changeDetection.obj
 0001:0000d550       ??1?$_Vector_val@V?$basic_string@DU?$char_traits@D@std@@V?$allocator@D@2@@std@@V?$allocator@V?$basic_string@DU?$char_traits@D@std@@V?$allocator@D@2@@std@@@2@@std@@QEAA@XZ 000000018000e550 f i changeDetection.obj
 0001:0000d560       ??0?$allocator@V?$basic_string@DU?$char_traits@D@std@@V?$allocator@D@2@@std@@@std@@QEAA@XZ 000000018000e560 f i changeDetection.obj
 0001:0000d570       ??0?$allocator@V?$basic_string@DU?$char_traits@D@std@@V?$allocator@D@2@@std@@@std@@QEAA@AEBV01@@Z 000000018000e570 f i changeDetection.obj
 0001:0000d580       ?deallocate@?$allocator@V?$basic_string@DU?$char_traits@D@std@@V?$allocator@D@2@@std@@@std@@QEAAXPEAV?$basic_string@DU?$char_traits@D@std@@V?$allocator@D@2@@2@_K@Z 000000018000e580 f i changeDetection.obj
 0001:0000d590       ?get_allocator@?$basic_string@DU?$char_traits@D@std@@V?$allocator@D@2@@std@@QEBA?AV?$allocator@D@2@XZ 000000018000e590 f i changeDetection.obj
 0001:0000d5a0       ?_Xlen@?$vector@V?$basic_string@DU?$char_traits@D@std@@V?$allocator@D@2@@std@@V?$allocator@V?$basic_string@DU?$char_traits@D@std@@V?$allocator@D@2@@std@@@2@@std@@IEBAXXZ 000000018000e5a0 f i changeDetection.obj
 0001:0000d5c0       ?max_size@?$allocator@V?$basic_string@DU?$char_traits@D@std@@V?$allocator@D@2@@std@@@std@@QEBA_KXZ 000000018000e5c0 f i changeDetection.obj
 0001:0000d5d0       ??$forward@V?$allocator@D@std@@@std@@YA$$QEAV?$allocator@D@0@AEAV10@@Z 000000018000e5d0 f i changeDetection.obj
 0001:0000d5e0       ??$forward@V?$basic_string@DU?$char_traits@D@std@@V?$allocator@D@2@@std@@@std@@YA$$QEAV?$basic_string@DU?$char_traits@D@std@@V?$allocator@D@2@@0@AEAV10@@Z 000000018000e5e0 f i changeDetection.obj
 0001:0000d5f0       ??$addressof@$$CBV?$basic_string@DU?$char_traits@D@std@@V?$allocator@D@2@@std@@@std@@YAPEBV?$basic_string@DU?$char_traits@D@std@@V?$allocator@D@2@@0@AEBV10@@Z 000000018000e5f0 f i changeDetection.obj
 0001:0000d600       ??$_Allocate@V?$basic_string@DU?$char_traits@D@std@@V?$allocator@D@2@@std@@@std@@YAPEAV?$basic_string@DU?$char_traits@D@std@@V?$allocator@D@2@@0@_KPEAV10@@Z 000000018000e600 f i changeDetection.obj
 0001:0000d670       ??$_Ptr_cat@V?$basic_string@DU?$char_traits@D@std@@V?$allocator@D@2@@std@@V12@@std@@YA?AU_Nonscalar_ptr_iterator_tag@0@PEAV?$basic_string@DU?$char_traits@D@std@@V?$allocator@D@2@@0@0@Z 000000018000e670 f i changeDetection.obj
 0001:0000d680       ??$forward@AEAV?$basic_string@DU?$char_traits@D@std@@V?$allocator@D@2@@std@@@std@@YAAEAV?$basic_string@DU?$char_traits@D@std@@V?$allocator@D@2@@0@AEAV10@@Z 000000018000e680 f i changeDetection.obj
 0001:0000d690       ??$forward@AEBV?$basic_string@DU?$char_traits@D@std@@V?$allocator@D@2@@std@@@std@@YAAEBV?$basic_string@DU?$char_traits@D@std@@V?$allocator@D@2@@0@AEBV10@@Z 000000018000e690 f i changeDetection.obj
 0001:0000d6a0       ??$?8DD@std@@YA_NAEBV?$allocator@D@0@0@Z 000000018000e6a0 f i changeDetection.obj
 0001:0000d6b0       ??$_Val_type@PEAV?$basic_string@DU?$char_traits@D@std@@V?$allocator@D@2@@std@@@std@@YAPEAV?$basic_string@DU?$char_traits@D@std@@V?$allocator@D@2@@0@PEAV10@@Z 000000018000e6b0 f i changeDetection.obj
 0001:0000d6c0       ??_EchangeDetection@@WBI@EAAPEAXI@Z 000000018000e6c0 f i changeDetection.obj
 0001:0000d6d0       ??_EchangeDetection@@WBA@EAAPEAXI@Z 000000018000e6d0 f i changeDetection.obj
 0001:0000d6e0       ??_GchangeDetection@@UEAAPEAXI@Z 000000018000e6e0 f i changeDetection.obj
 0001:0000d6e0       ??_EchangeDetection@@UEAAPEAXI@Z 000000018000e6e0 f i changeDetection.obj
 0001:0000d750       ?execute@changeDetection@@UEAA_NPEAVPlugInArgList@@0@Z 000000018000e750 f   changeDetection.obj
 0001:0000d810       ??0?$_Vector_val@V?$basic_string@DU?$char_traits@D@std@@V?$allocator@D@2@@std@@V?$allocator@V?$basic_string@DU?$char_traits@D@std@@V?$allocator@D@2@@std@@@2@@std@@QEAA@V?$allocator@V?$basic_string@DU?$char_traits@D@std@@V?$allocator@D@2@@std@@@1@@Z 000000018000e810 f i changeDetection.obj
 0001:0000d830       ?max_size@?$vector@V?$basic_string@DU?$char_traits@D@std@@V?$allocator@D@2@@std@@V?$allocator@V?$basic_string@DU?$char_traits@D@std@@V?$allocator@D@2@@std@@@2@@std@@QEBA_KXZ 000000018000e830 f i changeDetection.obj
 0001:0000d840       ?_Grow_to@?$vector@V?$basic_string@DU?$char_traits@D@std@@V?$allocator@D@2@@std@@V?$allocator@V?$basic_string@DU?$char_traits@D@std@@V?$allocator@D@2@@std@@@2@@std@@IEBA_K_K@Z 000000018000e840 f i changeDetection.obj
 0001:0000d8a0       ?allocate@?$allocator@V?$basic_string@DU?$char_traits@D@std@@V?$allocator@D@2@@std@@@std@@QEAAPEAV?$basic_string@DU?$char_traits@D@std@@V?$allocator@D@2@@2@_K@Z 000000018000e8a0 f i changeDetection.obj
 0001:0000d910       ??$?9DD@std@@YA_NAEBV?$allocator@D@0@0@Z 000000018000e910 f i changeDetection.obj
 0001:0000d920       ??0?$vector@V?$basic_string@DU?$char_traits@D@std@@V?$allocator@D@2@@std@@V?$allocator@V?$basic_string@DU?$char_traits@D@std@@V?$allocator@D@2@@std@@@2@@std@@QEAA@XZ 000000018000e920 f i changeDetection.obj
 0001:0000d940       ??_G?$basic_string@DU?$char_traits@D@std@@V?$allocator@D@2@@std@@QEAAPEAXI@Z 000000018000e940 f i changeDetection.obj
 0001:0000d990       ??$_Destroy@V?$basic_string@DU?$char_traits@D@std@@V?$allocator@D@2@@std@@@std@@YAXPEAV?$basic_string@DU?$char_traits@D@std@@V?$allocator@D@2@@0@@Z 000000018000e990 f i changeDetection.obj
 0001:0000d9d0       ?destroy@?$allocator@V?$basic_string@DU?$char_traits@D@std@@V?$allocator@D@2@@std@@@std@@QEAAXPEAV?$basic_string@DU?$char_traits@D@std@@V?$allocator@D@2@@2@@Z 000000018000e9d0 f i changeDetection.obj
 0001:0000da10       ??0?$basic_string@DU?$char_traits@D@std@@V?$allocator@D@2@@std@@QEAA@AEBV01@@Z 000000018000ea10 f i changeDetection.obj
 0001:0000da50       ??0?$basic_string@DU?$char_traits@D@std@@V?$allocator@D@2@@std@@QEAA@PEBD@Z 000000018000ea50 f i changeDetection.obj
 0001:0000daa0       ?assign@?$basic_string@DU?$char_traits@D@std@@V?$allocator@D@2@@std@@QEAAAEAV12@AEBV12@@Z 000000018000eaa0 f i changeDetection.obj
 0001:0000dab0       ??$construct@AEAV?$basic_string@DU?$char_traits@D@std@@V?$allocator@D@2@@std@@@?$allocator@V?$basic_string@DU?$char_traits@D@std@@V?$allocator@D@2@@std@@@std@@QEAAXPEAV?$basic_string@DU?$char_traits@D@std@@V?$allocator@D@2@@1@AEAV21@@Z 000000018000eab0 f i changeDetection.obj
 0001:0000db00       ??$_Construct@V?$basic_string@DU?$char_traits@D@std@@V?$allocator@D@2@@std@@AEBV12@@std@@YAXPEAV?$basic_string@DU?$char_traits@D@std@@V?$allocator@D@2@@0@AEBV10@@Z 000000018000eb00 f i changeDetection.obj
 0001:0000db50       ??$_Dest_val@V?$allocator@V?$basic_string@DU?$char_traits@D@std@@V?$allocator@D@2@@std@@@std@@V?$basic_string@DU?$char_traits@D@std@@V?$allocator@D@2@@2@@std@@YAXAEAV?$allocator@V?$basic_string@DU?$char_traits@D@std@@V?$allocator@D@2@@std@@@0@PEAV?$basic_string@DU?$char_traits@D@std@@V?$allocator@D@2@@0@@Z 000000018000eb50 f i changeDetection.obj
 0001:0000db90       ??0changeDetection@@QEAA@XZ 000000018000eb90 f   changeDetection.obj
 0001:0000de50       ??4?$basic_string@DU?$char_traits@D@std@@V?$allocator@D@2@@std@@QEAAAEAV01@AEBV01@@Z 000000018000ee50 f i changeDetection.obj
 0001:0000de60       ?assign@?$basic_string@DU?$char_traits@D@std@@V?$allocator@D@2@@std@@QEAAAEAV12@$$QEAV12@@Z 000000018000ee60 f i changeDetection.obj
 0001:0000def0       ??$_Cons_val@V?$allocator@V?$basic_string@DU?$char_traits@D@std@@V?$allocator@D@2@@std@@@std@@V?$basic_string@DU?$char_traits@D@std@@V?$allocator@D@2@@2@AEAV32@@std@@YAXAEAV?$allocator@V?$basic_string@DU?$char_traits@D@std@@V?$allocator@D@2@@std@@@0@PEAV?$basic_string@DU?$char_traits@D@std@@V?$allocator@D@2@@0@AEAV20@@Z 000000018000eef0 f i changeDetection.obj
 0001:0000df40       ?construct@?$allocator@V?$basic_string@DU?$char_traits@D@std@@V?$allocator@D@2@@std@@@std@@QEAAXPEAV?$basic_string@DU?$char_traits@D@std@@V?$allocator@D@2@@2@AEBV32@@Z 000000018000ef40 f i changeDetection.obj
 0001:0000df90       ??$_Destroy_range@V?$allocator@V?$basic_string@DU?$char_traits@D@std@@V?$allocator@D@2@@std@@@std@@@std@@YAXPEAV?$basic_string@DU?$char_traits@D@std@@V?$allocator@D@2@@0@0AEAV?$allocator@V?$basic_string@DU?$char_traits@D@std@@V?$allocator@D@2@@std@@@0@U_Nonscalar_ptr_iterator_tag@0@@Z 000000018000ef90 f i changeDetection.obj
 0001:0000dff0       ??0?$basic_string@DU?$char_traits@D@std@@V?$allocator@D@2@@std@@QEAA@$$QEAV01@@Z 000000018000eff0 f i changeDetection.obj
 0001:0000e020       ??$_Cons_val@V?$allocator@V?$basic_string@DU?$char_traits@D@std@@V?$allocator@D@2@@std@@@std@@V?$basic_string@DU?$char_traits@D@std@@V?$allocator@D@2@@2@AEBV32@@std@@YAXAEAV?$allocator@V?$basic_string@DU?$char_traits@D@std@@V?$allocator@D@2@@std@@@0@PEAV?$basic_string@DU?$char_traits@D@std@@V?$allocator@D@2@@0@AEBV20@@Z 000000018000f020 f i changeDetection.obj
 0001:0000e070       ??$_Destroy_range@V?$allocator@V?$basic_string@DU?$char_traits@D@std@@V?$allocator@D@2@@std@@@std@@@std@@YAXPEAV?$basic_string@DU?$char_traits@D@std@@V?$allocator@D@2@@0@0AEAV?$allocator@V?$basic_string@DU?$char_traits@D@std@@V?$allocator@D@2@@std@@@0@@Z 000000018000f070 f i changeDetection.obj
 0001:0000e0d0       ?construct@?$allocator@V?$basic_string@DU?$char_traits@D@std@@V?$allocator@D@2@@std@@@std@@QEAAXPEAV?$basic_string@DU?$char_traits@D@std@@V?$allocator@D@2@@2@$$QEAV32@@Z 000000018000f0d0 f i changeDetection.obj
 0001:0000e120       ?_Destroy@?$vector@V?$basic_string@DU?$char_traits@D@std@@V?$allocator@D@2@@std@@V?$allocator@V?$basic_string@DU?$char_traits@D@std@@V?$allocator@D@2@@std@@@2@@std@@IEAAXPEAV?$basic_string@DU?$char_traits@D@std@@V?$allocator@D@2@@2@0@Z 000000018000f120 f i changeDetection.obj
 0001:0000e180       ?_Tidy@?$vector@V?$basic_string@DU?$char_traits@D@std@@V?$allocator@D@2@@std@@V?$allocator@V?$basic_string@DU?$char_traits@D@std@@V?$allocator@D@2@@std@@@2@@std@@IEAAXXZ 000000018000f180 f i changeDetection.obj
 0001:0000e200       ??$_Cons_val@V?$allocator@V?$basic_string@DU?$char_traits@D@std@@V?$allocator@D@2@@std@@@std@@V?$basic_string@DU?$char_traits@D@std@@V?$allocator@D@2@@2@V32@@std@@YAXAEAV?$allocator@V?$basic_string@DU?$char_traits@D@std@@V?$allocator@D@2@@std@@@0@PEAV?$basic_string@DU?$char_traits@D@std@@V?$allocator@D@2@@0@$$QEAV20@@Z 000000018000f200 f i changeDetection.obj
 0001:0000e250       ??$_Uninit_move@PEAV?$basic_string@DU?$char_traits@D@std@@V?$allocator@D@2@@std@@PEAV12@V?$allocator@V?$basic_string@DU?$char_traits@D@std@@V?$allocator@D@2@@std@@@2@V12@@std@@YAPEAV?$basic_string@DU?$char_traits@D@std@@V?$allocator@D@2@@0@PEAV10@00AEAV?$allocator@V?$basic_string@DU?$char_traits@D@std@@V?$allocator@D@2@@std@@@0@0U_Nonscalar_ptr_iterator_tag@0@@Z 000000018000f250 f i changeDetection.obj
 0001:0000e2d0       ??1?$vector@V?$basic_string@DU?$char_traits@D@std@@V?$allocator@D@2@@std@@V?$allocator@V?$basic_string@DU?$char_traits@D@std@@V?$allocator@D@2@@std@@@2@@std@@QEAA@XZ 000000018000f2d0 f i changeDetection.obj
 0001:0000e2e0       ??$_Uninitialized_move@PEAV?$basic_string@DU?$char_traits@D@std@@V?$allocator@D@2@@std@@PEAV12@V?$allocator@V?$basic_string@DU?$char_traits@D@std@@V?$allocator@D@2@@std@@@2@@std@@YAPEAV?$basic_string@DU?$char_traits@D@std@@V?$allocator@D@2@@0@PEAV10@00AEAV?$allocator@V?$basic_string@DU?$char_traits@D@std@@V?$allocator@D@2@@std@@@0@@Z 000000018000f2e0 f i changeDetection.obj
 0001:0000e300       ??1BasicPlugInFactory@@UEAA@XZ 000000018000f300 f i changeDetection.obj
 0001:0000e330       ??0?$_Vector_const_iterator@V?$_Vector_val@V?$basic_string@DU?$char_traits@D@std@@V?$allocator@D@2@@std@@V?$allocator@V?$basic_string@DU?$char_traits@D@std@@V?$allocator@D@2@@std@@@2@@std@@@std@@QEAA@PEAV?$basic_string@DU?$char_traits@D@std@@V?$allocator@D@2@@1@PEBU_Container_base0@1@@Z 000000018000f330 f i changeDetection.obj
 0001:0000e340       ??D?$_Vector_const_iterator@V?$_Vector_val@V?$basic_string@DU?$char_traits@D@std@@V?$allocator@D@2@@std@@V?$allocator@V?$basic_string@DU?$char_traits@D@std@@V?$allocator@D@2@@std@@@2@@std@@@std@@QEBAAEBV?$basic_string@DU?$char_traits@D@std@@V?$allocator@D@2@@1@XZ 000000018000f340 f i changeDetection.obj
 0001:0000e350       ??E?$_Vector_const_iterator@V?$_Vector_val@V?$basic_string@DU?$char_traits@D@std@@V?$allocator@D@2@@std@@V?$allocator@V?$basic_string@DU?$char_traits@D@std@@V?$allocator@D@2@@std@@@2@@std@@@std@@QEAAAEAV01@XZ 000000018000f350 f i changeDetection.obj
 0001:0000e360       ?_Compat@?$_Vector_const_iterator@V?$_Vector_val@V?$basic_string@DU?$char_traits@D@std@@V?$allocator@D@2@@std@@V?$allocator@V?$basic_string@DU?$char_traits@D@std@@V?$allocator@D@2@@std@@@2@@std@@@std@@QEBAXAEBV12@@Z 000000018000f360 f i changeDetection.obj
 0001:0000e370       ??$_Ptr_cat@V?$_Vector_const_iterator@V?$_Vector_val@V?$basic_string@DU?$char_traits@D@std@@V?$allocator@D@2@@std@@V?$allocator@V?$basic_string@DU?$char_traits@D@std@@V?$allocator@D@2@@std@@@2@@std@@@std@@PEAV?$basic_string@DU?$char_traits@D@std@@V?$allocator@D@2@@2@@std@@YA?AU_Nonscalar_ptr_iterator_tag@0@AEAV?$_Vector_const_iterator@V?$_Vector_val@V?$basic_string@DU?$char_traits@D@std@@V?$allocator@D@2@@std@@V?$allocator@V?$basic_string@DU?$char_traits@D@std@@V?$allocator@D@2@@std@@@2@@std@@@0@AEAPEAV?$basic_string@DU?$char_traits@D@std@@V?$allocator@D@2@@0@@Z 000000018000f370 f i changeDetection.obj
 0001:0000e380       ?begin@?$vector@V?$basic_string@DU?$char_traits@D@std@@V?$allocator@D@2@@std@@V?$allocator@V?$basic_string@DU?$char_traits@D@std@@V?$allocator@D@2@@std@@@2@@std@@QEBA?AV?$_Vector_const_iterator@V?$_Vector_val@V?$basic_string@DU?$char_traits@D@std@@V?$allocator@D@2@@std@@V?$allocator@V?$basic_string@DU?$char_traits@D@std@@V?$allocator@D@2@@std@@@2@@std@@@2@XZ 000000018000f380 f i changeDetection.obj
 0001:0000e390       ?end@?$vector@V?$basic_string@DU?$char_traits@D@std@@V?$allocator@D@2@@std@@V?$allocator@V?$basic_string@DU?$char_traits@D@std@@V?$allocator@D@2@@std@@@2@@std@@QEBA?AV?$_Vector_const_iterator@V?$_Vector_val@V?$basic_string@DU?$char_traits@D@std@@V?$allocator@D@2@@std@@V?$allocator@V?$basic_string@DU?$char_traits@D@std@@V?$allocator@D@2@@std@@@2@@std@@@2@XZ 000000018000f390 f i changeDetection.obj
 0001:0000e3a0       ??8?$_Vector_const_iterator@V?$_Vector_val@V?$basic_string@DU?$char_traits@D@std@@V?$allocator@D@2@@std@@V?$allocator@V?$basic_string@DU?$char_traits@D@std@@V?$allocator@D@2@@std@@@2@@std@@@std@@QEBA_NAEBV01@@Z 000000018000f3a0 f i changeDetection.obj
 0001:0000e3b0       ?_Buy@?$vector@V?$basic_string@DU?$char_traits@D@std@@V?$allocator@D@2@@std@@V?$allocator@V?$basic_string@DU?$char_traits@D@std@@V?$allocator@D@2@@std@@@2@@std@@IEAA_N_K@Z 000000018000f3b0 f i changeDetection.obj
 0001:0000e420       ??9?$_Vector_const_iterator@V?$_Vector_val@V?$basic_string@DU?$char_traits@D@std@@V?$allocator@D@2@@std@@V?$allocator@V?$basic_string@DU?$char_traits@D@std@@V?$allocator@D@2@@std@@@2@@std@@@std@@QEBA_NAEBV01@@Z 000000018000f420 f i changeDetection.obj
 0001:0000e430       ??$_Uninit_copy@V?$_Vector_const_iterator@V?$_Vector_val@V?$basic_string@DU?$char_traits@D@std@@V?$allocator@D@2@@std@@V?$allocator@V?$basic_string@DU?$char_traits@D@std@@V?$allocator@D@2@@std@@@2@@std@@@std@@PEAV?$basic_string@DU?$char_traits@D@std@@V?$allocator@D@2@@2@V?$allocator@V?$basic_string@DU?$char_traits@D@std@@V?$allocator@D@2@@std@@@2@@std@@YAPEAV?$basic_string@DU?$char_traits@D@std@@V?$allocator@D@2@@0@V?$_Vector_const_iterator@V?$_Vector_val@V?$basic_string@DU?$char_traits@D@std@@V?$allocator@D@2@@std@@V?$allocator@V?$basic_string@DU?$char_traits@D@std@@V?$allocator@D@2@@std@@@2@@std@@@0@0PEAV10@AEAV?$allocator@V?$basic_string@DU?$char_traits@D@std@@V?$allocator@D@2@@std@@@0@U_Nonscalar_ptr_iterator_tag@0@@Z 000000018000f430 f i changeDetection.obj
 0001:0000e4c0       ??$_Uninitialized_copy@V?$_Vector_const_iterator@V?$_Vector_val@V?$basic_string@DU?$char_traits@D@std@@V?$allocator@D@2@@std@@V?$allocator@V?$basic_string@DU?$char_traits@D@std@@V?$allocator@D@2@@std@@@2@@std@@@std@@PEAV?$basic_string@DU?$char_traits@D@std@@V?$allocator@D@2@@2@V?$allocator@V?$basic_string@DU?$char_traits@D@std@@V?$allocator@D@2@@std@@@2@@std@@YAPEAV?$basic_string@DU?$char_traits@D@std@@V?$allocator@D@2@@0@V?$_Vector_const_iterator@V?$_Vector_val@V?$basic_string@DU?$char_traits@D@std@@V?$allocator@D@2@@std@@V?$allocator@V?$basic_string@DU?$char_traits@D@std@@V?$allocator@D@2@@std@@@2@@std@@@0@0PEAV10@AEAV?$allocator@V?$basic_string@DU?$char_traits@D@std@@V?$allocator@D@2@@std@@@0@@Z 000000018000f4c0 f i changeDetection.obj
 0001:0000e4e0       ??$_Ucopy@V?$_Vector_const_iterator@V?$_Vector_val@V?$basic_string@DU?$char_traits@D@std@@V?$allocator@D@2@@std@@V?$allocator@V?$basic_string@DU?$char_traits@D@std@@V?$allocator@D@2@@std@@@2@@std@@@std@@@?$vector@V?$basic_string@DU?$char_traits@D@std@@V?$allocator@D@2@@std@@V?$allocator@V?$basic_string@DU?$char_traits@D@std@@V?$allocator@D@2@@std@@@2@@std@@IEAAPEAV?$basic_string@DU?$char_traits@D@std@@V?$allocator@D@2@@1@V?$_Vector_const_iterator@V?$_Vector_val@V?$basic_string@DU?$char_traits@D@std@@V?$allocator@D@2@@std@@V?$allocator@V?$basic_string@DU?$char_traits@D@std@@V?$allocator@D@2@@std@@@2@@std@@@1@0PEAV21@@Z 000000018000f4e0 f i changeDetection.obj
 0001:0000e520       ??_EBasicPlugInFactory@@UEAAPEAXI@Z 000000018000f520 f i changeDetection.obj
 0001:0000e520       ??_GBasicPlugInFactory@@UEAAPEAXI@Z 000000018000f520 f i changeDetection.obj
 0001:0000e570       ??1changeDetectionPlugInFactory@OpticksCDFPlugin@@UEAA@XZ 000000018000f570 f i changeDetection.obj
 0001:0000e5a0       ??0?$vector@V?$basic_string@DU?$char_traits@D@std@@V?$allocator@D@2@@std@@V?$allocator@V?$basic_string@DU?$char_traits@D@std@@V?$allocator@D@2@@std@@@2@@std@@QEAA@AEBV01@@Z 000000018000f5a0 f i changeDetection.obj
 0001:0000e680       ??$_Umove@PEAV?$basic_string@DU?$char_traits@D@std@@V?$allocator@D@2@@std@@@?$vector@V?$basic_string@DU?$char_traits@D@std@@V?$allocator@D@2@@std@@V?$allocator@V?$basic_string@DU?$char_traits@D@std@@V?$allocator@D@2@@std@@@2@@std@@IEAAPEAV?$basic_string@DU?$char_traits@D@std@@V?$allocator@D@2@@1@PEAV21@00@Z 000000018000f680 f i changeDetection.obj
 0001:0000e6c0       ?getPlugInNames@BasicPlugInFactory@@UEAA?AV?$vector@V?$basic_string@DU?$char_traits@D@std@@V?$allocator@D@2@@std@@V?$allocator@V?$basic_string@DU?$char_traits@D@std@@V?$allocator@D@2@@std@@@2@@std@@XZ 000000018000f6c0 f i changeDetection.obj
 0001:0000e6f0       ?reserve@?$vector@V?$basic_string@DU?$char_traits@D@std@@V?$allocator@D@2@@std@@V?$allocator@V?$basic_string@DU?$char_traits@D@std@@V?$allocator@D@2@@std@@@2@@std@@QEAAX_K@Z 000000018000f6f0 f i changeDetection.obj
 0001:0000e810       ?_Reserve@?$vector@V?$basic_string@DU?$char_traits@D@std@@V?$allocator@D@2@@std@@V?$allocator@V?$basic_string@DU?$char_traits@D@std@@V?$allocator@D@2@@std@@@2@@std@@IEAAX_K@Z 000000018000f810 f i changeDetection.obj
 0001:0000e8c0       ?push_back@?$vector@V?$basic_string@DU?$char_traits@D@std@@V?$allocator@D@2@@std@@V?$allocator@V?$basic_string@DU?$char_traits@D@std@@V?$allocator@D@2@@std@@@2@@std@@QEAAXAEBV?$basic_string@DU?$char_traits@D@std@@V?$allocator@D@2@@2@@Z 000000018000f8c0 f i changeDetection.obj
 0001:0000e9c0       ?addPlugInName@BasicPlugInFactory@@AEAAXV?$basic_string@DU?$char_traits@D@std@@V?$allocator@D@2@@std@@@Z 000000018000f9c0 f i changeDetection.obj
 0001:0000ea10       ??0BasicPlugInFactory@@QEAA@AEBV?$basic_string@DU?$char_traits@D@std@@V?$allocator@D@2@@std@@@Z 000000018000fa10 f i changeDetection.obj
 0001:0000eab0       ??0changeDetectionPlugInFactory@OpticksCDFPlugin@@QEAA@AEBV?$basic_string@DU?$char_traits@D@std@@V?$allocator@D@2@@std@@@Z 000000018000fab0 f i changeDetection.obj
 0001:0000eaf0       ?createPlugIn@changeDetectionPlugInFactory@OpticksCDFPlugin@@UEAAPEAVPlugIn@@AEBV?$basic_string@DU?$char_traits@D@std@@V?$allocator@D@2@@std@@@Z 000000018000faf0 f i changeDetection.obj
 0001:0000eb30       ??_GchangeDetectionPlugInFactory@OpticksCDFPlugin@@UEAAPEAXI@Z 000000018000fb30 f i changeDetection.obj
 0001:0000eb30       ??_EchangeDetectionPlugInFactory@OpticksCDFPlugin@@UEAAPEAXI@Z 000000018000fb30 f i changeDetection.obj
 0001:0000eb80       fabsf                      000000018000fb80 f i codes.obj
 0001:0000eba0       ?fabs@@YAMM@Z              000000018000fba0 f i codes.obj
 0001:0000ebc0       ?sqrt@@YAMM@Z              000000018000fbc0 f i codes.obj
 0001:0000ebd0       ??0_Container_proxy@std@@QEAA@XZ 000000018000fbd0 f i codes.obj
 0001:0000ebe0       ??0_Iterator_base12@std@@QEAA@XZ 000000018000fbe0 f i codes.obj
 0001:0000ebf0       ??1_Iterator_base12@std@@QEAA@XZ 000000018000fbf0 f i codes.obj
 0001:0000ec00       ?_Adopt@_Iterator_base12@std@@QEAAXPEBU_Container_base12@2@@Z 000000018000fc00 f i codes.obj
 0001:0000ec10       ?_Getcont@_Iterator_base12@std@@QEBAPEBU_Container_base12@2@XZ 000000018000fc10 f i codes.obj
 0001:0000ec20       ??0QRunnable@@QEAA@XZ      000000018000fc20 f i codes.obj
 0001:0000ec40       ??1QRunnable@@UEAA@XZ      000000018000fc40 f i codes.obj
 0001:0000ec50       ??_GQRunnable@@UEAAPEAXI@Z 000000018000fc50 f i codes.obj
 0001:0000ec50       ??_EQRunnable@@UEAAPEAXI@Z 000000018000fc50 f i codes.obj
 0001:0000ec80       ??0?$QFutureInterface@X@@QEAA@W4State@QFutureInterfaceBase@@@Z 000000018000fc80 f i codes.obj
 0001:0000ecb0       ??1?$QFutureInterface@X@@UEAA@XZ 000000018000fcb0 f i codes.obj
 0001:0000ecc0       ??0?$QFuture@X@@QEAA@PEAVQFutureInterfaceBase@@@Z 000000018000fcc0 f i codes.obj
 0001:0000ece0       ??0?$QFuture@X@@QEAA@AEBV0@@Z 000000018000fce0 f i codes.obj
 0001:0000ed00       ??1?$QFuture@X@@QEAA@XZ    000000018000fd00 f i codes.obj
 0001:0000ed10       ?waitForFinished@?$QFuture@X@@QEAAXXZ 000000018000fd10 f i codes.obj
 0001:0000ed20       ??4?$QFuture@X@@QEAAAEAV0@AEBV0@@Z 000000018000fd20 f i codes.obj
 0001:0000ed40       ?future@?$QFutureInterface@X@@QEAA?AV?$QFuture@X@@XZ 000000018000fd40 f i codes.obj
 0001:0000ed70       ??0Object@@QEAA@HHHHHH@Z   000000018000fd70 f i codes.obj
 0001:0000ee10       ?dot_product@@YANPEAN0H@Z  000000018000fe10 f   codes.obj
 0001:0000ee70       ?MatrixSubtractRow@@YAXPEAUMatrixStruct@@PEAN@Z 000000018000fe70 f   codes.obj
 0001:0000eee0       ?MatrixMinMax@@YAXPEAUMatrixStruct@@PEAN1@Z 000000018000fee0 f   codes.obj
 0001:0000ef70       ?MatrixTruncate@@YAXPEAUMatrixStruct@@NN@Z 000000018000ff70 f   codes.obj
 0001:0000efe0       ?MatrixTruncRescale@@YAXPEAUMatrixStruct@@NNNN@Z 000000018000ffe0 f   codes.obj
 0001:0000f060       ?MatrixApplyFunc@@YAXPEAUMatrixStruct@@P6ANN@Z@Z 0000000180010060 f   codes.obj
 0001:0000f0f0       ?MatrixSum@@YANPEAUMatrixStruct@@@Z 00000001800100f0 f   codes.obj
 0001:0000f1a0       ?MatrixMean@@YANPEAUMatrixStruct@@@Z 00000001800101a0 f   codes.obj
 0001:0000f1d0       ?MatrixAddValue@@YAXPEAUMatrixStruct@@N@Z 00000001800101d0 f   codes.obj
 0001:0000f230       ?MatrixFill@@YAXPEAUMatrixStruct@@N@Z 0000000180010230 f   codes.obj
 0001:0000f280       ?MatrixScale@@YAXPEAUMatrixStruct@@N@Z 0000000180010280 f   codes.obj
 0001:0000f2e0       ?MatrixReadImage@@YAXPEAUMatrixStruct@@PEAU_iobuf@@@Z 00000001800102e0 f   codes.obj
 0001:0000f420       ?MatrixWriteImage@@YAXPEAUMatrixStruct@@PEAU_iobuf@@@Z 0000000180010420 f   codes.obj
 0001:0000f5c0       ?MatrixWriteVector@@YAXPEAUMatrixStruct@@PEAU_iobuf@@@Z 00000001800105c0 f   codes.obj
 0001:0000f640       ?MatrixWrite@@YAXPEAUMatrixStruct@@PEAU_iobuf@@@Z 0000000180010640 f   codes.obj
 0001:0000f6f0       ?MatrixFromArray@@YAPEAUMatrixStruct@@HHPEAN@Z 00000001800106f0 f   codes.obj
 0001:0000f780       ?MatrixCreate@@YAPEAUMatrixStruct@@HH@Z 0000000180010780 f   codes.obj
 0001:0000f7f0       ?MatrixFree@@YAXPEAUMatrixStruct@@@Z 00000001800107f0 f   codes.obj
 0001:0000f820       ?getImageRows@Image@@QEAAHXZ 0000000180010820 f   codes.obj
 0001:0000f830       ?getImageCols@Image@@QEAAHXZ 0000000180010830 f   codes.obj
 0001:0000f840       ?readPPMImage@@YAPEAPEAPEAEQEAHPEADH@Z 0000000180010840 f   codes.obj
 0001:0000fb90       ?createSegmentedImageInfo@Image@@QEAAXPEAPEAH@Z 0000000180010b90 f   codes.obj
 0001:0000fc00       ?getNOB@Image@@QEAAHXZ     0000000180010c00 f   codes.obj
 0001:0000fc10       ?getPixelData@Image@@QEAAPEAEHH@Z 0000000180010c10 f   codes.obj
 0001:0000fc30       ?setObjectInfo@Object@@QEAAXPEAVImage@@@Z 0000000180010c30 f   codes.obj
 0001:0000fcd0       ??_E?$QFuture@X@@QEAAPEAXI@Z 0000000180010cd0 f i codes.obj
 0001:0000fd50       ?calculateMean@Object@@QEAAXH@Z 0000000180010d50 f   codes.obj
 0001:0000feb0       ?valid_peak@@YAHPEAHPEANN@Z 0000000180010eb0 f   codes.obj
 0001:0000fef0       ?sd_histo@@YANPEANHHH@Z    0000000180010ef0 f   codes.obj
 0001:000103e0       ?dir_histogram@@YAPEANPEAUMatrixStruct@@HH@Z 00000001800113e0 f   codes.obj
 0001:00010790       ?new_dir_histogram@@YAPEANPEAUMatrixStruct@@H@Z 0000000180011790 f   codes.obj
 0001:00010b00       ?Contrast@@YANPEAUMatrixStruct@@@Z 0000000180011b00 f   codes.obj
 0001:00010ce0       ?nbr_diff@@YAPEAUMatrixStruct@@PEAU1@H@Z 0000000180011ce0 f   codes.obj
 0001:00010e20       ?nbr_avg@@YAPEAUMatrixStruct@@PEAU1@H@Z 0000000180011e20 f   codes.obj
 0001:00010f60       ?size@?$vector@V?$vector@HV?$allocator@H@std@@@std@@V?$allocator@V?$vector@HV?$allocator@H@std@@@std@@@2@@std@@QEBA_KXZ 0000000180011f60 f i codes.obj
 0001:00010f70       ??A?$vector@V?$vector@HV?$allocator@H@std@@@std@@V?$allocator@V?$vector@HV?$allocator@H@std@@@std@@@2@@std@@QEAAAEAV?$vector@HV?$allocator@H@std@@@1@_K@Z 0000000180011f70 f i codes.obj
 0001:00010f80       ??A?$vector@MV?$allocator@M@std@@@std@@QEAAAEAM_K@Z 0000000180011f80 f i codes.obj
 0001:00010f90       ?size@?$vector@V?$vector@MV?$allocator@M@std@@@std@@V?$allocator@V?$vector@MV?$allocator@M@std@@@std@@@2@@std@@QEBA_KXZ 0000000180011f90 f i codes.obj
 0001:00010fa0       ??A?$vector@V?$vector@MV?$allocator@M@std@@@std@@V?$allocator@V?$vector@MV?$allocator@M@std@@@std@@@2@@std@@QEAAAEAV?$vector@MV?$allocator@M@std@@@1@_K@Z 0000000180011fa0 f i codes.obj
 0001:00010fb0       ?size@?$deque@HV?$allocator@H@std@@@std@@QEBA_KXZ 0000000180011fb0 f i codes.obj
 0001:00010fc0       ?_Inside@?$vector@V?$vector@HV?$allocator@H@std@@@std@@V?$allocator@V?$vector@HV?$allocator@H@std@@@std@@@2@@std@@IEBA_NPEBV?$vector@HV?$allocator@H@std@@@2@@Z 0000000180011fc0 f i codes.obj
 0001:00010fe0       ?_Orphan_range@?$vector@V?$vector@HV?$allocator@H@std@@@std@@V?$allocator@V?$vector@HV?$allocator@H@std@@@std@@@2@@std@@IEBAXPEAV?$vector@HV?$allocator@H@std@@@2@0@Z 0000000180011fe0 f i codes.obj
 0001:00010ff0       ??1?$_Vector_val@V?$vector@HV?$allocator@H@std@@@std@@V?$allocator@V?$vector@HV?$allocator@H@std@@@std@@@2@@std@@QEAA@XZ 0000000180011ff0 f i codes.obj
 0001:00011000       ??0?$allocator@V?$vector@HV?$allocator@H@std@@@std@@@std@@QEAA@XZ 0000000180012000 f i codes.obj
 0001:00011010       ??0?$allocator@V?$vector@HV?$allocator@H@std@@@std@@@std@@QEAA@AEBV01@@Z 0000000180012010 f i codes.obj
 0001:00011020       ??1?$_Vector_val@MV?$allocator@M@std@@@std@@QEAA@XZ 0000000180012020 f i codes.obj
 0001:00011030       ??0?$allocator@M@std@@QEAA@XZ 0000000180012030 f i codes.obj
 0001:00011040       ?_Inside@?$vector@V?$vector@MV?$allocator@M@std@@@std@@V?$allocator@V?$vector@MV?$allocator@M@std@@@std@@@2@@std@@IEBA_NPEBV?$vector@MV?$allocator@M@std@@@2@@Z 0000000180012040 f i codes.obj
 0001:00011060       ?_Orphan_range@?$vector@V?$vector@MV?$allocator@M@std@@@std@@V?$allocator@V?$vector@MV?$allocator@M@std@@@std@@@2@@std@@IEBAXPEAV?$vector@MV?$allocator@M@std@@@2@0@Z 0000000180012060 f i codes.obj
 0001:00011070       ??1?$_Vector_val@V?$vector@MV?$allocator@M@std@@@std@@V?$allocator@V?$vector@MV?$allocator@M@std@@@std@@@2@@std@@QEAA@XZ 0000000180012070 f i codes.obj
 0001:00011080       ??0?$allocator@V?$vector@MV?$allocator@M@std@@@std@@@std@@QEAA@XZ 0000000180012080 f i codes.obj
 0001:00011090       ??0?$allocator@V?$vector@MV?$allocator@M@std@@@std@@@std@@QEAA@AEBV01@@Z 0000000180012090 f i codes.obj
 0001:000110a0       ??1?$_Deque_const_iterator@HV?$allocator@H@std@@@std@@QEAA@XZ 00000001800120a0 f i codes.obj
 0001:000110b0       ?empty@?$deque@HV?$allocator@H@std@@@std@@QEBA_NXZ 00000001800120b0 f i codes.obj
 0001:000110c0       ?deallocate@?$allocator@PEAH@std@@QEAAXPEAPEAH_K@Z 00000001800120c0 f i codes.obj
 0001:000110d0       ?capacity@?$vector@V?$vector@HV?$allocator@H@std@@@std@@V?$allocator@V?$vector@HV?$allocator@H@std@@@std@@@2@@std@@QEBA_KXZ 00000001800120d0 f i codes.obj
 0001:000110e0       ?get_allocator@?$vector@V?$vector@HV?$allocator@H@std@@@std@@V?$allocator@V?$vector@HV?$allocator@H@std@@@std@@@2@@std@@QEBA?AV?$allocator@V?$vector@HV?$allocator@H@std@@@std@@@2@XZ 00000001800120e0 f i codes.obj
 0001:000110f0       ?_Xlen@?$vector@V?$vector@HV?$allocator@H@std@@@std@@V?$allocator@V?$vector@HV?$allocator@H@std@@@std@@@2@@std@@IEBAXXZ 00000001800120f0 f i codes.obj
 0001:00011110       ?deallocate@?$allocator@V?$vector@HV?$allocator@H@std@@@std@@@std@@QEAAXPEAV?$vector@HV?$allocator@H@std@@@2@_K@Z 0000000180012110 f i codes.obj
 0001:00011120       ?size@?$vector@MV?$allocator@M@std@@@std@@QEBA_KXZ 0000000180012120 f i codes.obj
 0001:00011130       ??0?$allocator@M@std@@QEAA@AEBV01@@Z 0000000180012130 f i codes.obj
 0001:00011140       ?deallocate@?$allocator@M@std@@QEAAXPEAM_K@Z 0000000180012140 f i codes.obj
 0001:00011150       ?capacity@?$vector@V?$vector@MV?$allocator@M@std@@@std@@V?$allocator@V?$vector@MV?$allocator@M@std@@@std@@@2@@std@@QEBA_KXZ 0000000180012150 f i codes.obj
 0001:00011160       ?get_allocator@?$vector@V?$vector@MV?$allocator@M@std@@@std@@V?$allocator@V?$vector@MV?$allocator@M@std@@@std@@@2@@std@@QEBA?AV?$allocator@V?$vector@MV?$allocator@M@std@@@std@@@2@XZ 0000000180012160 f i codes.obj
 0001:00011170       ?_Xlen@?$vector@V?$vector@MV?$allocator@M@std@@@std@@V?$allocator@V?$vector@MV?$allocator@M@std@@@std@@@2@@std@@IEBAXXZ 0000000180012170 f i codes.obj
 0001:00011190       ?deallocate@?$allocator@V?$vector@MV?$allocator@M@std@@@std@@@std@@QEAAXPEAV?$vector@MV?$allocator@M@std@@@2@_K@Z 0000000180012190 f i codes.obj
 0001:000111a0       ?deallocate@?$allocator@U_Container_proxy@std@@@std@@QEAAXPEAU_Container_proxy@2@_K@Z 00000001800121a0 f i codes.obj
 0001:000111b0       ?_Xlen@?$deque@HV?$allocator@H@std@@@std@@IEBAXXZ 00000001800121b0 f i codes.obj
 0001:000111d0       ?max_size@?$allocator@V?$vector@HV?$allocator@H@std@@@std@@@std@@QEBA_KXZ 00000001800121d0 f i codes.obj
 0001:000111e0       ?capacity@?$vector@MV?$allocator@M@std@@@std@@QEBA_KXZ 00000001800121e0 f i codes.obj
 0001:000111f0       ?_Xlen@?$vector@MV?$allocator@M@std@@@std@@IEBAXXZ 00000001800121f0 f i codes.obj
 0001:00011210       ?max_size@?$allocator@V?$vector@MV?$allocator@M@std@@@std@@@std@@QEBA_KXZ 0000000180012210 f i codes.obj
 0001:00011220       ??D?$_Deque_const_iterator@HV?$allocator@H@std@@@std@@QEBAAEBHXZ 0000000180012220 f i codes.obj
 0001:00011260       ??D?$_Vector_const_iterator@V?$_Vector_val@V?$vector@HV?$allocator@H@std@@@std@@V?$allocator@V?$vector@HV?$allocator@H@std@@@std@@@2@@std@@@std@@QEBAAEBV?$vector@HV?$allocator@H@std@@@1@XZ 0000000180012260 f i codes.obj
 0001:00011270       ??E?$_Vector_const_iterator@V?$_Vector_val@V?$vector@HV?$allocator@H@std@@@std@@V?$allocator@V?$vector@HV?$allocator@H@std@@@std@@@2@@std@@@std@@QEAAAEAV01@XZ 0000000180012270 f i codes.obj
 0001:00011280       ??D?$_Vector_const_iterator@V?$_Vector_val@V?$vector@MV?$allocator@M@std@@@std@@V?$allocator@V?$vector@MV?$allocator@M@std@@@std@@@2@@std@@@std@@QEBAAEBV?$vector@MV?$allocator@M@std@@@1@XZ 0000000180012280 f i codes.obj
 0001:00011290       ??E?$_Vector_const_iterator@V?$_Vector_val@V?$vector@MV?$allocator@M@std@@@std@@V?$allocator@V?$vector@MV?$allocator@M@std@@@std@@@2@@std@@@std@@QEAAAEAV01@XZ 0000000180012290 f i codes.obj
 0001:000112a0       ?max_size@?$allocator@M@std@@QEBA_KXZ 00000001800122a0 f i codes.obj
 0001:000112b0       ??0?$_Vector_const_iterator@V?$_Vector_val@V?$vector@HV?$allocator@H@std@@@std@@V?$allocator@V?$vector@HV?$allocator@H@std@@@std@@@2@@std@@@std@@QEAA@PEAV?$vector@HV?$allocator@H@std@@@1@PEBU_Container_base0@1@@Z 00000001800122b0 f i codes.obj
 0001:000112c0       ?_Compat@?$_Vector_const_iterator@V?$_Vector_val@V?$vector@HV?$allocator@H@std@@@std@@V?$allocator@V?$vector@HV?$allocator@H@std@@@std@@@2@@std@@@std@@QEBAXAEBV12@@Z 00000001800122c0 f i codes.obj
 0001:000112d0       ??0?$_Vector_const_iterator@V?$_Vector_val@MV?$allocator@M@std@@@std@@@std@@QEAA@PEAMPEBU_Container_base0@1@@Z 00000001800122d0 f i codes.obj
 0001:000112e0       ??Y?$_Vector_const_iterator@V?$_Vector_val@MV?$allocator@M@std@@@std@@@std@@QEAAAEAV01@_J@Z 00000001800122e0 f i codes.obj
 0001:000112f0       ??0?$_Vector_const_iterator@V?$_Vector_val@V?$vector@MV?$allocator@M@std@@@std@@V?$allocator@V?$vector@MV?$allocator@M@std@@@std@@@2@@std@@@std@@QEAA@PEAV?$vector@MV?$allocator@M@std@@@1@PEBU_Container_base0@1@@Z 00000001800122f0 f i codes.obj
 0001:00011300       ?_Compat@?$_Vector_const_iterator@V?$_Vector_val@V?$vector@MV?$allocator@M@std@@@std@@V?$allocator@V?$vector@MV?$allocator@M@std@@@std@@@2@@std@@@std@@QEBAXAEBV12@@Z 0000000180012300 f i codes.obj
 0001:00011310       ?_Setcont@?$_Deque_const_iterator@HV?$allocator@H@std@@@std@@QEAAXPEBV?$deque@HV?$allocator@H@std@@@2@@Z 0000000180012310 f i codes.obj
 0001:00011320       ?_Compat@?$_Vector_const_iterator@V?$_Vector_val@MV?$allocator@M@std@@@std@@@std@@QEBAXAEBV12@@Z 0000000180012320 f i codes.obj
 0001:00011330       ??$_Pow_int@N@@YANNH@Z     0000000180012330 f i codes.obj
 0001:00011370       ??$move@AEAH@std@@YA$$QEAHAEAH@Z 0000000180012370 f i codes.obj
 0001:00011380       ??$forward@V?$vector@V?$vector@HV?$allocator@H@std@@@std@@V?$allocator@V?$vector@HV?$allocator@H@std@@@std@@@2@@std@@@std@@YA$$QEAV?$vector@V?$vector@HV?$allocator@H@std@@@std@@V?$allocator@V?$vector@HV?$allocator@H@std@@@std@@@2@@0@AEAV10@@Z 0000000180012380 f i codes.obj
 0001:00011390       ??$addressof@$$CBV?$vector@HV?$allocator@H@std@@@std@@@std@@YAPEBV?$vector@HV?$allocator@H@std@@@0@AEBV10@@Z 0000000180012390 f i codes.obj
 0001:000113a0       ??$forward@V?$vector@V?$vector@MV?$allocator@M@std@@@std@@V?$allocator@V?$vector@MV?$allocator@M@std@@@std@@@2@@std@@@std@@YA$$QEAV?$vector@V?$vector@MV?$allocator@M@std@@@std@@V?$allocator@V?$vector@MV?$allocator@M@std@@@std@@@2@@0@AEAV10@@Z 00000001800123a0 f i codes.obj
 0001:000113b0       ??$addressof@$$CBV?$vector@MV?$allocator@M@std@@@std@@@std@@YAPEBV?$vector@MV?$allocator@M@std@@@0@AEBV10@@Z 00000001800123b0 f i codes.obj
 0001:000113c0       ??$forward@H@std@@YA$$QEAHAEAH@Z 00000001800123c0 f i codes.obj
 0001:000113d0       ??$?0H@?$allocator@U_Container_proxy@std@@@std@@QEAA@AEBV?$allocator@H@1@@Z 00000001800123d0 f i codes.obj
 0001:000113e0       ??$forward@V?$vector@HV?$allocator@H@std@@@std@@@std@@YA$$QEAV?$vector@HV?$allocator@H@std@@@0@AEAV10@@Z 00000001800123e0 f i codes.obj
 0001:000113f0       ??$forward@V?$vector@MV?$allocator@M@std@@@std@@@std@@YA$$QEAV?$vector@MV?$allocator@M@std@@@0@AEAV10@@Z 00000001800123f0 f i codes.obj
 0001:00011400       ??$?0H@?$allocator@PEAH@std@@QEAA@AEBV?$allocator@H@1@@Z 0000000180012400 f i codes.obj
 0001:00011410       ??$addressof@V?$vector@HV?$allocator@H@std@@@std@@@std@@YAPEAV?$vector@HV?$allocator@H@std@@@0@AEAV10@@Z 0000000180012410 f i codes.obj
 0001:00011420       ??$addressof@V?$vector@MV?$allocator@M@std@@@std@@@std@@YAPEAV?$vector@MV?$allocator@M@std@@@0@AEAV10@@Z 0000000180012420 f i codes.obj
 0001:00011430       ??$_Allocate@PEAH@std@@YAPEAPEAH_KPEAPEAH@Z 0000000180012430 f i codes.obj
 0001:000114a0       ??$_Allocate@V?$vector@HV?$allocator@H@std@@@std@@@std@@YAPEAV?$vector@HV?$allocator@H@std@@@0@_KPEAV10@@Z 00000001800124a0 f i codes.obj
 0001:00011510       ??$_Allocate@V?$vector@MV?$allocator@M@std@@@std@@@std@@YAPEAV?$vector@MV?$allocator@M@std@@@0@_KPEAV10@@Z 0000000180012510 f i codes.obj
 0001:00011580       ??$_Allocate@U_Container_proxy@std@@@std@@YAPEAU_Container_proxy@0@_KPEAU10@@Z 0000000180012580 f i codes.obj
 0001:000115f0       ??$_Allocate@M@std@@YAPEAM_KPEAM@Z 00000001800125f0 f i codes.obj
 0001:00011660       ?start@?$RunFunctionTaskBase@X@QtConcurrent@@QEAA?AV?$QFuture@X@@XZ 0000000180012660 f i codes.obj
 0001:000116f0       ?construct@?$allocator@H@std@@QEAAXPEAH$$QEAH@Z 00000001800126f0 f i codes.obj
 0001:00011700       ??0?$RunFunctionTaskBase@X@QtConcurrent@@QEAA@XZ 0000000180012700 f i codes.obj
 0001:00011740       ?run@?$RunFunctionTaskBase@X@QtConcurrent@@UEAAXXZ 0000000180012740 f i codes.obj
 0001:00011750       ??1?$RunFunctionTaskBase@X@QtConcurrent@@UEAA@XZ 0000000180012750 f i codes.obj
 0001:00011770       ??_E?$RunFunctionTaskBase@X@QtConcurrent@@UEAAPEAXI@Z 0000000180012770 f i codes.obj
 0001:00011770       ??_G?$RunFunctionTaskBase@X@QtConcurrent@@UEAAPEAXI@Z 0000000180012770 f i codes.obj
 0001:000117b0       ?begin@?$vector@V?$vector@HV?$allocator@H@std@@@std@@V?$allocator@V?$vector@HV?$allocator@H@std@@@std@@@2@@std@@QEBA?AV?$_Vector_const_iterator@V?$_Vector_val@V?$vector@HV?$allocator@H@std@@@std@@V?$allocator@V?$vector@HV?$allocator@H@std@@@std@@@2@@std@@@2@XZ 00000001800127b0 f i codes.obj
 0001:000117c0       ?end@?$vector@V?$vector@HV?$allocator@H@std@@@std@@V?$allocator@V?$vector@HV?$allocator@H@std@@@std@@@2@@std@@QEBA?AV?$_Vector_const_iterator@V?$_Vector_val@V?$vector@HV?$allocator@H@std@@@std@@V?$allocator@V?$vector@HV?$allocator@H@std@@@std@@@2@@std@@@2@XZ 00000001800127c0 f i codes.obj
 0001:000117d0       ?get_allocator@?$vector@HV?$allocator@H@std@@@std@@QEBA?AV?$allocator@H@2@XZ 00000001800127d0 f i codes.obj
 0001:000117e0       ?get_allocator@?$vector@MV?$allocator@M@std@@@std@@QEBA?AV?$allocator@M@2@XZ 00000001800127e0 f i codes.obj
 0001:000117f0       ?_Inside@?$vector@MV?$allocator@M@std@@@std@@IEBA_NPEBM@Z 00000001800127f0 f i codes.obj
 0001:00011810       ?_Orphan_range@?$vector@MV?$allocator@M@std@@@std@@IEBAXPEAM0@Z 0000000180012810 f i codes.obj
 0001:00011820       ??D?$_Vector_const_iterator@V?$_Vector_val@MV?$allocator@M@std@@@std@@@std@@QEBAAEBMXZ 0000000180012820 f i codes.obj
 0001:00011830       ??E?$_Vector_const_iterator@V?$_Vector_val@MV?$allocator@M@std@@@std@@@std@@QEAAAEAV01@XZ 0000000180012830 f i codes.obj
 0001:00011840       ??$forward@AEAV?$vector@HV?$allocator@H@std@@@std@@@std@@YAAEAV?$vector@HV?$allocator@H@std@@@0@AEAV10@@Z 0000000180012840 f i codes.obj
 0001:00011850       ??$forward@AEBV?$vector@HV?$allocator@H@std@@@std@@@std@@YAAEBV?$vector@HV?$allocator@H@std@@@0@AEBV10@@Z 0000000180012850 f i codes.obj
 0001:00011860       ??$forward@AEAV?$vector@MV?$allocator@M@std@@@std@@@std@@YAAEAV?$vector@MV?$allocator@M@std@@@0@AEAV10@@Z 0000000180012860 f i codes.obj
 0001:00011870       ??$forward@AEBV?$vector@MV?$allocator@M@std@@@std@@@std@@YAAEBV?$vector@MV?$allocator@M@std@@@0@AEBV10@@Z 0000000180012870 f i codes.obj
 0001:00011880       ??$?8V?$vector@HV?$allocator@H@std@@@std@@V01@@std@@YA_NAEBV?$allocator@V?$vector@HV?$allocator@H@std@@@std@@@0@0@Z 0000000180012880 f i codes.obj
 0001:00011890       ??$_Val_type@PEAM@std@@YAPEAMPEAM@Z 0000000180012890 f i codes.obj
 0001:000118a0       ??$_Ptr_cat@MM@std@@YA?AU_Scalar_ptr_iterator_tag@0@PEAM0@Z 00000001800128a0 f i codes.obj
 0001:000118b0       ??$?8V?$vector@MV?$allocator@M@std@@@std@@V01@@std@@YA_NAEBV?$allocator@V?$vector@MV?$allocator@M@std@@@std@@@0@0@Z 00000001800128b0 f i codes.obj
 0001:000118c0       ??$_Ptr_cat@PEAHPEAH@std@@YA?AU_Scalar_ptr_iterator_tag@0@PEAPEAH0@Z 00000001800128c0 f i codes.obj
 0001:000118d0       ??$_Uninit_copy@PEAHPEAH@std@@YAPEAPEAHPEAPEAH00AEAV?$allocator@PEAH@0@U_Scalar_ptr_iterator_tag@0@@Z 00000001800128d0 f i codes.obj
 0001:00011900       ??$_Val_type@PEAPEAH@std@@YAPEAPEAHPEAPEAH@Z 0000000180012900 f i codes.obj
 0001:00011910       ??$_Destroy_range@V?$allocator@PEAH@std@@@std@@YAXPEAPEAH0AEAV?$allocator@PEAH@0@U_Scalar_ptr_iterator_tag@0@@Z 0000000180012910 f i codes.obj
 0001:00011920       ??$forward@U_Container_proxy@std@@@std@@YA$$QEAU_Container_proxy@0@AEAU10@@Z 0000000180012920 f i codes.obj
 0001:00011930       ??$_Ptr_cat@V?$vector@HV?$allocator@H@std@@@std@@V12@@std@@YA?AU_Nonscalar_ptr_iterator_tag@0@PEAV?$vector@HV?$allocator@H@std@@@0@0@Z 0000000180012930 f i codes.obj
 0001:00011940       ??$_Move@PEAMPEAM@std@@YAPEAMPEAM00U_Scalar_ptr_iterator_tag@0@@Z 0000000180012940 f i codes.obj
 0001:00011980       ??$_Destroy_range@V?$allocator@M@std@@@std@@YAXPEAM0AEAV?$allocator@M@0@U_Scalar_ptr_iterator_tag@0@@Z 0000000180012980 f i codes.obj
 0001:00011990       ??$_Ptr_cat@V?$vector@MV?$allocator@M@std@@@std@@V12@@std@@YA?AU_Nonscalar_ptr_iterator_tag@0@PEAV?$vector@MV?$allocator@M@std@@@0@0@Z 0000000180012990 f i codes.obj
 0001:000119a0       ??$_Destroy@PEAH@std@@YAXPEAPEAH@Z 00000001800129a0 f i codes.obj
 0001:000119b0       ??$_Destroy@U_Container_proxy@std@@@std@@YAXPEAU_Container_proxy@0@@Z 00000001800129b0 f i codes.obj
 0001:000119c0       ??$forward@M@std@@YA$$QEAMAEAM@Z 00000001800129c0 f i codes.obj
 0001:000119d0       ??$addressof@H@std@@YAPEAHAEAH@Z 00000001800129d0 f i codes.obj
 0001:000119e0       ??$addressof@M@std@@YAPEAMAEAM@Z 00000001800129e0 f i codes.obj
 0001:000119f0       ?construct@?$allocator@M@std@@QEAAXPEAM$$QEAM@Z 00000001800129f0 f i codes.obj
 0001:00011a00       ?begin@?$vector@MV?$allocator@M@std@@@std@@QEBA?AV?$_Vector_const_iterator@V?$_Vector_val@MV?$allocator@M@std@@@std@@@2@XZ 0000000180012a00 f i codes.obj
 0001:00011a10       ?end@?$vector@MV?$allocator@M@std@@@std@@QEBA?AV?$_Vector_const_iterator@V?$_Vector_val@MV?$allocator@M@std@@@std@@@2@XZ 0000000180012a10 f i codes.obj
 0001:00011a20       ??$_Fill_n@PEAH_KH@std@@YAXPEAH_KAEBH@Z 0000000180012a20 f i codes.obj
 0001:00011a50       ??$_Fill_n@PEAM_KM@std@@YAXPEAM_KAEBM@Z 0000000180012a50 f i codes.obj
 0001:00011a80       ??$_Fill_n@PEAPEAH_KPEAH@std@@YAXPEAPEAH_KAEBQEAH@Z 0000000180012a80 f i codes.obj
 0001:00011ab0       ??$_Val_type@PEAV?$vector@HV?$allocator@H@std@@@std@@@std@@YAPEAV?$vector@HV?$allocator@H@std@@@0@PEAV10@@Z 0000000180012ab0 f i codes.obj
 0001:00011ac0       ??$_Val_type@PEAV?$vector@MV?$allocator@M@std@@@std@@@std@@YAPEAV?$vector@MV?$allocator@M@std@@@0@PEAV10@@Z 0000000180012ac0 f i codes.obj
 0001:00011ad0       ??$move@AEAV?$vector@HV?$allocator@H@std@@@std@@@std@@YA$$QEAV?$vector@HV?$allocator@H@std@@@0@AEAV10@@Z 0000000180012ad0 f i codes.obj
 0001:00011ae0       ??$_Uninit_move@MMM@std@@YAPEAMPEAM00AEAV?$allocator@M@0@0U_Scalar_ptr_iterator_tag@0@@Z 0000000180012ae0 f i codes.obj
 0001:00011b10       ??$move@AEAV?$vector@MV?$allocator@M@std@@@std@@@std@@YA$$QEAV?$vector@MV?$allocator@M@std@@@0@AEAV10@@Z 0000000180012b10 f i codes.obj
 0001:00011b20       ??$?8HH@std@@YA_NAEBV?$allocator@H@0@0@Z 0000000180012b20 f i codes.obj
 0001:00011b30       ??$?8MM@std@@YA_NAEBV?$allocator@M@0@0@Z 0000000180012b30 f i codes.obj
 0001:00011b40       ??$_Ptr_cat@V?$_Vector_const_iterator@V?$_Vector_val@V?$vector@HV?$allocator@H@std@@@std@@V?$allocator@V?$vector@HV?$allocator@H@std@@@std@@@2@@std@@@std@@PEAV?$vector@HV?$allocator@H@std@@@2@@std@@YA?AU_Nonscalar_ptr_iterator_tag@0@AEAV?$_Vector_const_iterator@V?$_Vector_val@V?$vector@HV?$allocator@H@std@@@std@@V?$allocator@V?$vector@HV?$allocator@H@std@@@std@@@2@@std@@@0@AEAPEAV?$vector@HV?$allocator@H@std@@@0@@Z 0000000180012b40 f i codes.obj
 0001:00011b50       ??$_Ptr_cat@V?$_Vector_const_iterator@V?$_Vector_val@MV?$allocator@M@std@@@std@@@std@@PEAM@std@@YA?AU_Nonscalar_ptr_iterator_tag@0@AEAV?$_Vector_const_iterator@V?$_Vector_val@MV?$allocator@M@std@@@std@@@0@AEAPEAM@Z 0000000180012b50 f i codes.obj
 0001:00011b60       ??$forward@AEBM@std@@YAAEBMAEBM@Z 0000000180012b60 f i codes.obj
 0001:00011b70       ??$_Construct@MAEBM@std@@YAXPEAMAEBM@Z 0000000180012b70 f i codes.obj
 0001:00011b80       ??$_Destroy@M@std@@YAXPEAM@Z 0000000180012b80 f i codes.obj
 0001:00011b90       ??_E?$RunFunctionTaskBase@X@QtConcurrent@@WBA@EAAPEAXI@Z 0000000180012b90 f i codes.obj
 0001:00011ba0       ?pow@@YANNH@Z              0000000180012ba0 f i codes.obj
 0001:00011be0       ?canceledResult@?$QFutureInterface@X@@SA?AV1@XZ 0000000180012be0 f i codes.obj
 0001:00011c10       ??_G?$QFutureInterface@X@@UEAAPEAXI@Z 0000000180012c10 f i codes.obj
 0001:00011c10       ??_E?$QFutureInterface@X@@UEAAPEAXI@Z 0000000180012c10 f i codes.obj
 0001:00011c40       ??0?$QFuture@X@@QEAA@XZ    0000000180012c40 f i codes.obj
 0001:00011c90       ?MatrixFilter@@YAPEAUMatrixStruct@@PEAU1@0@Z 0000000180012c90 f   codes.obj
 0001:00011f70       ?MatrixColSum@@YAPEAUMatrixStruct@@PEAU1@@Z 0000000180012f70 f   codes.obj
 0001:000120c0       ?MatrixColMean@@YAPEAUMatrixStruct@@PEAU1@@Z 00000001800130c0 f   codes.obj
 0001:00012140       ?MatrixRescale@@YAXPEAUMatrixStruct@@NN@Z 0000000180013140 f   codes.obj
 0001:00012390       ?MatrixCopy@@YAPEAUMatrixStruct@@PEAU1@@Z 0000000180013390 f   codes.obj
 0001:00012430       ?Directionality@@YAXPEAUMatrixStruct@@HHNPEAHPEAN@Z 0000000180013430 f   codes.obj
 0001:000129c0       ?size@?$queue@HV?$deque@HV?$allocator@H@std@@@std@@@std@@QEBA_KXZ 00000001800139c0 f i codes.obj
 0001:000129d0       ??0?$_Vector_val@V?$vector@HV?$allocator@H@std@@@std@@V?$allocator@V?$vector@HV?$allocator@H@std@@@std@@@2@@std@@QEAA@V?$allocator@V?$vector@HV?$allocator@H@std@@@std@@@1@@Z 00000001800139d0 f i codes.obj
 0001:000129f0       ??0?$_Vector_val@MV?$allocator@M@std@@@std@@QEAA@V?$allocator@M@1@@Z 00000001800139f0 f i codes.obj
 0001:00012a10       ??0?$_Vector_val@V?$vector@MV?$allocator@M@std@@@std@@V?$allocator@V?$vector@MV?$allocator@M@std@@@std@@@2@@std@@QEAA@V?$allocator@V?$vector@MV?$allocator@M@std@@@std@@@1@@Z 0000000180013a10 f i codes.obj
 0001:00012a30       ??1?$_Deque_iterator@HV?$allocator@H@std@@@std@@QEAA@XZ 0000000180013a30 f i codes.obj
 0001:00012a40       ?max_size@?$vector@V?$vector@HV?$allocator@H@std@@@std@@V?$allocator@V?$vector@HV?$allocator@H@std@@@std@@@2@@std@@QEBA_KXZ 0000000180013a40 f i codes.obj
 0001:00012a50       ?_Grow_to@?$vector@V?$vector@HV?$allocator@H@std@@@std@@V?$allocator@V?$vector@HV?$allocator@H@std@@@std@@@2@@std@@IEBA_K_K@Z 0000000180013a50 f i codes.obj
 0001:00012a90       ?max_size@?$vector@V?$vector@MV?$allocator@M@std@@@std@@V?$allocator@V?$vector@MV?$allocator@M@std@@@std@@@2@@std@@QEBA_KXZ 0000000180013a90 f i codes.obj
 0001:00012aa0       ?_Grow_to@?$vector@V?$vector@MV?$allocator@M@std@@@std@@V?$allocator@V?$vector@MV?$allocator@M@std@@@std@@@2@@std@@IEBA_K_K@Z 0000000180013aa0 f i codes.obj
 0001:00012ae0       ??D?$_Deque_iterator@HV?$allocator@H@std@@@std@@QEBAAEAHXZ 0000000180013ae0 f i codes.obj
 0001:00012b20       ??D?$_Vector_iterator@V?$_Vector_val@V?$vector@HV?$allocator@H@std@@@std@@V?$allocator@V?$vector@HV?$allocator@H@std@@@std@@@2@@std@@@std@@QEBAAEAV?$vector@HV?$allocator@H@std@@@1@XZ 0000000180013b20 f i codes.obj
 0001:00012b30       ??E?$_Vector_iterator@V?$_Vector_val@V?$vector@HV?$allocator@H@std@@@std@@V?$allocator@V?$vector@HV?$allocator@H@std@@@std@@@2@@std@@@std@@QEAAAEAV01@XZ 0000000180013b30 f i codes.obj
 0001:00012b40       ??D?$_Vector_iterator@V?$_Vector_val@V?$vector@MV?$allocator@M@std@@@std@@V?$allocator@V?$vector@MV?$allocator@M@std@@@std@@@2@@std@@@std@@QEBAAEAV?$vector@MV?$allocator@M@std@@@1@XZ 0000000180013b40 f i codes.obj
 0001:00012b50       ??E?$_Vector_iterator@V?$_Vector_val@V?$vector@MV?$allocator@M@std@@@std@@V?$allocator@V?$vector@MV?$allocator@M@std@@@std@@@2@@std@@@std@@QEAAAEAV01@XZ 0000000180013b50 f i codes.obj
 0001:00012b60       ?max_size@?$deque@HV?$allocator@H@std@@@std@@QEBA_KXZ 0000000180013b60 f i codes.obj
 0001:00012b70       ?allocate@?$allocator@PEAH@std@@QEAAPEAPEAH_K@Z 0000000180013b70 f i codes.obj
 0001:00012be0       ?allocate@?$allocator@V?$vector@HV?$allocator@H@std@@@std@@@std@@QEAAPEAV?$vector@HV?$allocator@H@std@@@2@_K@Z 0000000180013be0 f i codes.obj
 0001:00012c50       ?max_size@?$vector@MV?$allocator@M@std@@@std@@QEBA_KXZ 0000000180013c50 f i codes.obj
 0001:00012c60       ?_Grow_to@?$vector@MV?$allocator@M@std@@@std@@IEBA_K_K@Z 0000000180013c60 f i codes.obj
 0001:00012ca0       ?allocate@?$allocator@V?$vector@MV?$allocator@M@std@@@std@@@std@@QEAAPEAV?$vector@MV?$allocator@M@std@@@2@_K@Z 0000000180013ca0 f i codes.obj
 0001:00012d10       ?allocate@?$allocator@U_Container_proxy@std@@@std@@QEAAPEAU_Container_proxy@2@_K@Z 0000000180013d10 f i codes.obj
 0001:00012d80       ??0?$_Vector_iterator@V?$_Vector_val@V?$vector@HV?$allocator@H@std@@@std@@V?$allocator@V?$vector@HV?$allocator@H@std@@@std@@@2@@std@@@std@@QEAA@PEAV?$vector@HV?$allocator@H@std@@@1@PEBU_Container_base0@1@@Z 0000000180013d80 f i codes.obj
 0001:00012d90       ??8?$_Vector_const_iterator@V?$_Vector_val@V?$vector@HV?$allocator@H@std@@@std@@V?$allocator@V?$vector@HV?$allocator@H@std@@@std@@@2@@std@@@std@@QEBA_NAEBV01@@Z 0000000180013d90 f i codes.obj
 0001:00012da0       ??0?$_Vector_iterator@V?$_Vector_val@MV?$allocator@M@std@@@std@@@std@@QEAA@PEAMPEBU_Container_base0@1@@Z 0000000180013da0 f i codes.obj
 0001:00012db0       ??Y?$_Vector_iterator@V?$_Vector_val@MV?$allocator@M@std@@@std@@@std@@QEAAAEAV01@_J@Z 0000000180013db0 f i codes.obj
 0001:00012dc0       ??0?$_Vector_iterator@V?$_Vector_val@V?$vector@MV?$allocator@M@std@@@std@@V?$allocator@V?$vector@MV?$allocator@M@std@@@std@@@2@@std@@@std@@QEAA@PEAV?$vector@MV?$allocator@M@std@@@1@PEBU_Container_base0@1@@Z 0000000180013dc0 f i codes.obj
 0001:00012dd0       ??8?$_Vector_const_iterator@V?$_Vector_val@V?$vector@MV?$allocator@M@std@@@std@@V?$allocator@V?$vector@MV?$allocator@M@std@@@std@@@2@@std@@@std@@QEBA_NAEBV01@@Z 0000000180013dd0 f i codes.obj
 0001:00012de0       ?_Make_iter@?$vector@V?$vector@HV?$allocator@H@std@@@std@@V?$allocator@V?$vector@HV?$allocator@H@std@@@std@@@2@@std@@QEBA?AV?$_Vector_iterator@V?$_Vector_val@V?$vector@HV?$allocator@H@std@@@std@@V?$allocator@V?$vector@HV?$allocator@H@std@@@std@@@2@@std@@@2@V?$_Vector_const_iterator@V?$_Vector_val@V?$vector@HV?$allocator@H@std@@@std@@V?$allocator@V?$vector@HV?$allocator@H@std@@@std@@@2@@std@@@2@@Z 0000000180013de0 f i codes.obj
 0001:00012df0       ?allocate@?$allocator@M@std@@QEAAPEAM_K@Z 0000000180013df0 f i codes.obj
 0001:00012e60       ?_Make_iter@?$vector@V?$vector@MV?$allocator@M@std@@@std@@V?$allocator@V?$vector@MV?$allocator@M@std@@@std@@@2@@std@@QEBA?AV?$_Vector_iterator@V?$_Vector_val@V?$vector@MV?$allocator@M@std@@@std@@V?$allocator@V?$vector@MV?$allocator@M@std@@@std@@@2@@std@@@2@V?$_Vector_const_iterator@V?$_Vector_val@V?$vector@MV?$allocator@M@std@@@std@@V?$allocator@V?$vector@MV?$allocator@M@std@@@std@@@2@@std@@@2@@Z 0000000180013e60 f i codes.obj
 0001:00012e70       ??0?$_Deque_const_iterator@HV?$allocator@H@std@@@std@@QEAA@_KPEBU_Container_base12@1@@Z 0000000180013e70 f i codes.obj
 0001:00012e90       ??8?$_Vector_const_iterator@V?$_Vector_val@MV?$allocator@M@std@@@std@@@std@@QEBA_NAEBV01@@Z 0000000180013e90 f i codes.obj
 0001:00012ea0       ??$_Cons_val@V?$allocator@H@std@@HH@std@@YAXAEAV?$allocator@H@0@PEAH$$QEAH@Z 0000000180013ea0 f i codes.obj
 0001:00012eb0       ??$?9V?$vector@HV?$allocator@H@std@@@std@@V01@@std@@YA_NAEBV?$allocator@V?$vector@HV?$allocator@H@std@@@std@@@0@0@Z 0000000180013eb0 f i codes.obj
 0001:00012ec0       ??$?9V?$vector@MV?$allocator@M@std@@@std@@V01@@std@@YA_NAEBV?$allocator@V?$vector@MV?$allocator@M@std@@@std@@@0@0@Z 0000000180013ec0 f i codes.obj
 0001:00012ed0       ??$_Uninitialized_copy@PEAPEAHPEAPEAHV?$allocator@PEAH@std@@@std@@YAPEAPEAHPEAPEAH00AEAV?$allocator@PEAH@0@@Z 0000000180013ed0 f i codes.obj
 0001:00012f00       ??$_Destroy_range@V?$allocator@PEAH@std@@@std@@YAXPEAPEAH0AEAV?$allocator@PEAH@0@@Z 0000000180013f00 f i codes.obj
 0001:00012f10       ??$_Move@PEAMPEAM@std@@YAPEAMPEAM00@Z 0000000180013f10 f i codes.obj
 0001:00012f50       ??$_Destroy_range@V?$allocator@M@std@@@std@@YAXPEAM0AEAV?$allocator@M@0@@Z 0000000180013f50 f i codes.obj
 0001:00012f60       ?destroy@?$allocator@PEAH@std@@QEAAXPEAPEAH@Z 0000000180013f60 f i codes.obj
 0001:00012f70       ?construct@?$allocator@U_Container_proxy@std@@@std@@QEAAXPEAU_Container_proxy@2@$$QEAU32@@Z 0000000180013f70 f i codes.obj
 0001:00012f90       ?destroy@?$allocator@U_Container_proxy@std@@@std@@QEAAXPEAU_Container_proxy@2@@Z 0000000180013f90 f i codes.obj
 0001:00012fa0       ??0?$RunFunctionTask@X@QtConcurrent@@QEAA@XZ 0000000180013fa0 f i codes.obj
 0001:00012fe0       ?reportFinished@?$QFutureInterface@X@@QEAAXPEAX@Z 0000000180013fe0 f i codes.obj
 0001:00012ff0       ?run@?$RunFunctionTask@X@QtConcurrent@@UEAAXXZ 0000000180013ff0 f i codes.obj
 0001:00013020       ??_E?$RunFunctionTask@X@QtConcurrent@@WBA@EAAPEAXI@Z 0000000180014020 f i codes.obj
 0001:00013030       ??1?$RunFunctionTask@X@QtConcurrent@@UEAA@XZ 0000000180014030 f i codes.obj
 0001:00013050       ??_E?$RunFunctionTask@X@QtConcurrent@@UEAAPEAXI@Z 0000000180014050 f i codes.obj
 0001:00013050       ??_G?$RunFunctionTask@X@QtConcurrent@@UEAAPEAXI@Z 0000000180014050 f i codes.obj
 0001:00013090       ?_Buy@?$vector@V?$vector@HV?$allocator@H@std@@@std@@V?$allocator@V?$vector@HV?$allocator@H@std@@@std@@@2@@std@@IEAA_N_K@Z 0000000180014090 f i codes.obj
 0001:00013100       ??D?$_Vector_iterator@V?$_Vector_val@MV?$allocator@M@std@@@std@@@std@@QEBAAEAMXZ 0000000180014100 f i codes.obj
 0001:00013110       ??E?$_Vector_iterator@V?$_Vector_val@MV?$allocator@M@std@@@std@@@std@@QEAAAEAV01@XZ 0000000180014110 f i codes.obj
 0001:00013120       ??$_Uninit_def_fill_n@H_KHH@std@@YAXPEAH_KPEBHAEAV?$allocator@H@0@0U_Scalar_ptr_iterator_tag@0@@Z 0000000180014120 f i codes.obj
 0001:00013140       ??$_Uninit_def_fill_n@M_KMM@std@@YAXPEAM_KPEBMAEAV?$allocator@M@0@0U_Scalar_ptr_iterator_tag@0@@Z 0000000180014140 f i codes.obj
 0001:00013160       ??$_Uninit_def_fill_n@PEAH_KPEAHPEAH@std@@YAXPEAPEAH_KPEBQEAHAEAV?$allocator@PEAH@0@0U_Scalar_ptr_iterator_tag@0@@Z 0000000180014160 f i codes.obj
 0001:00013180       ??$_Uninitialized_move@PEAMPEAMV?$allocator@M@std@@@std@@YAPEAMPEAM00AEAV?$allocator@M@0@@Z 0000000180014180 f i codes.obj
 0001:000131b0       ??$?9HH@std@@YA_NAEBV?$allocator@H@0@0@Z 00000001800141b0 f i codes.obj
 0001:000131c0       ??$?9MM@std@@YA_NAEBV?$allocator@M@0@0@Z 00000001800141c0 f i codes.obj
 0001:000131d0       ??$_Cons_val@V?$allocator@M@std@@MM@std@@YAXAEAV?$allocator@M@0@PEAM$$QEAM@Z 00000001800141d0 f i codes.obj
 0001:000131e0       ?_Buy@?$vector@MV?$allocator@M@std@@@std@@IEAA_N_K@Z 00000001800141e0 f i codes.obj
 0001:00013250       ?construct@?$allocator@M@std@@QEAAXPEAMAEBM@Z 0000000180014250 f i codes.obj
 0001:00013260       ?destroy@?$allocator@M@std@@QEAAXPEAM@Z 0000000180014260 f i codes.obj
 0001:00013270       ?MatrixSub@@YAPEAUMatrixStruct@@PEAU1@HHHH@Z 0000000180014270 f   codes.obj
 0001:000134a0       ?Coarseness@@YANPEAUMatrixStruct@@HN@Z 00000001800144a0 f   codes.obj
 0001:000138c0       ?createAttribute@Object@@QEAAXH@Z 00000001800148c0 f   codes.obj
 0001:00014310       ??0?$vector@V?$vector@HV?$allocator@H@std@@@std@@V?$allocator@V?$vector@HV?$allocator@H@std@@@std@@@2@@std@@QEAA@XZ 0000000180015310 f i codes.obj
 0001:00014330       ??0?$vector@V?$vector@MV?$allocator@M@std@@@std@@V?$allocator@V?$vector@MV?$allocator@M@std@@@std@@@2@@std@@QEAA@XZ 0000000180015330 f i codes.obj
 0001:00014350       ?begin@?$vector@V?$vector@HV?$allocator@H@std@@@std@@V?$allocator@V?$vector@HV?$allocator@H@std@@@std@@@2@@std@@QEAA?AV?$_Vector_iterator@V?$_Vector_val@V?$vector@HV?$allocator@H@std@@@std@@V?$allocator@V?$vector@HV?$allocator@H@std@@@std@@@2@@std@@@2@XZ 0000000180015350 f i codes.obj
 0001:00014360       ?end@?$vector@V?$vector@HV?$allocator@H@std@@@std@@V?$allocator@V?$vector@HV?$allocator@H@std@@@std@@@2@@std@@QEAA?AV?$_Vector_iterator@V?$_Vector_val@V?$vector@HV?$allocator@H@std@@@std@@V?$allocator@V?$vector@HV?$allocator@H@std@@@std@@@2@@std@@@2@XZ 0000000180015360 f i codes.obj
 0001:00014370       ?begin@?$vector@MV?$allocator@M@std@@@std@@QEAA?AV?$_Vector_iterator@V?$_Vector_val@MV?$allocator@M@std@@@std@@@2@XZ 0000000180015370 f i codes.obj
 0001:00014380       ?end@?$vector@MV?$allocator@M@std@@@std@@QEAA?AV?$_Vector_iterator@V?$_Vector_val@MV?$allocator@M@std@@@std@@@2@XZ 0000000180015380 f i codes.obj
 0001:00014390       ?_Destroy@?$vector@MV?$allocator@M@std@@@std@@IEAAXPEAM0@Z 0000000180015390 f i codes.obj
 0001:000143a0       ?begin@?$vector@V?$vector@MV?$allocator@M@std@@@std@@V?$allocator@V?$vector@MV?$allocator@M@std@@@std@@@2@@std@@QEAA?AV?$_Vector_iterator@V?$_Vector_val@V?$vector@MV?$allocator@M@std@@@std@@V?$allocator@V?$vector@MV?$allocator@M@std@@@std@@@2@@std@@@2@XZ 00000001800153a0 f i codes.obj
 0001:000143b0       ?end@?$vector@V?$vector@MV?$allocator@M@std@@@std@@V?$allocator@V?$vector@MV?$allocator@M@std@@@std@@@2@@std@@QEAA?AV?$_Vector_iterator@V?$_Vector_val@V?$vector@MV?$allocator@M@std@@@std@@V?$allocator@V?$vector@MV?$allocator@M@std@@@std@@@2@@std@@@2@XZ 00000001800153b0 f i codes.obj
 0001:000143c0       ??H?$_Vector_iterator@V?$_Vector_val@HV?$allocator@H@std@@@std@@@std@@QEBA?AV01@_J@Z 00000001800153c0 f i codes.obj
 0001:000143d0       ??9?$_Vector_const_iterator@V?$_Vector_val@V?$vector@HV?$allocator@H@std@@@std@@V?$allocator@V?$vector@HV?$allocator@H@std@@@std@@@2@@std@@@std@@QEBA_NAEBV01@@Z 00000001800153d0 f i codes.obj
 0001:000143e0       ??H?$_Vector_iterator@V?$_Vector_val@MV?$allocator@M@std@@@std@@@std@@QEBA?AV01@_J@Z 00000001800153e0 f i codes.obj
 0001:000143f0       ??9?$_Vector_const_iterator@V?$_Vector_val@V?$vector@MV?$allocator@M@std@@@std@@V?$allocator@V?$vector@MV?$allocator@M@std@@@std@@@2@@std@@@std@@QEBA_NAEBV01@@Z 00000001800153f0 f i codes.obj
 0001:00014400       ?_Make_iter@?$vector@MV?$allocator@M@std@@@std@@QEBA?AV?$_Vector_iterator@V?$_Vector_val@MV?$allocator@M@std@@@std@@@2@V?$_Vector_const_iterator@V?$_Vector_val@MV?$allocator@M@std@@@std@@@2@@Z 0000000180015400 f i codes.obj
 0001:00014410       ??0?$_Deque_iterator@HV?$allocator@H@std@@@std@@QEAA@_KPEBU_Container_base12@1@@Z 0000000180015410 f i codes.obj
 0001:00014430       ??9?$_Vector_const_iterator@V?$_Vector_val@MV?$allocator@M@std@@@std@@@std@@QEBA_NAEBV01@@Z 0000000180015430 f i codes.obj
 0001:00014440       ??$_Dest_val@V?$allocator@PEAH@std@@PEAH@std@@YAXAEAV?$allocator@PEAH@0@PEAPEAH@Z 0000000180015440 f i codes.obj
 0001:00014450       ??$_Dest_val@V?$allocator@U_Container_proxy@std@@@std@@U_Container_proxy@2@@std@@YAXAEAV?$allocator@U_Container_proxy@std@@@0@PEAU_Container_proxy@0@@Z 0000000180015450 f i codes.obj
 0001:00014460       ??$_Uninitialized_default_fill_n@PEAH_KHV?$allocator@H@std@@@std@@YAXPEAH_KPEBHAEAV?$allocator@H@0@@Z 0000000180015460 f i codes.obj
 0001:00014480       ??$_Uninitialized_default_fill_n@PEAM_KMV?$allocator@M@std@@@std@@YAXPEAM_KPEBMAEAV?$allocator@M@0@@Z 0000000180015480 f i codes.obj
 0001:000144a0       ??$_Uninitialized_default_fill_n@PEAPEAH_KPEAHV?$allocator@PEAH@std@@@std@@YAXPEAPEAH_KPEBQEAHAEAV?$allocator@PEAH@0@@Z 00000001800154a0 f i codes.obj
 0001:000144c0       ??$_Cons_val@V?$allocator@U_Container_proxy@std@@@std@@U_Container_proxy@2@U32@@std@@YAXAEAV?$allocator@U_Container_proxy@std@@@0@PEAU_Container_proxy@0@$$QEAU20@@Z 00000001800154c0 f i codes.obj
 0001:000144e0       ??$_Umove@PEAM@?$vector@MV?$allocator@M@std@@@std@@IEAAPEAMPEAM00@Z 00000001800154e0 f i codes.obj
 0001:00014510       ??$_Cons_val@V?$allocator@M@std@@MAEBM@std@@YAXAEAV?$allocator@M@0@PEAMAEBM@Z 0000000180015510 f i codes.obj
 0001:00014520       ??$_Dest_val@V?$allocator@M@std@@M@std@@YAXAEAV?$allocator@M@0@PEAM@Z 0000000180015520 f i codes.obj
 0001:00014530       ?pop_front@?$deque@HV?$allocator@H@std@@@std@@QEAAXXZ 0000000180015530 f i codes.obj
 0001:00014570       ??1?$_Deque_val@HV?$allocator@H@std@@@std@@QEAA@XZ 0000000180015570 f i codes.obj
 0001:00014590       ?_Tidy@?$vector@MV?$allocator@M@std@@@std@@IEAAXXZ 0000000180015590 f i codes.obj
 0001:000145c0       ?begin@?$deque@HV?$allocator@H@std@@@std@@QEAA?AV?$_Deque_iterator@HV?$allocator@H@std@@@2@XZ 00000001800155c0 f i codes.obj
 0001:000145e0       ?pop_back@?$deque@HV?$allocator@H@std@@@std@@QEAAXXZ 00000001800155e0 f i codes.obj
 0001:00014600       ?_Growmap@?$deque@HV?$allocator@H@std@@@std@@IEAAX_K@Z 0000000180015600 f i codes.obj
 0001:000147a0       ??0?$_Deque_val@HV?$allocator@H@std@@@std@@QEAA@V?$allocator@H@1@@Z 00000001800157a0 f i codes.obj
 0001:00014830       ?erase@?$vector@MV?$allocator@M@std@@@std@@QEAA?AV?$_Vector_iterator@V?$_Vector_val@MV?$allocator@M@std@@@std@@@2@V?$_Vector_const_iterator@V?$_Vector_val@MV?$allocator@M@std@@@std@@@2@0@Z 0000000180015830 f i codes.obj
 0001:000148a0       ?reserve@?$vector@MV?$allocator@M@std@@@std@@QEAAX_K@Z 00000001800158a0 f i codes.obj
 0001:00014960       ?clear@?$vector@MV?$allocator@M@std@@@std@@QEAAXXZ 0000000180015960 f i codes.obj
 0001:000149c0       ??$_Uninit_copy@V?$_Vector_const_iterator@V?$_Vector_val@MV?$allocator@M@std@@@std@@@std@@PEAMV?$allocator@M@2@@std@@YAPEAMV?$_Vector_const_iterator@V?$_Vector_val@MV?$allocator@M@std@@@std@@@0@0PEAMAEAV?$allocator@M@0@U_Nonscalar_ptr_iterator_tag@0@@Z 00000001800159c0 f i codes.obj
 0001:00014a00       ?pop@?$queue@HV?$deque@HV?$allocator@H@std@@@std@@@std@@QEAAXXZ 0000000180015a00 f i codes.obj
 0001:00014a40       ??1?$vector@MV?$allocator@M@std@@@std@@QEAA@XZ 0000000180015a40 f i codes.obj
 0001:00014a70       ??0?$deque@HV?$allocator@H@std@@@std@@QEAA@XZ 0000000180015a70 f i codes.obj
 0001:00014a90       ?push_back@?$deque@HV?$allocator@H@std@@@std@@QEAAX$$QEAH@Z 0000000180015a90 f i codes.obj
 0001:00014b80       ?front@?$deque@HV?$allocator@H@std@@@std@@QEAAAEAHXZ 0000000180015b80 f i codes.obj
 0001:00014bd0       ?_Tidy@?$deque@HV?$allocator@H@std@@@std@@IEAAXXZ 0000000180015bd0 f i codes.obj
 0001:00014c60       ?_Reserve@?$vector@MV?$allocator@M@std@@@std@@IEAAX_K@Z 0000000180015c60 f i codes.obj
 0001:00014ce0       ?push_back@?$vector@HV?$allocator@H@std@@@std@@QEAAX$$QEAH@Z 0000000180015ce0 f i codes.obj
 0001:00014d70       ?push_back@?$vector@MV?$allocator@M@std@@@std@@QEAAX$$QEAM@Z 0000000180015d70 f i codes.obj
 0001:00014e00       ??$_Uninitialized_copy@V?$_Vector_const_iterator@V?$_Vector_val@MV?$allocator@M@std@@@std@@@std@@PEAMV?$allocator@M@2@@std@@YAPEAMV?$_Vector_const_iterator@V?$_Vector_val@MV?$allocator@M@std@@@std@@@0@0PEAMAEAV?$allocator@M@0@@Z 0000000180015e00 f i codes.obj
 0001:00014e20       ??_G?$vector@HV?$allocator@H@std@@@std@@QEAAPEAXI@Z 0000000180015e20 f i codes.obj
 0001:00014e70       ??_G?$vector@MV?$allocator@M@std@@@std@@QEAAPEAXI@Z 0000000180015e70 f i codes.obj
 0001:00014ec0       ?push@?$queue@HV?$deque@HV?$allocator@H@std@@@std@@@std@@QEAAX$$QEAH@Z 0000000180015ec0 f i codes.obj
 0001:00014ed0       ?front@?$queue@HV?$deque@HV?$allocator@H@std@@@std@@@std@@QEAAAEAHXZ 0000000180015ed0 f i codes.obj
 0001:00014f20       ??1?$deque@HV?$allocator@H@std@@@std@@QEAA@XZ 0000000180015f20 f i codes.obj
 0001:00014f50       ?resize@?$vector@HV?$allocator@H@std@@@std@@QEAAX_K@Z 0000000180015f50 f i codes.obj
 0001:00015070       ?resize@?$vector@MV?$allocator@M@std@@@std@@QEAAX_K@Z 0000000180016070 f i codes.obj
 0001:00015190       ?_Assign_rv@?$vector@HV?$allocator@H@std@@@std@@QEAAX$$QEAV12@@Z 0000000180016190 f i codes.obj
 0001:000151f0       ?_Assign_rv@?$vector@MV?$allocator@M@std@@@std@@QEAAX$$QEAV12@@Z 00000001800161f0 f i codes.obj
 0001:00015250       ??4?$vector@HV?$allocator@H@std@@@std@@QEAAAEAV01@$$QEAV01@@Z 0000000180016250 f i codes.obj
 0001:000152b0       ??4?$vector@MV?$allocator@M@std@@@std@@QEAAAEAV01@$$QEAV01@@Z 00000001800162b0 f i codes.obj
 0001:00015310       ??$_Ucopy@V?$_Vector_const_iterator@V?$_Vector_val@MV?$allocator@M@std@@@std@@@std@@@?$vector@MV?$allocator@M@std@@@std@@IEAAPEAMV?$_Vector_const_iterator@V?$_Vector_val@MV?$allocator@M@std@@@std@@@1@0PEAM@Z 0000000180016310 f i codes.obj
 0001:00015350       ??$_Destroy@V?$vector@HV?$allocator@H@std@@@std@@@std@@YAXPEAV?$vector@HV?$allocator@H@std@@@0@@Z 0000000180016350 f i codes.obj
 0001:00015380       ??$_Destroy@V?$vector@MV?$allocator@M@std@@@std@@@std@@YAXPEAV?$vector@MV?$allocator@M@std@@@0@@Z 0000000180016380 f i codes.obj
 0001:000153b0       ??1?$queue@HV?$deque@HV?$allocator@H@std@@@std@@@std@@QEAA@XZ 00000001800163b0 f i codes.obj
 0001:000153e0       ??0?$queue@HV?$deque@HV?$allocator@H@std@@@std@@@std@@QEAA@XZ 00000001800163e0 f i codes.obj
 0001:00015400       ??0?$vector@HV?$allocator@H@std@@@std@@QEAA@_K@Z 0000000180016400 f i codes.obj
 0001:00015430       ??0?$vector@MV?$allocator@M@std@@@std@@QEAA@_K@Z 0000000180016430 f i codes.obj
 0001:00015460       ??0?$vector@HV?$allocator@H@std@@@std@@QEAA@$$QEAV01@@Z 0000000180016460 f i codes.obj
 0001:000154b0       ??0?$vector@MV?$allocator@M@std@@@std@@QEAA@$$QEAV01@@Z 00000001800164b0 f i codes.obj
 0001:00015500       ??$_Move@PEAV?$vector@HV?$allocator@H@std@@@std@@PEAV12@@std@@YAPEAV?$vector@HV?$allocator@H@std@@@0@PEAV10@00U_Nonscalar_ptr_iterator_tag@0@@Z 0000000180016500 f i codes.obj
 0001:00015590       ??$_Move@PEAV?$vector@MV?$allocator@M@std@@@std@@PEAV12@@std@@YAPEAV?$vector@MV?$allocator@M@std@@@0@PEAV10@00U_Nonscalar_ptr_iterator_tag@0@@Z 0000000180016590 f i codes.obj
 0001:00015620       ??0?$vector@MV?$allocator@M@std@@@std@@QEAA@AEBV01@@Z 0000000180016620 f i codes.obj
 0001:000156f0       ?destroy@?$allocator@V?$vector@HV?$allocator@H@std@@@std@@@std@@QEAAXPEAV?$vector@HV?$allocator@H@std@@@2@@Z 00000001800166f0 f i codes.obj
 0001:00015720       ?destroy@?$allocator@V?$vector@MV?$allocator@M@std@@@std@@@std@@QEAAXPEAV?$vector@MV?$allocator@M@std@@@2@@Z 0000000180016720 f i codes.obj
 0001:00015750       ?fillRegionStitchChunks@@YAXPEAPEAH0HHH0HHVImage@@@Z 0000000180016750 f   codes.obj
 0001:000162f0       ?stitchChunks@@YAPEAPEAHPEADHHVImage@@@Z 00000001800172f0 f   codes.obj
 0001:000165d0       ?fillRegionNewLabels@@YAHPEAPEAH0HHHH0HH@Z 00000001800175d0 f   codes.obj
 0001:000172e0       ?prepareNewLabels@@YAPEAPEAHPEADHH@Z 00000001800182e0 f   codes.obj
 0001:00017530       ?fillRegionObjectInfo@@YAXPEAPEAH0AEAPEAPEAHHHHHHAEAV?$vector@HV?$allocator@H@std@@@std@@HH@Z 0000000180018530 f   codes.obj
 0001:00017ac0       ?fillRegionChanged@@YAXHHQEAH0PEAPEAH1AEAPEAPEAHHHHHHAEAV?$vector@MV?$allocator@M@std@@@std@@@Z 0000000180018ac0 f   codes.obj
 0001:000180c0       ??$_Move@PEAV?$vector@HV?$allocator@H@std@@@std@@PEAV12@@std@@YAPEAV?$vector@HV?$allocator@H@std@@@0@PEAV10@00@Z 00000001800190c0 f i codes.obj
 0001:000180d0       ??$_Move@PEAV?$vector@MV?$allocator@M@std@@@std@@PEAV12@@std@@YAPEAV?$vector@MV?$allocator@M@std@@@0@PEAV10@00@Z 00000001800190d0 f i codes.obj
 0001:000180e0       ?construct@?$allocator@V?$vector@HV?$allocator@H@std@@@std@@@std@@QEAAXPEAV?$vector@HV?$allocator@H@std@@@2@$$QEAV32@@Z 00000001800190e0 f i codes.obj
 0001:00018140       ?construct@?$allocator@V?$vector@MV?$allocator@M@std@@@std@@@std@@QEAAXPEAV?$vector@MV?$allocator@M@std@@@2@$$QEAV32@@Z 0000000180019140 f i codes.obj
 0001:000181a0       ??$construct@AEAV?$vector@HV?$allocator@H@std@@@std@@@?$allocator@V?$vector@HV?$allocator@H@std@@@std@@@std@@QEAAXPEAV?$vector@HV?$allocator@H@std@@@1@AEAV21@@Z 00000001800191a0 f i codes.obj
 0001:000181e0       ??$construct@AEAV?$vector@MV?$allocator@M@std@@@std@@@?$allocator@V?$vector@MV?$allocator@M@std@@@std@@@std@@QEAAXPEAV?$vector@MV?$allocator@M@std@@@1@AEAV21@@Z 00000001800191e0 f i codes.obj
 0001:00018220       ??$_Construct@V?$vector@HV?$allocator@H@std@@@std@@AEBV12@@std@@YAXPEAV?$vector@HV?$allocator@H@std@@@0@AEBV10@@Z 0000000180019220 f i codes.obj
 0001:00018250       ??$_Construct@V?$vector@MV?$allocator@M@std@@@std@@AEBV12@@std@@YAXPEAV?$vector@MV?$allocator@M@std@@@0@AEBV10@@Z 0000000180019250 f i codes.obj
 0001:00018280       ??$_Dest_val@V?$allocator@V?$vector@HV?$allocator@H@std@@@std@@@std@@V?$vector@HV?$allocator@H@std@@@2@@std@@YAXAEAV?$allocator@V?$vector@HV?$allocator@H@std@@@std@@@0@PEAV?$vector@HV?$allocator@H@std@@@0@@Z 0000000180019280 f i codes.obj
 0001:000182b0       ??$_Dest_val@V?$allocator@V?$vector@MV?$allocator@M@std@@@std@@@std@@V?$vector@MV?$allocator@M@std@@@2@@std@@YAXAEAV?$allocator@V?$vector@MV?$allocator@M@std@@@std@@@0@PEAV?$vector@MV?$allocator@M@std@@@0@@Z 00000001800192b0 f i codes.obj
 0001:000182e0       ??$_Cons_val@V?$allocator@V?$vector@HV?$allocator@H@std@@@std@@@std@@V?$vector@HV?$allocator@H@std@@@2@AEAV32@@std@@YAXAEAV?$allocator@V?$vector@HV?$allocator@H@std@@@std@@@0@PEAV?$vector@HV?$allocator@H@std@@@0@AEAV20@@Z 00000001800192e0 f i codes.obj
 0001:00018320       ??$_Cons_val@V?$allocator@V?$vector@MV?$allocator@M@std@@@std@@@std@@V?$vector@MV?$allocator@M@std@@@2@AEAV32@@std@@YAXAEAV?$allocator@V?$vector@MV?$allocator@M@std@@@std@@@0@PEAV?$vector@MV?$allocator@M@std@@@0@AEAV20@@Z 0000000180019320 f i codes.obj
 0001:00018360       ??$_Cons_val@V?$allocator@V?$vector@HV?$allocator@H@std@@@std@@@std@@V?$vector@HV?$allocator@H@std@@@2@V32@@std@@YAXAEAV?$allocator@V?$vector@HV?$allocator@H@std@@@std@@@0@PEAV?$vector@HV?$allocator@H@std@@@0@$$QEAV20@@Z 0000000180019360 f i codes.obj
 0001:000183c0       ??$_Cons_val@V?$allocator@V?$vector@MV?$allocator@M@std@@@std@@@std@@V?$vector@MV?$allocator@M@std@@@2@V32@@std@@YAXAEAV?$allocator@V?$vector@MV?$allocator@M@std@@@std@@@0@PEAV?$vector@MV?$allocator@M@std@@@0@$$QEAV20@@Z 00000001800193c0 f i codes.obj
 0001:00018420       ?construct@?$allocator@V?$vector@HV?$allocator@H@std@@@std@@@std@@QEAAXPEAV?$vector@HV?$allocator@H@std@@@2@AEBV32@@Z 0000000180019420 f i codes.obj
 0001:00018460       ?construct@?$allocator@V?$vector@MV?$allocator@M@std@@@std@@@std@@QEAAXPEAV?$vector@MV?$allocator@M@std@@@2@AEBV32@@Z 0000000180019460 f i codes.obj
 0001:000184a0       ??$_Destroy_range@V?$allocator@V?$vector@HV?$allocator@H@std@@@std@@@std@@@std@@YAXPEAV?$vector@HV?$allocator@H@std@@@0@0AEAV?$allocator@V?$vector@HV?$allocator@H@std@@@std@@@0@U_Nonscalar_ptr_iterator_tag@0@@Z 00000001800194a0 f i codes.obj
 0001:00018500       ??$_Destroy_range@V?$allocator@V?$vector@MV?$allocator@M@std@@@std@@@std@@@std@@YAXPEAV?$vector@MV?$allocator@M@std@@@0@0AEAV?$allocator@V?$vector@MV?$allocator@M@std@@@std@@@0@U_Nonscalar_ptr_iterator_tag@0@@Z 0000000180019500 f i codes.obj
 0001:00018560       ??$_Uninit_move@PEAV?$vector@HV?$allocator@H@std@@@std@@PEAV12@V?$allocator@V?$vector@HV?$allocator@H@std@@@std@@@2@V12@@std@@YAPEAV?$vector@HV?$allocator@H@std@@@0@PEAV10@00AEAV?$allocator@V?$vector@HV?$allocator@H@std@@@std@@@0@0U_Nonscalar_ptr_iterator_tag@0@@Z 0000000180019560 f i codes.obj
 0001:000185e0       ??$_Uninit_move@PEAV?$vector@MV?$allocator@M@std@@@std@@PEAV12@V?$allocator@V?$vector@MV?$allocator@M@std@@@std@@@2@V12@@std@@YAPEAV?$vector@MV?$allocator@M@std@@@0@PEAV10@00AEAV?$allocator@V?$vector@MV?$allocator@M@std@@@std@@@0@0U_Nonscalar_ptr_iterator_tag@0@@Z 00000001800195e0 f i codes.obj
 0001:00018660       ??$_Cons_val@V?$allocator@V?$vector@HV?$allocator@H@std@@@std@@@std@@V?$vector@HV?$allocator@H@std@@@2@AEBV32@@std@@YAXAEAV?$allocator@V?$vector@HV?$allocator@H@std@@@std@@@0@PEAV?$vector@HV?$allocator@H@std@@@0@AEBV20@@Z 0000000180019660 f i codes.obj
 0001:000186a0       ??$_Cons_val@V?$allocator@V?$vector@MV?$allocator@M@std@@@std@@@std@@V?$vector@MV?$allocator@M@std@@@2@AEBV32@@std@@YAXAEAV?$allocator@V?$vector@MV?$allocator@M@std@@@std@@@0@PEAV?$vector@MV?$allocator@M@std@@@0@AEBV20@@Z 00000001800196a0 f i codes.obj
 0001:000186e0       ??$_Destroy_range@V?$allocator@V?$vector@HV?$allocator@H@std@@@std@@@std@@@std@@YAXPEAV?$vector@HV?$allocator@H@std@@@0@0AEAV?$allocator@V?$vector@HV?$allocator@H@std@@@std@@@0@@Z 00000001800196e0 f i codes.obj
 0001:00018740       ??$_Destroy_range@V?$allocator@V?$vector@MV?$allocator@M@std@@@std@@@std@@@std@@YAXPEAV?$vector@MV?$allocator@M@std@@@0@0AEAV?$allocator@V?$vector@MV?$allocator@M@std@@@std@@@0@@Z 0000000180019740 f i codes.obj
 0001:000187a0       ??$_Uninitialized_move@PEAV?$vector@HV?$allocator@H@std@@@std@@PEAV12@V?$allocator@V?$vector@HV?$allocator@H@std@@@std@@@2@@std@@YAPEAV?$vector@HV?$allocator@H@std@@@0@PEAV10@00AEAV?$allocator@V?$vector@HV?$allocator@H@std@@@std@@@0@@Z 00000001800197a0 f i codes.obj
 0001:000187c0       ??$_Uninitialized_move@PEAV?$vector@MV?$allocator@M@std@@@std@@PEAV12@V?$allocator@V?$vector@MV?$allocator@M@std@@@std@@@2@@std@@YAPEAV?$vector@MV?$allocator@M@std@@@0@PEAV10@00AEAV?$allocator@V?$vector@MV?$allocator@M@std@@@std@@@0@@Z 00000001800197c0 f i codes.obj
 0001:000187e0       ??$_Uninit_copy@V?$_Vector_const_iterator@V?$_Vector_val@V?$vector@HV?$allocator@H@std@@@std@@V?$allocator@V?$vector@HV?$allocator@H@std@@@std@@@2@@std@@@std@@PEAV?$vector@HV?$allocator@H@std@@@2@V?$allocator@V?$vector@HV?$allocator@H@std@@@std@@@2@@std@@YAPEAV?$vector@HV?$allocator@H@std@@@0@V?$_Vector_const_iterator@V?$_Vector_val@V?$vector@HV?$allocator@H@std@@@std@@V?$allocator@V?$vector@HV?$allocator@H@std@@@std@@@2@@std@@@0@0PEAV10@AEAV?$allocator@V?$vector@HV?$allocator@H@std@@@std@@@0@U_Nonscalar_ptr_iterator_tag@0@@Z 00000001800197e0 f i codes.obj
 0001:00018850       ?_Destroy@?$vector@V?$vector@HV?$allocator@H@std@@@std@@V?$allocator@V?$vector@HV?$allocator@H@std@@@std@@@2@@std@@IEAAXPEAV?$vector@HV?$allocator@H@std@@@2@0@Z 0000000180019850 f i codes.obj
 0001:000188b0       ?_Destroy@?$vector@V?$vector@MV?$allocator@M@std@@@std@@V?$allocator@V?$vector@MV?$allocator@M@std@@@std@@@2@@std@@IEAAXPEAV?$vector@MV?$allocator@M@std@@@2@0@Z 00000001800198b0 f i codes.obj
 0001:00018910       ?erase@?$vector@V?$vector@HV?$allocator@H@std@@@std@@V?$allocator@V?$vector@HV?$allocator@H@std@@@std@@@2@@std@@QEAA?AV?$_Vector_iterator@V?$_Vector_val@V?$vector@HV?$allocator@H@std@@@std@@V?$allocator@V?$vector@HV?$allocator@H@std@@@std@@@2@@std@@@2@V?$_Vector_const_iterator@V?$_Vector_val@V?$vector@HV?$allocator@H@std@@@std@@V?$allocator@V?$vector@HV?$allocator@H@std@@@std@@@2@@std@@@2@0@Z 0000000180019910 f i codes.obj
 0001:000189b0       ?erase@?$vector@V?$vector@MV?$allocator@M@std@@@std@@V?$allocator@V?$vector@MV?$allocator@M@std@@@std@@@2@@std@@QEAA?AV?$_Vector_iterator@V?$_Vector_val@V?$vector@MV?$allocator@M@std@@@std@@V?$allocator@V?$vector@MV?$allocator@M@std@@@std@@@2@@std@@@2@V?$_Vector_const_iterator@V?$_Vector_val@V?$vector@MV?$allocator@M@std@@@std@@V?$allocator@V?$vector@MV?$allocator@M@std@@@std@@@2@@std@@@2@0@Z 00000001800199b0 f i codes.obj
 0001:00018a50       ??$_Umove@PEAV?$vector@HV?$allocator@H@std@@@std@@@?$vector@V?$vector@HV?$allocator@H@std@@@std@@V?$allocator@V?$vector@HV?$allocator@H@std@@@std@@@2@@std@@IEAAPEAV?$vector@HV?$allocator@H@std@@@1@PEAV21@00@Z 0000000180019a50 f i codes.obj
 0001:00018a90       ??$_Umove@PEAV?$vector@MV?$allocator@M@std@@@std@@@?$vector@V?$vector@MV?$allocator@M@std@@@std@@V?$allocator@V?$vector@MV?$allocator@M@std@@@std@@@2@@std@@IEAAPEAV?$vector@MV?$allocator@M@std@@@1@PEAV21@00@Z 0000000180019a90 f i codes.obj
 0001:00018ad0       ??$_Uninitialized_copy@V?$_Vector_const_iterator@V?$_Vector_val@V?$vector@HV?$allocator@H@std@@@std@@V?$allocator@V?$vector@HV?$allocator@H@std@@@std@@@2@@std@@@std@@PEAV?$vector@HV?$allocator@H@std@@@2@V?$allocator@V?$vector@HV?$allocator@H@std@@@std@@@2@@std@@YAPEAV?$vector@HV?$allocator@H@std@@@0@V?$_Vector_const_iterator@V?$_Vector_val@V?$vector@HV?$allocator@H@std@@@std@@V?$allocator@V?$vector@HV?$allocator@H@std@@@std@@@2@@std@@@0@0PEAV10@AEAV?$allocator@V?$vector@HV?$allocator@H@std@@@std@@@0@@Z 0000000180019ad0 f i codes.obj
 0001:00018af0       ?_Tidy@?$vector@V?$vector@HV?$allocator@H@std@@@std@@V?$allocator@V?$vector@HV?$allocator@H@std@@@std@@@2@@std@@IEAAXXZ 0000000180019af0 f i codes.obj
 0001:00018b70       ?_Tidy@?$vector@V?$vector@MV?$allocator@M@std@@@std@@V?$allocator@V?$vector@MV?$allocator@M@std@@@std@@@2@@std@@IEAAXXZ 0000000180019b70 f i codes.obj
 0001:00018bf0       ?reserve@?$vector@V?$vector@HV?$allocator@H@std@@@std@@V?$allocator@V?$vector@HV?$allocator@H@std@@@std@@@2@@std@@QEAAX_K@Z 0000000180019bf0 f i codes.obj
 0001:00018cd0       ?clear@?$vector@V?$vector@HV?$allocator@H@std@@@std@@V?$allocator@V?$vector@HV?$allocator@H@std@@@std@@@2@@std@@QEAAXXZ 0000000180019cd0 f i codes.obj
 0001:00018d60       ?reserve@?$vector@V?$vector@MV?$allocator@M@std@@@std@@V?$allocator@V?$vector@MV?$allocator@M@std@@@std@@@2@@std@@QEAAX_K@Z 0000000180019d60 f i codes.obj
 0001:00018e40       ?clear@?$vector@V?$vector@MV?$allocator@M@std@@@std@@V?$allocator@V?$vector@MV?$allocator@M@std@@@std@@@2@@std@@QEAAXXZ 0000000180019e40 f i codes.obj
 0001:00018ed0       ??$_Ucopy@V?$_Vector_const_iterator@V?$_Vector_val@V?$vector@HV?$allocator@H@std@@@std@@V?$allocator@V?$vector@HV?$allocator@H@std@@@std@@@2@@std@@@std@@@?$vector@V?$vector@HV?$allocator@H@std@@@std@@V?$allocator@V?$vector@HV?$allocator@H@std@@@std@@@2@@std@@IEAAPEAV?$vector@HV?$allocator@H@std@@@1@V?$_Vector_const_iterator@V?$_Vector_val@V?$vector@HV?$allocator@H@std@@@std@@V?$allocator@V?$vector@HV?$allocator@H@std@@@std@@@2@@std@@@1@0PEAV21@@Z 0000000180019ed0 f i codes.obj
 0001:00018f10       ??1?$vector@V?$vector@HV?$allocator@H@std@@@std@@V?$allocator@V?$vector@HV?$allocator@H@std@@@std@@@2@@std@@QEAA@XZ 0000000180019f10 f i codes.obj
 0001:00018f20       ??1?$vector@V?$vector@MV?$allocator@M@std@@@std@@V?$allocator@V?$vector@MV?$allocator@M@std@@@std@@@2@@std@@QEAA@XZ 0000000180019f20 f i codes.obj
 0001:00018f30       ?_Reserve@?$vector@V?$vector@HV?$allocator@H@std@@@std@@V?$allocator@V?$vector@HV?$allocator@H@std@@@std@@@2@@std@@IEAAX_K@Z 0000000180019f30 f i codes.obj
 0001:00018fb0       ?_Reserve@?$vector@V?$vector@MV?$allocator@M@std@@@std@@V?$allocator@V?$vector@MV?$allocator@M@std@@@std@@@2@@std@@IEAAX_K@Z 0000000180019fb0 f i codes.obj
 0001:00019030       ?push_back@?$vector@V?$vector@HV?$allocator@H@std@@@std@@V?$allocator@V?$vector@HV?$allocator@H@std@@@std@@@2@@std@@QEAAX$$QEAV?$vector@HV?$allocator@H@std@@@2@@Z 000000018001a030 f i codes.obj
 0001:00019130       ?push_back@?$vector@V?$vector@MV?$allocator@M@std@@@std@@V?$allocator@V?$vector@MV?$allocator@M@std@@@std@@@2@@std@@QEAAX$$QEAV?$vector@MV?$allocator@M@std@@@2@@Z 000000018001a130 f i codes.obj
 0001:00019230       ??0?$vector@V?$vector@HV?$allocator@H@std@@@std@@V?$allocator@V?$vector@HV?$allocator@H@std@@@std@@@2@@std@@QEAA@AEBV01@@Z 000000018001a230 f i codes.obj
 0001:00019300       ?callCreateAttribute@Image@@QEAAXV?$vector@V?$vector@HV?$allocator@H@std@@@std@@V?$allocator@V?$vector@HV?$allocator@H@std@@@std@@@2@@std@@HH@Z 000000018001a300 f   codes.obj
 0001:00019560       ?callCalculateMean@Image@@QEAAXV?$vector@V?$vector@HV?$allocator@H@std@@@std@@V?$allocator@V?$vector@HV?$allocator@H@std@@@std@@@2@@std@@HH@Z 000000018001a560 f   codes.obj
 0001:000197c0       ?changeReporting@@YAPEAHHHMMV?$vector@V?$vector@MV?$allocator@M@std@@@std@@V?$allocator@V?$vector@MV?$allocator@M@std@@@std@@@2@@std@@PEAPEAH@Z 000000018001a7c0 f   codes.obj
 0001:000199b0       ?push_back@?$vector@V?$vector@HV?$allocator@H@std@@@std@@V?$allocator@V?$vector@HV?$allocator@H@std@@@std@@@2@@std@@QEAAXAEBV?$vector@HV?$allocator@H@std@@@2@@Z 000000018001a9b0 f i codes.obj
 0001:00019a60       ?push_back@?$vector@V?$vector@MV?$allocator@M@std@@@std@@V?$allocator@V?$vector@MV?$allocator@M@std@@@std@@@2@@std@@QEAAXAEBV?$vector@MV?$allocator@M@std@@@2@@Z 000000018001aa60 f i codes.obj
 0001:00019b10       ?_Assign_rv@?$vector@V?$vector@HV?$allocator@H@std@@@std@@V?$allocator@V?$vector@HV?$allocator@H@std@@@std@@@2@@std@@QEAAX$$QEAV12@@Z 000000018001ab10 f i codes.obj
 0001:00019b60       ?_Assign_rv@?$vector@V?$vector@MV?$allocator@M@std@@@std@@V?$allocator@V?$vector@MV?$allocator@M@std@@@std@@@2@@std@@QEAAX$$QEAV12@@Z 000000018001ab60 f i codes.obj
 0001:00019bb0       ??0?$VoidStoredMemberFunctionPointerCall3@XVImage@@V?$vector@V?$vector@HV?$allocator@H@std@@@std@@V?$allocator@V?$vector@HV?$allocator@H@std@@@std@@@2@@std@@V23@HHHH@QtConcurrent@@QEAA@P8Image@@EAAXV?$vector@V?$vector@HV?$allocator@H@std@@@std@@V?$allocator@V?$vector@HV?$allocator@H@std@@@std@@@2@@std@@HH@ZPEAV2@AEBV34@AEBH4@Z 000000018001abb0 f i codes.obj
 0001:00019c50       ??_E?$VoidStoredMemberFunctionPointerCall3@XVImage@@V?$vector@V?$vector@HV?$allocator@H@std@@@std@@V?$allocator@V?$vector@HV?$allocator@H@std@@@std@@@2@@std@@V23@HHHH@QtConcurrent@@WBA@EAAPEAXI@Z 000000018001ac50 f i codes.obj
 0001:00019c60       ??1?$VoidStoredMemberFunctionPointerCall3@XVImage@@V?$vector@V?$vector@HV?$allocator@H@std@@@std@@V?$allocator@V?$vector@HV?$allocator@H@std@@@std@@@2@@std@@V23@HHHH@QtConcurrent@@UEAA@XZ 000000018001ac60 f i codes.obj
 0001:00019c90       ?runFunctor@?$VoidStoredMemberFunctionPointerCall3@XVImage@@V?$vector@V?$vector@HV?$allocator@H@std@@@std@@V?$allocator@V?$vector@HV?$allocator@H@std@@@std@@@2@@std@@V23@HHHH@QtConcurrent@@UEAAXXZ 000000018001ac90 f i codes.obj
 0001:00019cc0       ??_E?$VoidStoredMemberFunctionPointerCall3@XVImage@@V?$vector@V?$vector@HV?$allocator@H@std@@@std@@V?$allocator@V?$vector@HV?$allocator@H@std@@@std@@@2@@std@@V23@HHHH@QtConcurrent@@UEAAPEAXI@Z 000000018001acc0 f i codes.obj
 0001:00019cc0       ??_G?$VoidStoredMemberFunctionPointerCall3@XVImage@@V?$vector@V?$vector@HV?$allocator@H@std@@@std@@V?$allocator@V?$vector@HV?$allocator@H@std@@@std@@@2@@std@@V23@HHHH@QtConcurrent@@UEAAPEAXI@Z 000000018001acc0 f i codes.obj
 0001:00019d10       ??0?$vector@V?$vector@HV?$allocator@H@std@@@std@@V?$allocator@V?$vector@HV?$allocator@H@std@@@std@@@2@@std@@QEAA@$$QEAV01@@Z 000000018001ad10 f i codes.obj
 0001:00019d70       ??0?$vector@V?$vector@MV?$allocator@M@std@@@std@@V?$allocator@V?$vector@MV?$allocator@M@std@@@std@@@2@@std@@QEAA@$$QEAV01@@Z 000000018001ad70 f i codes.obj
 0001:00019dd0       ??$run@XVImage@@V?$vector@V?$vector@HV?$allocator@H@std@@@std@@V?$allocator@V?$vector@HV?$allocator@H@std@@@std@@@2@@std@@V23@HHHH@QtConcurrent@@YA?AV?$QFuture@X@@PEAVImage@@P82@EAAXV?$vector@V?$vector@HV?$allocator@H@std@@@std@@V?$allocator@V?$vector@HV?$allocator@H@std@@@std@@@2@@std@@HH@ZAEBV34@AEBH4@Z 000000018001add0 f i codes.obj
 0001:00019e60       ?prepareObjectInfo@@YA?AV?$vector@V?$vector@HV?$allocator@H@std@@@std@@V?$allocator@V?$vector@HV?$allocator@H@std@@@std@@@2@@std@@HHPEAPEAH0AEAPEAPEAHAEAH@Z 000000018001ae60 f   codes.obj
 0001:0001a150       ?createFusedObjects@Image@@QEAAXHV?$vector@V?$vector@HV?$allocator@H@std@@@std@@V?$allocator@V?$vector@HV?$allocator@H@std@@@std@@@2@@std@@HPEAPEAPEAE1@Z 000000018001b150 f   codes.obj
 0001:0001a470       ?createObjects@Image@@QEAAXHV?$vector@V?$vector@HV?$allocator@H@std@@@std@@V?$allocator@V?$vector@HV?$allocator@H@std@@@std@@@2@@std@@H@Z 000000018001b470 f   codes.obj
 0001:0001a790       ?changed@@YA?AV?$vector@V?$vector@MV?$allocator@M@std@@@std@@V?$allocator@V?$vector@MV?$allocator@M@std@@@std@@@2@@std@@HHPEAPEAH0QEAH1HH@Z 000000018001b790 f   codes.obj
 0001:0001ab40       ??1Fusion@@UEAA@XZ         000000018001bb40 f   Fusion.obj
 0001:0001ab90       ?getWidget@Fusion@@MEBAPEAVQWidget@@XZ 000000018001bb90 f   Fusion.obj
 0001:0001aba0       ?dialogClosed@Fusion@@IEAAXXZ 000000018001bba0 f   Fusion.obj
 0001:0001abb0       ??_EFusion@@WBA@EAAPEAXI@Z 000000018001bbb0 f i Fusion.obj
 0001:0001abc0       ??_EFusion@@WBI@EAAPEAXI@Z 000000018001bbc0 f i Fusion.obj
 0001:0001abd0       ??_GFusion@@UEAAPEAXI@Z    000000018001bbd0 f i Fusion.obj
 0001:0001abd0       ??_EFusion@@UEAAPEAXI@Z    000000018001bbd0 f i Fusion.obj
 0001:0001ac40       ?execute@Fusion@@UEAA_NPEAVPlugInArgList@@0@Z 000000018001bc40 f   Fusion.obj
 0001:0001ad00       ??0Fusion@@QEAA@XZ         000000018001bd00 f   Fusion.obj
 0001:0001afc0       ??1FusionPlugInFactory@OpticksCDFPlugin@@UEAA@XZ 000000018001bfc0 f i Fusion.obj
 0001:0001aff0       ??0FusionPlugInFactory@OpticksCDFPlugin@@QEAA@AEBV?$basic_string@DU?$char_traits@D@std@@V?$allocator@D@2@@std@@@Z 000000018001bff0 f i Fusion.obj
 0001:0001b030       ?createPlugIn@FusionPlugInFactory@OpticksCDFPlugin@@UEAAPEAVPlugIn@@AEBV?$basic_string@DU?$char_traits@D@std@@V?$allocator@D@2@@std@@@Z 000000018001c030 f i Fusion.obj
 0001:0001b070       ??_EFusionPlugInFactory@OpticksCDFPlugin@@UEAAPEAXI@Z 000000018001c070 f i Fusion.obj
 0001:0001b070       ??_GFusionPlugInFactory@OpticksCDFPlugin@@UEAAPEAXI@Z 000000018001c070 f i Fusion.obj
 0001:0001b0c0       ?qt_noop@@YAXXZ            000000018001c0c0 f i mainwindow_cd.obj
 0001:0001b0d0       ??0Image@@QEAA@XZ          000000018001c0d0 f i mainwindow_cd.obj
 0001:0001b0f0       ??0Image@@QEAA@HHHPEAPEAPEAE@Z 000000018001c0f0 f i mainwindow_cd.obj
 0001:0001b180       ?tr@MainWindow_cd@@SA?AVQString@@PEBD0@Z 000000018001c180 f i mainwindow_cd.obj
 0001:0001b1b0       ?retranslateUi@Ui_MainWindow_cd@@QEAAXPEAVQDialog@@@Z 000000018001c1b0 f i mainwindow_cd.obj
 0001:0001b9a0       ?on_radioButton_clicked@MainWindow_cd@@AEAAXXZ 000000018001c9a0 f   mainwindow_cd.obj
 0001:0001b9c0       ?on_radioButton_2_clicked@MainWindow_cd@@AEAAXXZ 000000018001c9c0 f   mainwindow_cd.obj
 0001:0001b9e0       ??0?$QFlags@W4OpenModeFlag@QIODevice@@@@QEAA@W4OpenModeFlag@QIODevice@@@Z 000000018001c9e0 f i mainwindow_cd.obj
 0001:0001b9f0       ??0?$QFlags@W4Option@QFileDialog@@@@QEAA@AEBV0@@Z 000000018001c9f0 f i mainwindow_cd.obj
 0001:0001ba00       ??0?$QFlags@W4Option@QFileDialog@@@@QEAA@W4Option@QFileDialog@@@Z 000000018001ca00 f i mainwindow_cd.obj
 0001:0001ba10       ??0?$QFlags@W4Option@QFileDialog@@@@QEAA@PEAPEAX@Z 000000018001ca10 f i mainwindow_cd.obj
 0001:0001ba20       ??U?$QFlags@W4Option@QFileDialog@@@@QEBA?AV0@W4Option@QFileDialog@@@Z 000000018001ca20 f i mainwindow_cd.obj
 0001:0001ba30       ??0?$QFlags@W4StandardButton@QMessageBox@@@@QEAA@W4StandardButton@QMessageBox@@@Z 000000018001ca30 f i mainwindow_cd.obj
 0001:0001ba40       ?isEmpty@?$QList@VQString@@@@QEBA_NXZ 000000018001ca40 f i mainwindow_cd.obj
 0001:0001ba50       ??Fiterator@?$QList@VQString@@@@QEAAAEAV01@XZ 000000018001ca50 f i mainwindow_cd.obj
 0001:0001ba60       ??0iterator@?$QList@VQString@@@@QEAA@PEAUNode@1@@Z 000000018001ca60 f i mainwindow_cd.obj
 0001:0001ba70       ?t@Node@?$QList@VQString@@@@QEAAAEAVQString@@XZ 000000018001ca70 f i mainwindow_cd.obj
 0001:0001ba80       ??_GQString@@QEAAPEAXI@Z   000000018001ca80 f i mainwindow_cd.obj
 0001:0001bac0       ?node_destruct@?$QList@VQString@@@@AEAAXPEAUNode@1@0@Z 000000018001cac0 f i mainwindow_cd.obj
 0001:0001bb10       ??$_Ptr_cat@V?$_Vector_const_iterator@V?$_Vector_val@V?$vector@MV?$allocator@M@std@@@std@@V?$allocator@V?$vector@MV?$allocator@M@std@@@std@@@2@@std@@@std@@PEAV?$vector@MV?$allocator@M@std@@@2@@std@@YA?AU_Nonscalar_ptr_iterator_tag@0@AEAV?$_Vector_const_iterator@V?$_Vector_val@V?$vector@MV?$allocator@M@std@@@std@@V?$allocator@V?$vector@MV?$allocator@M@std@@@std@@@2@@std@@@0@AEAPEAV?$vector@MV?$allocator@M@std@@@0@@Z 000000018001cb10 f i mainwindow_cd.obj
 0001:0001bb20       ?setupUi@Ui_MainWindow_cd@@QEAAXPEAVQDialog@@@Z 000000018001cb20 f i mainwindow_cd.obj
 0001:0001dee0       ??U@YA?AV?$QFlags@W4Option@QFileDialog@@@@W4Option@QFileDialog@@0@Z 000000018001eee0 f i mainwindow_cd.obj
 0001:0001def0       ?on_pushButton_clicked@MainWindow_cd@@AEAAXXZ 000000018001eef0 f   mainwindow_cd.obj
 0001:0001e050       ?on_pushButton_4_clicked@MainWindow_cd@@AEAAXXZ 000000018001f050 f   mainwindow_cd.obj
 0001:0001e1c0       ?on_pushButton_5_clicked@MainWindow_cd@@AEAAXXZ 000000018001f1c0 f   mainwindow_cd.obj
 0001:0001e330       ?c_str@?$basic_string@DU?$char_traits@D@std@@V?$allocator@D@2@@std@@QEBAPEBDXZ 000000018001f330 f i mainwindow_cd.obj
 0001:0001e340       ?begin@?$vector@V?$vector@MV?$allocator@M@std@@@std@@V?$allocator@V?$vector@MV?$allocator@M@std@@@std@@@2@@std@@QEBA?AV?$_Vector_const_iterator@V?$_Vector_val@V?$vector@MV?$allocator@M@std@@@std@@V?$allocator@V?$vector@MV?$allocator@M@std@@@std@@@2@@std@@@2@XZ 000000018001f340 f i mainwindow_cd.obj
 0001:0001e350       ?end@?$vector@V?$vector@MV?$allocator@M@std@@@std@@V?$allocator@V?$vector@MV?$allocator@M@std@@@std@@@2@@std@@QEBA?AV?$_Vector_const_iterator@V?$_Vector_val@V?$vector@MV?$allocator@M@std@@@std@@V?$allocator@V?$vector@MV?$allocator@M@std@@@std@@@2@@std@@@2@XZ 000000018001f350 f i mainwindow_cd.obj
 0001:0001e360       ??Diterator@?$QList@VQString@@@@QEBAAEAVQString@@XZ 000000018001f360 f i mainwindow_cd.obj
 0001:0001e370       ?free@?$QList@VQString@@@@AEAAXPEAUData@QListData@@@Z 000000018001f370 f i mainwindow_cd.obj
 0001:0001e3e0       ?node_copy@?$QList@VQString@@@@AEAAXPEAUNode@1@00@Z 000000018001f3e0 f i mainwindow_cd.obj
 0001:0001e450       ?_Buy@?$vector@V?$vector@MV?$allocator@M@std@@@std@@V?$allocator@V?$vector@MV?$allocator@M@std@@@std@@@2@@std@@IEAA_N_K@Z 000000018001f450 f i mainwindow_cd.obj
 0001:0001e4c0       ??1?$QList@VQString@@@@QEAA@XZ 000000018001f4c0 f i mainwindow_cd.obj
 0001:0001e4e0       ?detach_helper@?$QList@VQString@@@@AEAAXH@Z 000000018001f4e0 f i mainwindow_cd.obj
 0001:0001e560       ??1QStringList@@QEAA@XZ    000000018001f560 f i mainwindow_cd.obj
 0001:0001e580       ?detach_helper@?$QList@VQString@@@@AEAAXXZ 000000018001f580 f i mainwindow_cd.obj
 0001:0001e590       ?Show_process@MainWindow_cd@@AEAAXV?$basic_string@DU?$char_traits@D@std@@V?$allocator@D@2@@std@@@Z 000000018001f590 f   mainwindow_cd.obj
 0001:0001e6b0       ??0?$QList@VQString@@@@QEAA@AEBV0@@Z 000000018001f6b0 f i mainwindow_cd.obj
 0001:0001e6e0       ?detach@?$QList@VQString@@@@QEAAXXZ 000000018001f6e0 f i mainwindow_cd.obj
 0001:0001e700       ?begin@?$QList@VQString@@@@QEAA?AViterator@1@XZ 000000018001f700 f i mainwindow_cd.obj
 0001:0001e750       ?end@?$QList@VQString@@@@QEAA?AViterator@1@XZ 000000018001f750 f i mainwindow_cd.obj
 0001:0001e7a0       ?first@?$QList@VQString@@@@QEAAAEAVQString@@XZ 000000018001f7a0 f i mainwindow_cd.obj
 0001:0001e800       ?last@?$QList@VQString@@@@QEAAAEAVQString@@XZ 000000018001f800 f i mainwindow_cd.obj
 0001:0001e860       ?on_pushButton_2_clicked@MainWindow_cd@@AEAAXXZ 000000018001f860 f   mainwindow_cd.obj
 0001:0001faf0       ??$_Uninit_copy@V?$_Vector_const_iterator@V?$_Vector_val@V?$vector@MV?$allocator@M@std@@@std@@V?$allocator@V?$vector@MV?$allocator@M@std@@@std@@@2@@std@@@std@@PEAV?$vector@MV?$allocator@M@std@@@2@V?$allocator@V?$vector@MV?$allocator@M@std@@@std@@@2@@std@@YAPEAV?$vector@MV?$allocator@M@std@@@0@V?$_Vector_const_iterator@V?$_Vector_val@V?$vector@MV?$allocator@M@std@@@std@@V?$allocator@V?$vector@MV?$allocator@M@std@@@std@@@2@@std@@@0@0PEAV10@AEAV?$allocator@V?$vector@MV?$allocator@M@std@@@std@@@0@U_Nonscalar_ptr_iterator_tag@0@@Z 0000000180020af0 f i mainwindow_cd.obj
 0001:0001fb60       ??$_Uninitialized_copy@V?$_Vector_const_iterator@V?$_Vector_val@V?$vector@MV?$allocator@M@std@@@std@@V?$allocator@V?$vector@MV?$allocator@M@std@@@std@@@2@@std@@@std@@PEAV?$vector@MV?$allocator@M@std@@@2@V?$allocator@V?$vector@MV?$allocator@M@std@@@std@@@2@@std@@YAPEAV?$vector@MV?$allocator@M@std@@@0@V?$_Vector_const_iterator@V?$_Vector_val@V?$vector@MV?$allocator@M@std@@@std@@V?$allocator@V?$vector@MV?$allocator@M@std@@@std@@@2@@std@@@0@0PEAV10@AEAV?$allocator@V?$vector@MV?$allocator@M@std@@@std@@@0@@Z 0000000180020b60 f i mainwindow_cd.obj
 0001:0001fb80       ??$_Ucopy@V?$_Vector_const_iterator@V?$_Vector_val@V?$vector@MV?$allocator@M@std@@@std@@V?$allocator@V?$vector@MV?$allocator@M@std@@@std@@@2@@std@@@std@@@?$vector@V?$vector@MV?$allocator@M@std@@@std@@V?$allocator@V?$vector@MV?$allocator@M@std@@@std@@@2@@std@@IEAAPEAV?$vector@MV?$allocator@M@std@@@1@V?$_Vector_const_iterator@V?$_Vector_val@V?$vector@MV?$allocator@M@std@@@std@@V?$allocator@V?$vector@MV?$allocator@M@std@@@std@@@2@@std@@@1@0PEAV21@@Z 0000000180020b80 f i mainwindow_cd.obj
 0001:0001fbc0       ??0MainWindow_cd@@QEAA@PEAVQWidget@@@Z 0000000180020bc0 f   mainwindow_cd.obj
 0001:0001fe10       ??_EMainWindow_cd@@WBA@EAAPEAXI@Z 0000000180020e10 f i mainwindow_cd.obj
 0001:0001fe20       ??1MainWindow_cd@@UEAA@XZ  0000000180020e20 f   mainwindow_cd.obj
 0001:0001ffe0       ??0?$vector@V?$vector@MV?$allocator@M@std@@@std@@V?$allocator@V?$vector@MV?$allocator@M@std@@@std@@@2@@std@@QEAA@AEBV01@@Z 0000000180020fe0 f i mainwindow_cd.obj
 0001:000200b0       ??_EMainWindow_cd@@UEAAPEAXI@Z 00000001800210b0 f i mainwindow_cd.obj
 0001:000200b0       ??_GMainWindow_cd@@UEAAPEAXI@Z 00000001800210b0 f i mainwindow_cd.obj
 0001:000200e0       ??4?$vector@V?$vector@MV?$allocator@M@std@@@std@@V?$allocator@V?$vector@MV?$allocator@M@std@@@std@@@2@@std@@QEAAAEAV01@$$QEAV01@@Z 00000001800210e0 f i mainwindow_cd.obj
 0001:00020130       ??4?$vector@V?$vector@HV?$allocator@H@std@@@std@@V?$allocator@V?$vector@HV?$allocator@H@std@@@std@@@2@@std@@QEAAAEAV01@$$QEAV01@@Z 0000000180021130 f i mainwindow_cd.obj
 0001:00020180       ?on_pushButton_3_clicked@MainWindow_cd@@AEAAXXZ 0000000180021180 f   mainwindow_cd.obj
 0001:00021650       ?tr@MainWindow_fusion@@SA?AVQString@@PEBD0@Z 0000000180022650 f i mainwindow_fusion.obj
 0001:00021680       ?retranslateUi@Ui_MainWindow_fusion@@QEAAXPEAVQDialog@@@Z 0000000180022680 f i mainwindow_fusion.obj
 0001:00021df0       ?on_radioButton_clicked@MainWindow_fusion@@AEAAXXZ 0000000180022df0 f   mainwindow_fusion.obj
 0001:00021e00       ?on_radioButton_2_clicked@MainWindow_fusion@@AEAAXXZ 0000000180022e00 f   mainwindow_fusion.obj
 0001:00021e10       ?on_checkBox_clicked@MainWindow_fusion@@AEAAXXZ 0000000180022e10 f   mainwindow_fusion.obj
 0001:00021e30       ?Fusion_Brovey@MainWindow_fusion@@QEAAXPEAPEAHAEAPEAPEAPEAEPEAPEAPEAE2HHHHHH@Z 0000000180022e30 f   mainwindow_fusion.obj
 0001:00021fa0       ?GetMinor@MainWindow_fusion@@QEAAXPEAPEAMAEAPEAPEAMHHH@Z 0000000180022fa0 f   mainwindow_fusion.obj
 0001:000220f0       ?CalcDeterminant@MainWindow_fusion@@QEAAMPEAPEAMH@Z 00000001800230f0 f   mainwindow_fusion.obj
 0001:00022350       ?calculateMahaDist@MainWindow_fusion@@QEAAMPEAMPEAPEAM1HH@Z 0000000180023350 f   mainwindow_fusion.obj
 0001:00022620       ?on_pushButton_3_clicked@MainWindow_fusion@@AEAAXXZ 0000000180023620 f   mainwindow_fusion.obj
 0001:00022690       ??0?$QFlags@W4InputMethodHint@Qt@@@@QEAA@W4InputMethodHint@Qt@@@Z 0000000180023690 f i mainwindow_fusion.obj
 0001:000226a0       ?size@?$_Tree@V?$_Tmap_traits@HV?$vector@HV?$allocator@H@std@@@std@@U?$less@H@2@V?$allocator@U?$pair@$$CBHV?$vector@HV?$allocator@H@std@@@std@@@std@@@2@$0A@@std@@@std@@QEBA_KXZ 00000001800236a0 f i mainwindow_fusion.obj
 0001:000226b0       ?size@?$vector@EV?$allocator@E@std@@@std@@QEBA_KXZ 00000001800236b0 f i mainwindow_fusion.obj
 0001:000226c0       ??A?$vector@EV?$allocator@E@std@@@std@@QEAAAEAE_K@Z 00000001800236c0 f i mainwindow_fusion.obj
 0001:000226d0       ?size@?$vector@UPoint@MainWindow_fusion@@V?$allocator@UPoint@MainWindow_fusion@@@std@@@std@@QEBA_KXZ 00000001800236d0 f i mainwindow_fusion.obj
 0001:00022700       ??A?$vector@UPoint@MainWindow_fusion@@V?$allocator@UPoint@MainWindow_fusion@@@std@@@std@@QEAAAEAUPoint@MainWindow_fusion@@_K@Z 0000000180023700 f i mainwindow_fusion.obj
 0001:00022710       ??A?$vector@UCluster@MainWindow_fusion@@V?$allocator@UCluster@MainWindow_fusion@@@std@@@std@@QEAAAEAUCluster@MainWindow_fusion@@_K@Z 0000000180023710 f i mainwindow_fusion.obj
 0001:00022720       ??0?$allocator@U?$pair@$$CBHV?$vector@HV?$allocator@H@std@@@std@@@std@@@std@@QEAA@XZ 0000000180023720 f i mainwindow_fusion.obj
 0001:00022730       ??R?$less@H@std@@QEBA_NAEBH0@Z 0000000180023730 f i mainwindow_fusion.obj
 0001:00022740       ?_Inside@?$vector@EV?$allocator@E@std@@@std@@IEBA_NPEBE@Z 0000000180023740 f i mainwindow_fusion.obj
 0001:00022760       ?_Orphan_range@?$vector@EV?$allocator@E@std@@@std@@IEBAXPEAE0@Z 0000000180023760 f i mainwindow_fusion.obj
 0001:00022770       ??1?$_Vector_val@EV?$allocator@E@std@@@std@@QEAA@XZ 0000000180023770 f i mainwindow_fusion.obj
 0001:00022780       ??0?$allocator@E@std@@QEAA@XZ 0000000180023780 f i mainwindow_fusion.obj
 0001:00022790       ??0?$allocator@E@std@@QEAA@AEBV01@@Z 0000000180023790 f i mainwindow_fusion.obj
 0001:000227a0       ?_Inside@?$vector@UPoint@MainWindow_fusion@@V?$allocator@UPoint@MainWindow_fusion@@@std@@@std@@IEBA_NPEBUPoint@MainWindow_fusion@@@Z 00000001800237a0 f i mainwindow_fusion.obj
 0001:000227c0       ?_Orphan_range@?$vector@UPoint@MainWindow_fusion@@V?$allocator@UPoint@MainWindow_fusion@@@std@@@std@@IEBAXPEAUPoint@MainWindow_fusion@@0@Z 00000001800237c0 f i mainwindow_fusion.obj
 0001:000227d0       ??1?$_Vector_val@UPoint@MainWindow_fusion@@V?$allocator@UPoint@MainWindow_fusion@@@std@@@std@@QEAA@XZ 00000001800237d0 f i mainwindow_fusion.obj
 0001:000227e0       ??0?$allocator@UPoint@MainWindow_fusion@@@std@@QEAA@XZ 00000001800237e0 f i mainwindow_fusion.obj
 0001:000227f0       ?_Inside@?$vector@UCluster@MainWindow_fusion@@V?$allocator@UCluster@MainWindow_fusion@@@std@@@std@@IEBA_NPEBUCluster@MainWindow_fusion@@@Z 00000001800237f0 f i mainwindow_fusion.obj
 0001:00022810       ?_Orphan_range@?$vector@UCluster@MainWindow_fusion@@V?$allocator@UCluster@MainWindow_fusion@@@std@@@std@@IEBAXPEAUCluster@MainWindow_fusion@@0@Z 0000000180023810 f i mainwindow_fusion.obj
 0001:00022820       ??1?$_Vector_val@UCluster@MainWindow_fusion@@V?$allocator@UCluster@MainWindow_fusion@@@std@@@std@@QEAA@XZ 0000000180023820 f i mainwindow_fusion.obj
 0001:00022830       ??0?$allocator@UCluster@MainWindow_fusion@@@std@@QEAA@XZ 0000000180023830 f i mainwindow_fusion.obj
 0001:00022840       ??8?$_Tree_const_iterator@V?$_Tree_val@V?$_Tmap_traits@HV?$vector@HV?$allocator@H@std@@@std@@U?$less@H@2@V?$allocator@U?$pair@$$CBHV?$vector@HV?$allocator@H@std@@@std@@@std@@@2@$0A@@std@@@std@@@std@@QEBA_NAEBV01@@Z 0000000180023840 f i mainwindow_fusion.obj
 0001:00022850       ?_Mynode@?$_Tree_unchecked_const_iterator@V?$_Tree_val@V?$_Tmap_traits@HV?$vector@HV?$allocator@H@std@@@std@@U?$less@H@2@V?$allocator@U?$pair@$$CBHV?$vector@HV?$allocator@H@std@@@std@@@std@@@2@$0A@@std@@@std@@U_Iterator_base0@2@@std@@QEBAPEAU_Node@?$_Tree_nod@V?$_Tmap_traits@HV?$vector@HV?$allocator@H@std@@@std@@U?$less@H@2@V?$allocator@U?$pair@$$CBHV?$vector@HV?$allocator@H@std@@@std@@@std@@@2@$0A@@std@@@2@XZ 0000000180023850 f i mainwindow_fusion.obj
 0001:00022860       ?_Isnil@?$_Tree_val@V?$_Tmap_traits@HV?$vector@HV?$allocator@H@std@@@std@@U?$less@H@2@V?$allocator@U?$pair@$$CBHV?$vector@HV?$allocator@H@std@@@std@@@std@@@2@$0A@@std@@@std@@SAAEADPEAU_Node@?$_Tree_nod@V?$_Tmap_traits@HV?$vector@HV?$allocator@H@std@@@std@@U?$less@H@2@V?$allocator@U?$pair@$$CBHV?$vector@HV?$allocator@H@std@@@std@@@std@@@2@$0A@@std@@@2@@Z 0000000180023860 f i mainwindow_fusion.obj
 0001:00022870       ?_Left@?$_Tree_val@V?$_Tmap_traits@HV?$vector@HV?$allocator@H@std@@@std@@U?$less@H@2@V?$allocator@U?$pair@$$CBHV?$vector@HV?$allocator@H@std@@@std@@@std@@@2@$0A@@std@@@std@@SAAEAPEAU_Node@?$_Tree_nod@V?$_Tmap_traits@HV?$vector@HV?$allocator@H@std@@@std@@U?$less@H@2@V?$allocator@U?$pair@$$CBHV?$vector@HV?$allocator@H@std@@@std@@@std@@@2@$0A@@std@@@2@PEAU342@@Z 0000000180023870 f i mainwindow_fusion.obj
 0001:00022880       ?_Parent@?$_Tree_val@V?$_Tmap_traits@HV?$vector@HV?$allocator@H@std@@@std@@U?$less@H@2@V?$allocator@U?$pair@$$CBHV?$vector@HV?$allocator@H@std@@@std@@@std@@@2@$0A@@std@@@std@@SAAEAPEAU_Node@?$_Tree_nod@V?$_Tmap_traits@HV?$vector@HV?$allocator@H@std@@@std@@U?$less@H@2@V?$allocator@U?$pair@$$CBHV?$vector@HV?$allocator@H@std@@@std@@@std@@@2@$0A@@std@@@2@PEAU342@@Z 0000000180023880 f i mainwindow_fusion.obj
 0001:00022890       ?_Right@?$_Tree_val@V?$_Tmap_traits@HV?$vector@HV?$allocator@H@std@@@std@@U?$less@H@2@V?$allocator@U?$pair@$$CBHV?$vector@HV?$allocator@H@std@@@std@@@std@@@2@$0A@@std@@@std@@SAAEAPEAU_Node@?$_Tree_nod@V?$_Tmap_traits@HV?$vector@HV?$allocator@H@std@@@std@@U?$less@H@2@V?$allocator@U?$pair@$$CBHV?$vector@HV?$allocator@H@std@@@std@@@std@@@2@$0A@@std@@@2@PEAU342@@Z 0000000180023890 f i mainwindow_fusion.obj
 0001:000228a0       ?_Myval@?$_Tree_val@V?$_Tmap_traits@HV?$vector@HV?$allocator@H@std@@@std@@U?$less@H@2@V?$allocator@U?$pair@$$CBHV?$vector@HV?$allocator@H@std@@@std@@@std@@@2@$0A@@std@@@std@@SAAEAU?$pair@$$CBHV?$vector@HV?$allocator@H@std@@@std@@@2@PEAU_Node@?$_Tree_nod@V?$_Tmap_traits@HV?$vector@HV?$allocator@H@std@@@std@@U?$less@H@2@V?$allocator@U?$pair@$$CBHV?$vector@HV?$allocator@H@std@@@std@@@std@@@2@$0A@@std@@@2@@Z 00000001800238a0 f i mainwindow_fusion.obj
 0001:000228b0       ??0?$allocator@U?$pair@$$CBHV?$vector@HV?$allocator@H@std@@@std@@@std@@@std@@QEAA@AEBV01@@Z 00000001800238b0 f i mainwindow_fusion.obj
 0001:000228c0       ?deallocate@?$allocator@U_Node@?$_Tree_nod@V?$_Tmap_traits@HV?$vector@HV?$allocator@H@std@@@std@@U?$less@H@2@V?$allocator@U?$pair@$$CBHV?$vector@HV?$allocator@H@std@@@std@@@std@@@2@$0A@@std@@@std@@@std@@QEAAXPEAU_Node@?$_Tree_nod@V?$_Tmap_traits@HV?$vector@HV?$allocator@H@std@@@std@@U?$less@H@2@V?$allocator@U?$pair@$$CBHV?$vector@HV?$allocator@H@std@@@std@@@std@@@2@$0A@@std@@@2@_K@Z 00000001800238c0 f i mainwindow_fusion.obj
 0001:000228d0       ?capacity@?$vector@EV?$allocator@E@std@@@std@@QEBA_KXZ 00000001800238d0 f i mainwindow_fusion.obj
 0001:000228e0       ?_Xlen@?$vector@EV?$allocator@E@std@@@std@@IEBAXXZ 00000001800238e0 f i mainwindow_fusion.obj
 0001:00022900       ?deallocate@?$allocator@E@std@@QEAAXPEAE_K@Z 0000000180023900 f i mainwindow_fusion.obj
 0001:00022910       ??0?$_Vector_const_iterator@V?$_Vector_val@EV?$allocator@E@std@@@std@@@std@@QEAA@PEAEPEBU_Container_base0@1@@Z 0000000180023910 f i mainwindow_fusion.obj
 0001:00022920       ?capacity@?$vector@UPoint@MainWindow_fusion@@V?$allocator@UPoint@MainWindow_fusion@@@std@@@std@@QEBA_KXZ 0000000180023920 f i mainwindow_fusion.obj
 0001:00022950       ?_Xlen@?$vector@UPoint@MainWindow_fusion@@V?$allocator@UPoint@MainWindow_fusion@@@std@@@std@@IEBAXXZ 0000000180023950 f i mainwindow_fusion.obj
 0001:00022970       ??0?$allocator@UPoint@MainWindow_fusion@@@std@@QEAA@AEBV01@@Z 0000000180023970 f i mainwindow_fusion.obj
 0001:00022980       ?deallocate@?$allocator@UPoint@MainWindow_fusion@@@std@@QEAAXPEAUPoint@MainWindow_fusion@@_K@Z 0000000180023980 f i mainwindow_fusion.obj
 0001:00022990       ?capacity@?$vector@UCluster@MainWindow_fusion@@V?$allocator@UCluster@MainWindow_fusion@@@std@@@std@@QEBA_KXZ 0000000180023990 f i mainwindow_fusion.obj
 0001:000229c0       ?size@?$vector@UCluster@MainWindow_fusion@@V?$allocator@UCluster@MainWindow_fusion@@@std@@@std@@QEBA_KXZ 00000001800239c0 f i mainwindow_fusion.obj
 0001:000229f0       ?_Xlen@?$vector@UCluster@MainWindow_fusion@@V?$allocator@UCluster@MainWindow_fusion@@@std@@@std@@IEBAXXZ 00000001800239f0 f i mainwindow_fusion.obj
 0001:00022a10       ??0?$allocator@UCluster@MainWindow_fusion@@@std@@QEAA@AEBV01@@Z 0000000180023a10 f i mainwindow_fusion.obj
 0001:00022a20       ?deallocate@?$allocator@UCluster@MainWindow_fusion@@@std@@QEAAXPEAUCluster@MainWindow_fusion@@_K@Z 0000000180023a20 f i mainwindow_fusion.obj
 0001:00022a30       ??D?$_Tree_const_iterator@V?$_Tree_val@V?$_Tmap_traits@HV?$vector@HV?$allocator@H@std@@@std@@U?$less@H@2@V?$allocator@U?$pair@$$CBHV?$vector@HV?$allocator@H@std@@@std@@@std@@@2@$0A@@std@@@std@@@std@@QEBAAEBU?$pair@$$CBHV?$vector@HV?$allocator@H@std@@@std@@@1@XZ 0000000180023a30 f i mainwindow_fusion.obj
 0001:00022a40       ?_Color@?$_Tree_val@V?$_Tmap_traits@HV?$vector@HV?$allocator@H@std@@@std@@U?$less@H@2@V?$allocator@U?$pair@$$CBHV?$vector@HV?$allocator@H@std@@@std@@@std@@@2@$0A@@std@@@std@@SAAEADPEAU_Node@?$_Tree_nod@V?$_Tmap_traits@HV?$vector@HV?$allocator@H@std@@@std@@U?$less@H@2@V?$allocator@U?$pair@$$CBHV?$vector@HV?$allocator@H@std@@@std@@@std@@@2@$0A@@std@@@2@@Z 0000000180023a40 f i mainwindow_fusion.obj
 0001:00022a50       ?max_size@?$allocator@E@std@@QEBA_KXZ 0000000180023a50 f i mainwindow_fusion.obj
 0001:00022a60       ?max_size@?$allocator@UPoint@MainWindow_fusion@@@std@@QEBA_KXZ 0000000180023a60 f i mainwindow_fusion.obj
 0001:00022a70       ?max_size@?$allocator@UCluster@MainWindow_fusion@@@std@@QEBA_KXZ 0000000180023a70 f i mainwindow_fusion.obj
 0001:00022a80       ??9?$_Tree_const_iterator@V?$_Tree_val@V?$_Tmap_traits@HV?$vector@HV?$allocator@H@std@@@std@@U?$less@H@2@V?$allocator@U?$pair@$$CBHV?$vector@HV?$allocator@H@std@@@std@@@std@@@2@$0A@@std@@@std@@@std@@QEBA_NAEBV01@@Z 0000000180023a80 f i mainwindow_fusion.obj
 0001:00022a90       ?_Max@?$_Tree_val@V?$_Tmap_traits@HV?$vector@HV?$allocator@H@std@@@std@@U?$less@H@2@V?$allocator@U?$pair@$$CBHV?$vector@HV?$allocator@H@std@@@std@@@std@@@2@$0A@@std@@@std@@SAPEAU_Node@?$_Tree_nod@V?$_Tmap_traits@HV?$vector@HV?$allocator@H@std@@@std@@U?$less@H@2@V?$allocator@U?$pair@$$CBHV?$vector@HV?$allocator@H@std@@@std@@@std@@@2@$0A@@std@@@2@PEAU342@@Z 0000000180023a90 f i mainwindow_fusion.obj
 0001:00022ac0       ?_Min@?$_Tree_val@V?$_Tmap_traits@HV?$vector@HV?$allocator@H@std@@@std@@U?$less@H@2@V?$allocator@U?$pair@$$CBHV?$vector@HV?$allocator@H@std@@@std@@@std@@@2@$0A@@std@@@std@@SAPEAU_Node@?$_Tree_nod@V?$_Tmap_traits@HV?$vector@HV?$allocator@H@std@@@std@@U?$less@H@2@V?$allocator@U?$pair@$$CBHV?$vector@HV?$allocator@H@std@@@std@@@std@@@2@$0A@@std@@@2@PEAU342@@Z 0000000180023ac0 f i mainwindow_fusion.obj
 0001:00022ae0       ??0?$_Tmap_traits@HV?$vector@HV?$allocator@H@std@@@std@@U?$less@H@2@V?$allocator@U?$pair@$$CBHV?$vector@HV?$allocator@H@std@@@std@@@std@@@2@$0A@@std@@QEAA@U?$less@H@1@@Z 0000000180023ae0 f i mainwindow_fusion.obj
 0001:00022af0       ?_Compat@?$_Vector_const_iterator@V?$_Vector_val@EV?$allocator@E@std@@@std@@@std@@QEBAXAEBV12@@Z 0000000180023af0 f i mainwindow_fusion.obj
 0001:00022b00       ??0?$_Tree_unchecked_const_iterator@V?$_Tree_val@V?$_Tmap_traits@HV?$vector@HV?$allocator@H@std@@@std@@U?$less@H@2@V?$allocator@U?$pair@$$CBHV?$vector@HV?$allocator@H@std@@@std@@@std@@@2@$0A@@std@@@std@@U_Iterator_base0@2@@std@@QEAA@PEAU_Node@?$_Tree_nod@V?$_Tmap_traits@HV?$vector@HV?$allocator@H@std@@@std@@U?$less@H@2@V?$allocator@U?$pair@$$CBHV?$vector@HV?$allocator@H@std@@@std@@@std@@@2@$0A@@std@@@1@PEBV?$_Tree_val@V?$_Tmap_traits@HV?$vector@HV?$allocator@H@std@@@std@@U?$less@H@2@V?$allocator@U?$pair@$$CBHV?$vector@HV?$allocator@H@std@@@std@@@std@@@2@$0A@@std@@@1@@Z 0000000180023b00 f i mainwindow_fusion.obj
 0001:00022b10       ??E?$_Tree_unchecked_const_iterator@V?$_Tree_val@V?$_Tmap_traits@HV?$vector@HV?$allocator@H@std@@@std@@U?$less@H@2@V?$allocator@U?$pair@$$CBHV?$vector@HV?$allocator@H@std@@@std@@@std@@@2@$0A@@std@@@std@@U_Iterator_base0@2@@std@@QEAAAEAV01@XZ 0000000180023b10 f i mainwindow_fusion.obj
 0001:00022b70       ??$addressof@$$CBE@std@@YAPEBEAEBE@Z 0000000180023b70 f i mainwindow_fusion.obj
 0001:00022b80       ??$addressof@$$CBUPoint@MainWindow_fusion@@@std@@YAPEBUPoint@MainWindow_fusion@@AEBU12@@Z 0000000180023b80 f i mainwindow_fusion.obj
 0001:00022b90       ??$addressof@$$CBUCluster@MainWindow_fusion@@@std@@YAPEBUCluster@MainWindow_fusion@@AEBU12@@Z 0000000180023b90 f i mainwindow_fusion.obj
 0001:00022ba0       ??$addressof@U?$pair@$$CBHV?$vector@HV?$allocator@H@std@@@std@@@std@@@std@@YAPEAU?$pair@$$CBHV?$vector@HV?$allocator@H@std@@@std@@@0@AEAU10@@Z 0000000180023ba0 f i mainwindow_fusion.obj
 0001:00022bb0       ??$_Kfn@$$CBHV?$vector@HV?$allocator@H@std@@@std@@@?$_Tmap_traits@HV?$vector@HV?$allocator@H@std@@@std@@U?$less@H@2@V?$allocator@U?$pair@$$CBHV?$vector@HV?$allocator@H@std@@@std@@@std@@@2@$0A@@std@@SAAEBHAEBU?$pair@$$CBHV?$vector@HV?$allocator@H@std@@@std@@@1@@Z 0000000180023bb0 f i mainwindow_fusion.obj
 0001:00022bc0       ??$_Allocate@E@std@@YAPEAE_KPEAE@Z 0000000180023bc0 f i mainwindow_fusion.obj
 0001:00022c20       ??$?0U?$pair@$$CBHV?$vector@HV?$allocator@H@std@@@std@@@std@@@?$allocator@U_Node@?$_Tree_nod@V?$_Tmap_traits@HV?$vector@HV?$allocator@H@std@@@std@@U?$less@H@2@V?$allocator@U?$pair@$$CBHV?$vector@HV?$allocator@H@std@@@std@@@std@@@2@$0A@@std@@@std@@@std@@QEAA@AEBV?$allocator@U?$pair@$$CBHV?$vector@HV?$allocator@H@std@@@std@@@std@@@1@@Z 0000000180023c20 f i mainwindow_fusion.obj
 0001:00022c30       ??$_Allocate@U_Node@?$_Tree_nod@V?$_Tmap_traits@HV?$vector@HV?$allocator@H@std@@@std@@U?$less@H@2@V?$allocator@U?$pair@$$CBHV?$vector@HV?$allocator@H@std@@@std@@@std@@@2@$0A@@std@@@std@@@std@@YAPEAU_Node@?$_Tree_nod@V?$_Tmap_traits@HV?$vector@HV?$allocator@H@std@@@std@@U?$less@H@2@V?$allocator@U?$pair@$$CBHV?$vector@HV?$allocator@H@std@@@std@@@std@@@2@$0A@@std@@@0@_KPEAU120@@Z 0000000180023c30 f i mainwindow_fusion.obj
 0001:00022ca0       ??$_Allocate@UPoint@MainWindow_fusion@@@std@@YAPEAUPoint@MainWindow_fusion@@_KPEAU12@@Z 0000000180023ca0 f i mainwindow_fusion.obj
 0001:00022d10       ??$_Allocate@UCluster@MainWindow_fusion@@@std@@YAPEAUCluster@MainWindow_fusion@@_KPEAU12@@Z 0000000180023d10 f i mainwindow_fusion.obj
 0001:00022d80       ??G?$_Vector_const_iterator@V?$_Vector_val@EV?$allocator@E@std@@@std@@@std@@QEBA_JAEBV01@@Z 0000000180023d80 f i mainwindow_fusion.obj
 0001:00022d90       ??0?$_Tree_unchecked_const_iterator@V?$_Tree_val@V?$_Tmap_traits@HV?$vector@HV?$allocator@H@std@@@std@@U?$less@H@2@V?$allocator@U?$pair@$$CBHV?$vector@HV?$allocator@H@std@@@std@@@std@@@2@$0A@@std@@@std@@U_Iterator_base0@2@@std@@QEAA@XZ 0000000180023d90 f i mainwindow_fusion.obj
 0001:00022da0       ??F?$_Tree_unchecked_const_iterator@V?$_Tree_val@V?$_Tmap_traits@HV?$vector@HV?$allocator@H@std@@@std@@U?$less@H@2@V?$allocator@U?$pair@$$CBHV?$vector@HV?$allocator@H@std@@@std@@@std@@@2@$0A@@std@@@std@@U_Iterator_base0@2@@std@@QEAAAEAV01@XZ 0000000180023da0 f i mainwindow_fusion.obj
 0001:00022e20       ?max_size@?$allocator@U?$pair@$$CBHV?$vector@HV?$allocator@H@std@@@std@@@std@@@std@@QEBA_KXZ 0000000180023e20 f i mainwindow_fusion.obj
 0001:00022e30       ??$forward@U?$pair@$$CBHV?$vector@HV?$allocator@H@std@@@std@@@std@@@std@@YA$$QEAU?$pair@$$CBHV?$vector@HV?$allocator@H@std@@@std@@@0@AEAU10@@Z 0000000180023e30 f i mainwindow_fusion.obj
 0001:00022e40       ??$forward@AEAE@std@@YAAEAEAEAE@Z 0000000180023e40 f i mainwindow_fusion.obj
 0001:00022e50       ??$construct@AEAE@?$allocator@E@std@@QEAAXPEAEAEAE@Z 0000000180023e50 f i mainwindow_fusion.obj
 0001:00022e60       ??$forward@AEBE@std@@YAAEBEAEBE@Z 0000000180023e60 f i mainwindow_fusion.obj
 0001:00022e70       ??$_Copy_impl@PEAHPEAH@std@@YAPEAHPEAH00U_Scalar_ptr_iterator_tag@0@@Z 0000000180023e70 f i mainwindow_fusion.obj
 0001:00022eb0       ??$forward@AEAUPoint@MainWindow_fusion@@@std@@YAAEAUPoint@MainWindow_fusion@@AEAU12@@Z 0000000180023eb0 f i mainwindow_fusion.obj
 0001:00022ec0       ??$construct@AEAUPoint@MainWindow_fusion@@@?$allocator@UPoint@MainWindow_fusion@@@std@@QEAAXPEAUPoint@MainWindow_fusion@@AEAU23@@Z 0000000180023ec0 f i mainwindow_fusion.obj
 0001:00022ee0       ??$forward@AEBUPoint@MainWindow_fusion@@@std@@YAAEBUPoint@MainWindow_fusion@@AEBU12@@Z 0000000180023ee0 f i mainwindow_fusion.obj
 0001:00022ef0       ??$forward@AEAUCluster@MainWindow_fusion@@@std@@YAAEAUCluster@MainWindow_fusion@@AEAU12@@Z 0000000180023ef0 f i mainwindow_fusion.obj
 0001:00022f00       ??$construct@AEAUCluster@MainWindow_fusion@@@?$allocator@UCluster@MainWindow_fusion@@@std@@QEAAXPEAUCluster@MainWindow_fusion@@AEAU23@@Z 0000000180023f00 f i mainwindow_fusion.obj
 0001:00022f20       ??$forward@AEBUCluster@MainWindow_fusion@@@std@@YAAEBUCluster@MainWindow_fusion@@AEBU12@@Z 0000000180023f20 f i mainwindow_fusion.obj
 0001:00022f30       ??$_Ptr_cat@EE@std@@YA?AU_Scalar_ptr_iterator_tag@0@PEAE0@Z 0000000180023f30 f i mainwindow_fusion.obj
 0001:00022f40       ??$_Move@PEAEPEAE@std@@YAPEAEPEAE00U_Scalar_ptr_iterator_tag@0@@Z 0000000180023f40 f i mainwindow_fusion.obj
 0001:00022f80       ??$_Destroy_range@V?$allocator@E@std@@@std@@YAXPEAE0AEAV?$allocator@E@0@U_Scalar_ptr_iterator_tag@0@@Z 0000000180023f80 f i mainwindow_fusion.obj
 0001:00022f90       ??$_Ptr_cat@UPoint@MainWindow_fusion@@U12@@std@@YA?AU_Nonscalar_ptr_iterator_tag@0@PEAUPoint@MainWindow_fusion@@0@Z 0000000180023f90 f i mainwindow_fusion.obj
 0001:00022fa0       ??$_Ptr_cat@UCluster@MainWindow_fusion@@U12@@std@@YA?AU_Nonscalar_ptr_iterator_tag@0@PEAUCluster@MainWindow_fusion@@0@Z 0000000180023fa0 f i mainwindow_fusion.obj
 0001:00022fb0       ??$_Move@AEAD@std@@YA$$QEADAEAD@Z 0000000180023fb0 f i mainwindow_fusion.obj
 0001:00022fc0       ??$_Construct@EAEBE@std@@YAXPEAEAEBE@Z 0000000180023fc0 f i mainwindow_fusion.obj
 0001:00022fd0       ??$_Construct@UPoint@MainWindow_fusion@@AEBU12@@std@@YAXPEAUPoint@MainWindow_fusion@@AEBU12@@Z 0000000180023fd0 f i mainwindow_fusion.obj
 0001:00022ff0       ??$_Construct@UCluster@MainWindow_fusion@@AEBU12@@std@@YAXPEAUCluster@MainWindow_fusion@@AEBU12@@Z 0000000180023ff0 f i mainwindow_fusion.obj
 0001:00023010       ??$move@AEAV?$_Tree_iterator@V?$_Tree_val@V?$_Tmap_traits@HV?$vector@HV?$allocator@H@std@@@std@@U?$less@H@2@V?$allocator@U?$pair@$$CBHV?$vector@HV?$allocator@H@std@@@std@@@std@@@2@$0A@@std@@@std@@@std@@@std@@YA$$QEAV?$_Tree_iterator@V?$_Tree_val@V?$_Tmap_traits@HV?$vector@HV?$allocator@H@std@@@std@@U?$less@H@2@V?$allocator@U?$pair@$$CBHV?$vector@HV?$allocator@H@std@@@std@@@std@@@2@$0A@@std@@@std@@@0@AEAV10@@Z 0000000180024010 f i mainwindow_fusion.obj
 0001:00023020       ??$move@AEA_N@std@@YA$$QEA_NAEA_N@Z 0000000180024020 f i mainwindow_fusion.obj
 0001:00023030       ?_Unchecked@?$_Vector_iterator@V?$_Vector_val@EV?$allocator@E@std@@@std@@@std@@QEBAPEAEXZ 0000000180024030 f i mainwindow_fusion.obj
 0001:00023040       ??$_Ptr_cat@V?$_Vector_const_iterator@V?$_Vector_val@EV?$allocator@E@std@@@std@@@std@@PEAE@std@@YA?AU_Nonscalar_ptr_iterator_tag@0@AEAV?$_Vector_const_iterator@V?$_Vector_val@EV?$allocator@E@std@@@std@@@0@AEAPEAE@Z 0000000180024040 f i mainwindow_fusion.obj
 0001:00023050       ??$_Uninit_copy@HH@std@@YAPEAHPEAH00AEAV?$allocator@H@0@U_Scalar_ptr_iterator_tag@0@@Z 0000000180024050 f i mainwindow_fusion.obj
 0001:00023080       ??$_Val_type@PEAE@std@@YAPEAEPEAE@Z 0000000180024080 f i mainwindow_fusion.obj
 0001:00023090       ??$_Uninit_move@EEE@std@@YAPEAEPEAE00AEAV?$allocator@E@0@0U_Scalar_ptr_iterator_tag@0@@Z 0000000180024090 f i mainwindow_fusion.obj
 0001:000230c0       ??$_Val_type@PEAUPoint@MainWindow_fusion@@@std@@YAPEAUPoint@MainWindow_fusion@@PEAU12@@Z 00000001800240c0 f i mainwindow_fusion.obj
 0001:000230d0       ??$_Val_type@PEAUCluster@MainWindow_fusion@@@std@@YAPEAUCluster@MainWindow_fusion@@PEAU12@@Z 00000001800240d0 f i mainwindow_fusion.obj
 0001:000230e0       ??$forward@AEAV?$_Tree_iterator@V?$_Tree_val@V?$_Tmap_traits@HV?$vector@HV?$allocator@H@std@@@std@@U?$less@H@2@V?$allocator@U?$pair@$$CBHV?$vector@HV?$allocator@H@std@@@std@@@std@@@2@$0A@@std@@@std@@@std@@@std@@YAAEAV?$_Tree_iterator@V?$_Tree_val@V?$_Tmap_traits@HV?$vector@HV?$allocator@H@std@@@std@@U?$less@H@2@V?$allocator@U?$pair@$$CBHV?$vector@HV?$allocator@H@std@@@std@@@std@@@2@$0A@@std@@@std@@@0@AEAV10@@Z 00000001800240e0 f i mainwindow_fusion.obj
 0001:000230f0       ??$forward@_N@std@@YA$$QEA_NAEA_N@Z 00000001800240f0 f i mainwindow_fusion.obj
 0001:00023100       ??$?0AEAV?$_Tree_iterator@V?$_Tree_val@V?$_Tmap_traits@HV?$vector@HV?$allocator@H@std@@@std@@U?$less@H@2@V?$allocator@U?$pair@$$CBHV?$vector@HV?$allocator@H@std@@@std@@@std@@@2@$0A@@std@@@std@@@std@@_N@?$_Pair_base@V?$_Tree_iterator@V?$_Tree_val@V?$_Tmap_traits@HV?$vector@HV?$allocator@H@std@@@std@@U?$less@H@2@V?$allocator@U?$pair@$$CBHV?$vector@HV?$allocator@H@std@@@std@@@std@@@2@$0A@@std@@@std@@@std@@_N@std@@QEAA@AEAV?$_Tree_iterator@V?$_Tree_val@V?$_Tmap_traits@HV?$vector@HV?$allocator@H@std@@@std@@U?$less@H@2@V?$allocator@U?$pair@$$CBHV?$vector@HV?$allocator@H@std@@@std@@@std@@@2@$0A@@std@@@std@@@1@$$QEA_N@Z 0000000180024100 f i mainwindow_fusion.obj
 0001:00023120       ??D?$_Vector_const_iterator@V?$_Vector_val@EV?$allocator@E@std@@@std@@@std@@QEBAAEBEXZ 0000000180024120 f i mainwindow_fusion.obj
 0001:00023130       ??E?$_Vector_const_iterator@V?$_Vector_val@EV?$allocator@E@std@@@std@@@std@@QEAAAEAV01@XZ 0000000180024130 f i mainwindow_fusion.obj
 0001:00023140       ??$_Unchecked@PEAE@std@@YAPEAEPEAE@Z 0000000180024140 f i mainwindow_fusion.obj
 0001:00023150       ??$_Dist_type@PEAE@std@@YAPEA_JPEAE@Z 0000000180024150 f i mainwindow_fusion.obj
 0001:00023160       ??$_Destroy@UPoint@MainWindow_fusion@@@std@@YAXPEAUPoint@MainWindow_fusion@@@Z 0000000180024160 f i mainwindow_fusion.obj
 0001:00023170       ??$_Destroy@UCluster@MainWindow_fusion@@@std@@YAXPEAUCluster@MainWindow_fusion@@@Z 0000000180024170 f i mainwindow_fusion.obj
 0001:00023180       ??$forward@AEAPEAE@std@@YAAEAPEAEAEAPEAE@Z 0000000180024180 f i mainwindow_fusion.obj
 0001:00023190       ??$?0AEAPEAEAEAPEAE@?$_Pair_base@PEAEPEAE@std@@QEAA@AEAPEAE0@Z 0000000180024190 f i mainwindow_fusion.obj
 0001:000231b0       ??$_Move@AEAE@std@@YA$$QEAEAEAE@Z 00000001800241b0 f i mainwindow_fusion.obj
 0001:000231c0       ??$forward@UPoint@MainWindow_fusion@@@std@@YA$$QEAUPoint@MainWindow_fusion@@AEAU12@@Z 00000001800241c0 f i mainwindow_fusion.obj
 0001:000231d0       ??$forward@UCluster@MainWindow_fusion@@@std@@YA$$QEAUCluster@MainWindow_fusion@@AEAU12@@Z 00000001800241d0 f i mainwindow_fusion.obj
 0001:000231e0       ??$forward@$$CBH@std@@YA$$QEBHAEBH@Z 00000001800241e0 f i mainwindow_fusion.obj
 0001:000231f0       ??$_Destroy@E@std@@YAXPEAE@Z 00000001800241f0 f i mainwindow_fusion.obj
 0001:00023200       ??$move@AEBH@std@@YA$$QEBHAEBH@Z 0000000180024200 f i mainwindow_fusion.obj
 0001:00023210       ??$_Push_heap@PEAE_JE@std@@YAXPEAE_J1$$QEAE@Z 0000000180024210 f i mainwindow_fusion.obj
 0001:00023270       ??$_Move_backward@PEAEPEAE@std@@YAPEAEPEAE00U_Scalar_ptr_iterator_tag@0@@Z 0000000180024270 f i mainwindow_fusion.obj
 0001:000232a0       ?setupUi@Ui_MainWindow_fusion@@QEAAXPEAVQDialog@@@Z 00000001800242a0 f i mainwindow_fusion.obj
 0001:00025600       ??_GQCheckBox@@UEAAPEAXI@Z 0000000180026600 f i mainwindow_fusion.obj
 0001:00025600       ??_EQCheckBox@@UEAAPEAXI@Z 0000000180026600 f i mainwindow_fusion.obj
 0001:00025630       ??_GQMenuBar@@UEAAPEAXI@Z  0000000180026630 f i mainwindow_fusion.obj
 0001:00025630       ??_EQMenuBar@@UEAAPEAXI@Z  0000000180026630 f i mainwindow_fusion.obj
 0001:00025660       ??_GQToolBar@@UEAAPEAXI@Z  0000000180026660 f i mainwindow_fusion.obj
 0001:00025660       ??_EQToolBar@@UEAAPEAXI@Z  0000000180026660 f i mainwindow_fusion.obj
 0001:00025690       ??_EQStatusBar@@UEAAPEAXI@Z 0000000180026690 f i mainwindow_fusion.obj
 0001:00025690       ??_GQStatusBar@@UEAAPEAXI@Z 0000000180026690 f i mainwindow_fusion.obj
 0001:000256c0       ??_EQStatusBar@@WBA@EAAPEAXI@Z 00000001800266c0 f i mainwindow_fusion.obj
 0001:000256d0       ??_EQMenuBar@@WBA@EAAPEAXI@Z 00000001800266d0 f i mainwindow_fusion.obj
 0001:000256e0       ??_EQToolBar@@WBA@EAAPEAXI@Z 00000001800266e0 f i mainwindow_fusion.obj
 0001:000256f0       ??_EQCheckBox@@WBA@EAAPEAXI@Z 00000001800266f0 f i mainwindow_fusion.obj
 0001:00025700       ?on_pushButton_dir_clicked@MainWindow_fusion@@AEAAXXZ 0000000180026700 f   mainwindow_fusion.obj
 0001:00025860       ?FillBlackPixels@MainWindow_fusion@@QEAAXAEAPEAPEAPEAEHHAEAPEAPEAHH@Z 0000000180026860 f   mainwindow_fusion.obj
 0001:00025a90       ?Smoothing_GLSI@MainWindow_fusion@@QEAAXAEAPEAPEAPEAEPEAPEAHH0HH@Z 0000000180026a90 f   mainwindow_fusion.obj
 0001:00025dc0       ?_Lmost@?$_Tree@V?$_Tmap_traits@HV?$vector@HV?$allocator@H@std@@@std@@U?$less@H@2@V?$allocator@U?$pair@$$CBHV?$vector@HV?$allocator@H@std@@@std@@@std@@@2@$0A@@std@@@std@@IEBAAEAPEAU_Node@?$_Tree_nod@V?$_Tmap_traits@HV?$vector@HV?$allocator@H@std@@@std@@U?$less@H@2@V?$allocator@U?$pair@$$CBHV?$vector@HV?$allocator@H@std@@@std@@@std@@@2@$0A@@std@@@2@XZ 0000000180026dc0 f i mainwindow_fusion.obj
 0001:00025dd0       ?_Rmost@?$_Tree@V?$_Tmap_traits@HV?$vector@HV?$allocator@H@std@@@std@@U?$less@H@2@V?$allocator@U?$pair@$$CBHV?$vector@HV?$allocator@H@std@@@std@@@std@@@2@$0A@@std@@@std@@IEBAAEAPEAU_Node@?$_Tree_nod@V?$_Tmap_traits@HV?$vector@HV?$allocator@H@std@@@std@@U?$less@H@2@V?$allocator@U?$pair@$$CBHV?$vector@HV?$allocator@H@std@@@std@@@std@@@2@$0A@@std@@@2@XZ 0000000180026dd0 f i mainwindow_fusion.obj
 0001:00025de0       ?_Root@?$_Tree@V?$_Tmap_traits@HV?$vector@HV?$allocator@H@std@@@std@@U?$less@H@2@V?$allocator@U?$pair@$$CBHV?$vector@HV?$allocator@H@std@@@std@@@std@@@2@$0A@@std@@@std@@IEBAAEAPEAU_Node@?$_Tree_nod@V?$_Tmap_traits@HV?$vector@HV?$allocator@H@std@@@std@@U?$less@H@2@V?$allocator@U?$pair@$$CBHV?$vector@HV?$allocator@H@std@@@std@@@std@@@2@$0A@@std@@@2@XZ 0000000180026de0 f i mainwindow_fusion.obj
 0001:00025df0       ??1?$_Tree_val@V?$_Tmap_traits@HV?$vector@HV?$allocator@H@std@@@std@@U?$less@H@2@V?$allocator@U?$pair@$$CBHV?$vector@HV?$allocator@H@std@@@std@@@std@@@2@$0A@@std@@@std@@QEAA@XZ 0000000180026df0 f i mainwindow_fusion.obj
 0001:00025e00       ?_Key@?$_Tree_val@V?$_Tmap_traits@HV?$vector@HV?$allocator@H@std@@@std@@U?$less@H@2@V?$allocator@U?$pair@$$CBHV?$vector@HV?$allocator@H@std@@@std@@@std@@@2@$0A@@std@@@std@@SAAEAHPEAU_Node@?$_Tree_nod@V?$_Tmap_traits@HV?$vector@HV?$allocator@H@std@@@std@@U?$less@H@2@V?$allocator@U?$pair@$$CBHV?$vector@HV?$allocator@H@std@@@std@@@std@@@2@$0A@@std@@@2@@Z 0000000180026e00 f i mainwindow_fusion.obj
 0001:00025e10       ?begin@?$vector@EV?$allocator@E@std@@@std@@QEBA?AV?$_Vector_const_iterator@V?$_Vector_val@EV?$allocator@E@std@@@std@@@2@XZ 0000000180026e10 f i mainwindow_fusion.obj
 0001:00025e20       ?end@?$vector@EV?$allocator@E@std@@@std@@QEBA?AV?$_Vector_const_iterator@V?$_Vector_val@EV?$allocator@E@std@@@std@@@2@XZ 0000000180026e20 f i mainwindow_fusion.obj
 0001:00025e30       ??0?$_Vector_val@EV?$allocator@E@std@@@std@@QEAA@V?$allocator@E@1@@Z 0000000180026e30 f i mainwindow_fusion.obj
 0001:00025e50       ??0?$_Vector_iterator@V?$_Vector_val@EV?$allocator@E@std@@@std@@@std@@QEAA@PEAEPEBU_Container_base0@1@@Z 0000000180026e50 f i mainwindow_fusion.obj
 0001:00025e60       ??0?$_Vector_val@UPoint@MainWindow_fusion@@V?$allocator@UPoint@MainWindow_fusion@@@std@@@std@@QEAA@V?$allocator@UPoint@MainWindow_fusion@@@1@@Z 0000000180026e60 f i mainwindow_fusion.obj
 0001:00025e80       ??0?$_Vector_val@UCluster@MainWindow_fusion@@V?$allocator@UCluster@MainWindow_fusion@@@std@@@std@@QEAA@V?$allocator@UCluster@MainWindow_fusion@@@1@@Z 0000000180026e80 f i mainwindow_fusion.obj
 0001:00025ea0       ??D?$_Tree_iterator@V?$_Tree_val@V?$_Tmap_traits@HV?$vector@HV?$allocator@H@std@@@std@@U?$less@H@2@V?$allocator@U?$pair@$$CBHV?$vector@HV?$allocator@H@std@@@std@@@std@@@2@$0A@@std@@@std@@@std@@QEBAAEAU?$pair@$$CBHV?$vector@HV?$allocator@H@std@@@std@@@1@XZ 0000000180026ea0 f i mainwindow_fusion.obj
 0001:00025eb0       ?_Lbound@?$_Tree@V?$_Tmap_traits@HV?$vector@HV?$allocator@H@std@@@std@@U?$less@H@2@V?$allocator@U?$pair@$$CBHV?$vector@HV?$allocator@H@std@@@std@@@std@@@2@$0A@@std@@@std@@IEAAPEAU_Node@?$_Tree_nod@V?$_Tmap_traits@HV?$vector@HV?$allocator@H@std@@@std@@U?$less@H@2@V?$allocator@U?$pair@$$CBHV?$vector@HV?$allocator@H@std@@@std@@@std@@@2@$0A@@std@@@2@AEBH@Z 0000000180026eb0 f i mainwindow_fusion.obj
 0001:00025ee0       ?_Make_iter@?$vector@EV?$allocator@E@std@@@std@@QEBA?AV?$_Vector_iterator@V?$_Vector_val@EV?$allocator@E@std@@@std@@@2@V?$_Vector_const_iterator@V?$_Vector_val@EV?$allocator@E@std@@@std@@@2@@Z 0000000180026ee0 f i mainwindow_fusion.obj
 0001:00025ef0       ?max_size@?$vector@EV?$allocator@E@std@@@std@@QEBA_KXZ 0000000180026ef0 f i mainwindow_fusion.obj
 0001:00025f00       ?_Grow_to@?$vector@EV?$allocator@E@std@@@std@@IEBA_K_K@Z 0000000180026f00 f i mainwindow_fusion.obj
 0001:00025f40       ?allocate@?$allocator@E@std@@QEAAPEAE_K@Z 0000000180026f40 f i mainwindow_fusion.obj
 0001:00025fa0       ?max_size@?$vector@UPoint@MainWindow_fusion@@V?$allocator@UPoint@MainWindow_fusion@@@std@@@std@@QEBA_KXZ 0000000180026fa0 f i mainwindow_fusion.obj
 0001:00025fb0       ?_Grow_to@?$vector@UPoint@MainWindow_fusion@@V?$allocator@UPoint@MainWindow_fusion@@@std@@@std@@IEBA_K_K@Z 0000000180026fb0 f i mainwindow_fusion.obj
 0001:00026010       ?max_size@?$vector@UCluster@MainWindow_fusion@@V?$allocator@UCluster@MainWindow_fusion@@@std@@@std@@QEBA_KXZ 0000000180027010 f i mainwindow_fusion.obj
 0001:00026020       ?_Grow_to@?$vector@UCluster@MainWindow_fusion@@V?$allocator@UCluster@MainWindow_fusion@@@std@@@std@@IEBA_K_K@Z 0000000180027020 f i mainwindow_fusion.obj
 0001:00026080       ??0?$_Tree_nod@V?$_Tmap_traits@HV?$vector@HV?$allocator@H@std@@@std@@U?$less@H@2@V?$allocator@U?$pair@$$CBHV?$vector@HV?$allocator@H@std@@@std@@@std@@@2@$0A@@std@@@std@@QEAA@AEBU?$less@H@1@V?$allocator@U?$pair@$$CBHV?$vector@HV?$allocator@H@std@@@std@@@std@@@1@@Z 0000000180027080 f i mainwindow_fusion.obj
 0001:00026090       ?allocate@?$allocator@U_Node@?$_Tree_nod@V?$_Tmap_traits@HV?$vector@HV?$allocator@H@std@@@std@@U?$less@H@2@V?$allocator@U?$pair@$$CBHV?$vector@HV?$allocator@H@std@@@std@@@std@@@2@$0A@@std@@@std@@@std@@QEAAPEAU_Node@?$_Tree_nod@V?$_Tmap_traits@HV?$vector@HV?$allocator@H@std@@@std@@U?$less@H@2@V?$allocator@U?$pair@$$CBHV?$vector@HV?$allocator@H@std@@@std@@@std@@@2@$0A@@std@@@2@_K@Z 0000000180027090 f i mainwindow_fusion.obj
 0001:00026100       ??8?$_Vector_const_iterator@V?$_Vector_val@EV?$allocator@E@std@@@std@@@std@@QEBA_NAEBV01@@Z 0000000180027100 f i mainwindow_fusion.obj
 0001:00026110       ?allocate@?$allocator@UPoint@MainWindow_fusion@@@std@@QEAAPEAUPoint@MainWindow_fusion@@_K@Z 0000000180027110 f i mainwindow_fusion.obj
 0001:00026180       ?allocate@?$allocator@UCluster@MainWindow_fusion@@@std@@QEAAPEAUCluster@MainWindow_fusion@@_K@Z 0000000180027180 f i mainwindow_fusion.obj
 0001:000261f0       ??0?$_Tree_const_iterator@V?$_Tree_val@V?$_Tmap_traits@HV?$vector@HV?$allocator@H@std@@@std@@U?$less@H@2@V?$allocator@U?$pair@$$CBHV?$vector@HV?$allocator@H@std@@@std@@@std@@@2@$0A@@std@@@std@@@std@@QEAA@PEAU_Node@?$_Tree_nod@V?$_Tmap_traits@HV?$vector@HV?$allocator@H@std@@@std@@U?$less@H@2@V?$allocator@U?$pair@$$CBHV?$vector@HV?$allocator@H@std@@@std@@@std@@@2@$0A@@std@@@1@PEBV?$_Tree_val@V?$_Tmap_traits@HV?$vector@HV?$allocator@H@std@@@std@@U?$less@H@2@V?$allocator@U?$pair@$$CBHV?$vector@HV?$allocator@H@std@@@std@@@std@@@2@$0A@@std@@@1@@Z 00000001800271f0 f i mainwindow_fusion.obj
 0001:00026200       ?_Lrotate@?$_Tree@V?$_Tmap_traits@HV?$vector@HV?$allocator@H@std@@@std@@U?$less@H@2@V?$allocator@U?$pair@$$CBHV?$vector@HV?$allocator@H@std@@@std@@@std@@@2@$0A@@std@@@std@@IEAAXPEAU_Node@?$_Tree_nod@V?$_Tmap_traits@HV?$vector@HV?$allocator@H@std@@@std@@U?$less@H@2@V?$allocator@U?$pair@$$CBHV?$vector@HV?$allocator@H@std@@@std@@@std@@@2@$0A@@std@@@2@@Z 0000000180027200 f i mainwindow_fusion.obj
 0001:00026260       ?_Rrotate@?$_Tree@V?$_Tmap_traits@HV?$vector@HV?$allocator@H@std@@@std@@U?$less@H@2@V?$allocator@U?$pair@$$CBHV?$vector@HV?$allocator@H@std@@@std@@@std@@@2@$0A@@std@@@std@@IEAAXPEAU_Node@?$_Tree_nod@V?$_Tmap_traits@HV?$vector@HV?$allocator@H@std@@@std@@U?$less@H@2@V?$allocator@U?$pair@$$CBHV?$vector@HV?$allocator@H@std@@@std@@@std@@@2@$0A@@std@@@2@@Z 0000000180027260 f i mainwindow_fusion.obj
 0001:000262c0       ??E?$_Tree_const_iterator@V?$_Tree_val@V?$_Tmap_traits@HV?$vector@HV?$allocator@H@std@@@std@@U?$less@H@2@V?$allocator@U?$pair@$$CBHV?$vector@HV?$allocator@H@std@@@std@@@std@@@2@$0A@@std@@@std@@@std@@QEAAAEAV01@XZ 00000001800272c0 f i mainwindow_fusion.obj
 0001:00026320       ??$_Cons_val@V?$allocator@E@std@@EAEAE@std@@YAXAEAV?$allocator@E@0@PEAEAEAE@Z 0000000180027320 f i mainwindow_fusion.obj
 0001:00026330       ??$_Copy_impl@PEAHPEAH@std@@YAPEAHPEAH00@Z 0000000180027330 f i mainwindow_fusion.obj
 0001:00026370       ??$_Cons_val@V?$allocator@UPoint@MainWindow_fusion@@@std@@UPoint@MainWindow_fusion@@AEAU34@@std@@YAXAEAV?$allocator@UPoint@MainWindow_fusion@@@0@PEAUPoint@MainWindow_fusion@@AEAU23@@Z 0000000180027370 f i mainwindow_fusion.obj
 0001:00026390       ??$_Cons_val@V?$allocator@UCluster@MainWindow_fusion@@@std@@UCluster@MainWindow_fusion@@AEAU34@@std@@YAXAEAV?$allocator@UCluster@MainWindow_fusion@@@0@PEAUCluster@MainWindow_fusion@@AEAU23@@Z 0000000180027390 f i mainwindow_fusion.obj
 0001:000263b0       ??$_Move@PEAEPEAE@std@@YAPEAEPEAE00@Z 00000001800273b0 f i mainwindow_fusion.obj
 0001:000263f0       ??$_Destroy_range@V?$allocator@E@std@@@std@@YAXPEAE0AEAV?$allocator@E@0@@Z 00000001800273f0 f i mainwindow_fusion.obj
 0001:00026400       ??$swap@D@std@@YAXAEAD0@Z  0000000180027400 f i mainwindow_fusion.obj
 0001:00026410       ?construct@?$allocator@E@std@@QEAAXPEAEAEBE@Z 0000000180027410 f i mainwindow_fusion.obj
 0001:00026420       ??G?$_Vector_iterator@V?$_Vector_val@EV?$allocator@E@std@@@std@@@std@@QEBA_JAEBV?$_Vector_const_iterator@V?$_Vector_val@EV?$allocator@E@std@@@std@@@1@@Z 0000000180027420 f i mainwindow_fusion.obj
 0001:00026430       ?construct@?$allocator@UPoint@MainWindow_fusion@@@std@@QEAAXPEAUPoint@MainWindow_fusion@@AEBU34@@Z 0000000180027430 f i mainwindow_fusion.obj
 0001:00026450       ?construct@?$allocator@UCluster@MainWindow_fusion@@@std@@QEAAXPEAUCluster@MainWindow_fusion@@AEBU34@@Z 0000000180027450 f i mainwindow_fusion.obj
 0001:00026470       ??0?$_Tree_const_iterator@V?$_Tree_val@V?$_Tmap_traits@HV?$vector@HV?$allocator@H@std@@@std@@U?$less@H@2@V?$allocator@U?$pair@$$CBHV?$vector@HV?$allocator@H@std@@@std@@@std@@@2@$0A@@std@@@std@@@std@@QEAA@XZ 0000000180027470 f i mainwindow_fusion.obj
 0001:00026480       ??F?$_Tree_const_iterator@V?$_Tree_val@V?$_Tmap_traits@HV?$vector@HV?$allocator@H@std@@@std@@U?$less@H@2@V?$allocator@U?$pair@$$CBHV?$vector@HV?$allocator@H@std@@@std@@@std@@@2@$0A@@std@@@std@@@std@@QEAAAEAV01@XZ 0000000180027480 f i mainwindow_fusion.obj
 0001:000264a0       ?max_size@?$_Tree@V?$_Tmap_traits@HV?$vector@HV?$allocator@H@std@@@std@@U?$less@H@2@V?$allocator@U?$pair@$$CBHV?$vector@HV?$allocator@H@std@@@std@@@std@@@2@$0A@@std@@@std@@QEBA_KXZ 00000001800274a0 f i mainwindow_fusion.obj
 0001:000264b0       ??F?$_Tree_iterator@V?$_Tree_val@V?$_Tmap_traits@HV?$vector@HV?$allocator@H@std@@@std@@U?$less@H@2@V?$allocator@U?$pair@$$CBHV?$vector@HV?$allocator@H@std@@@std@@@std@@@2@$0A@@std@@@std@@@std@@QEAAAEAV01@XZ 00000001800274b0 f i mainwindow_fusion.obj
 0001:000264d0       ??0?$_Pair_base@V?$_Tree_iterator@V?$_Tree_val@V?$_Tmap_traits@HV?$vector@HV?$allocator@H@std@@@std@@U?$less@H@2@V?$allocator@U?$pair@$$CBHV?$vector@HV?$allocator@H@std@@@std@@@std@@@2@$0A@@std@@@std@@@std@@_N@std@@QEAA@$$QEAV?$_Tree_iterator@V?$_Tree_val@V?$_Tmap_traits@HV?$vector@HV?$allocator@H@std@@@std@@U?$less@H@2@V?$allocator@U?$pair@$$CBHV?$vector@HV?$allocator@H@std@@@std@@@std@@@2@$0A@@std@@@std@@@1@$$QEA_N@Z 00000001800274d0 f i mainwindow_fusion.obj
 0001:000264f0       ??$_Unchecked@V?$_Vector_val@EV?$allocator@E@std@@@std@@@std@@YAPEAEV?$_Vector_iterator@V?$_Vector_val@EV?$allocator@E@std@@@std@@@0@@Z 00000001800274f0 f i mainwindow_fusion.obj
 0001:00026500       ??$_Uninitialized_copy@PEAHPEAHV?$allocator@H@std@@@std@@YAPEAHPEAH00AEAV?$allocator@H@0@@Z 0000000180027500 f i mainwindow_fusion.obj
 0001:00026530       ??$_Uninitialized_move@PEAEPEAEV?$allocator@E@std@@@std@@YAPEAEPEAE00AEAV?$allocator@E@0@@Z 0000000180027530 f i mainwindow_fusion.obj
 0001:00026560       ??$?0AEAV?$_Tree_iterator@V?$_Tree_val@V?$_Tmap_traits@HV?$vector@HV?$allocator@H@std@@@std@@U?$less@H@2@V?$allocator@U?$pair@$$CBHV?$vector@HV?$allocator@H@std@@@std@@@std@@@2@$0A@@std@@@std@@@std@@_N@?$pair@V?$_Tree_iterator@V?$_Tree_val@V?$_Tmap_traits@HV?$vector@HV?$allocator@H@std@@@std@@U?$less@H@2@V?$allocator@U?$pair@$$CBHV?$vector@HV?$allocator@H@std@@@std@@@std@@@2@$0A@@std@@@std@@@std@@_N@std@@QEAA@AEAV?$_Tree_iterator@V?$_Tree_val@V?$_Tmap_traits@HV?$vector@HV?$allocator@H@std@@@std@@U?$less@H@2@V?$allocator@U?$pair@$$CBHV?$vector@HV?$allocator@H@std@@@std@@@std@@@2@$0A@@std@@@std@@@1@$$QEA_N@Z 0000000180027560 f i mainwindow_fusion.obj
 0001:00026580       ?_Buynode@?$_Tree_val@V?$_Tmap_traits@HV?$vector@HV?$allocator@H@std@@@std@@U?$less@H@2@V?$allocator@U?$pair@$$CBHV?$vector@HV?$allocator@H@std@@@std@@@std@@@2@$0A@@std@@@std@@QEAAPEAU_Node@?$_Tree_nod@V?$_Tmap_traits@HV?$vector@HV?$allocator@H@std@@@std@@U?$less@H@2@V?$allocator@U?$pair@$$CBHV?$vector@HV?$allocator@H@std@@@std@@@std@@@2@$0A@@std@@@2@XZ 0000000180027580 f i mainwindow_fusion.obj
 0001:00026600       ?destroy@?$allocator@UPoint@MainWindow_fusion@@@std@@QEAAXPEAUPoint@MainWindow_fusion@@@Z 0000000180027600 f i mainwindow_fusion.obj
 0001:00026610       ?destroy@?$allocator@UCluster@MainWindow_fusion@@@std@@QEAAXPEAUCluster@MainWindow_fusion@@@Z 0000000180027610 f i mainwindow_fusion.obj
 0001:00026620       ??$?0AEAPEAEAEAPEAE@?$pair@PEAEPEAE@std@@QEAA@AEAPEAE0@Z 0000000180027620 f i mainwindow_fusion.obj
 0001:00026640       ?destroy@?$allocator@E@std@@QEAAXPEAE@Z 0000000180027640 f i mainwindow_fusion.obj
 0001:00026650       ?construct@?$allocator@UPoint@MainWindow_fusion@@@std@@QEAAXPEAUPoint@MainWindow_fusion@@$$QEAU34@@Z 0000000180027650 f i mainwindow_fusion.obj
 0001:00026670       ?construct@?$allocator@UCluster@MainWindow_fusion@@@std@@QEAAXPEAUCluster@MainWindow_fusion@@$$QEAU34@@Z 0000000180027670 f i mainwindow_fusion.obj
 0001:00026690       ??$swap@E@std@@YAXAEAE0@Z  0000000180027690 f i mainwindow_fusion.obj
 0001:000266a0       ??$_Adjust_heap@PEAE_JE@std@@YAXPEAE_J1$$QEAE@Z 00000001800276a0 f i mainwindow_fusion.obj
 0001:00026740       ??$_Move_backward@PEAEPEAE@std@@YAPEAEPEAE00@Z 0000000180027740 f i mainwindow_fusion.obj
 0001:00026770       ??$_Pop_heap@PEAE_JE@std@@YAXPEAE00$$QEAEPEA_J@Z 0000000180027770 f i mainwindow_fusion.obj
 0001:00026800       ?on_Browse_4_clicked@MainWindow_fusion@@AEAAXXZ 0000000180027800 f   mainwindow_fusion.obj
 0001:00026a30       ?on_Browse_2_clicked@MainWindow_fusion@@AEAAXXZ 0000000180027a30 f   mainwindow_fusion.obj
 0001:00026c70       ?MatrixInversion@MainWindow_fusion@@QEAAXPEAPEAMHAEAPEAPEAM@Z 0000000180027c70 f   mainwindow_fusion.obj
 0001:00026e60       ?getCovarianceMartix@MainWindow_fusion@@QEAAPEAPEAMHPEAPEAM0HH@Z 0000000180027e60 f   mainwindow_fusion.obj
 0001:00027390       ??0?$vector@EV?$allocator@E@std@@@std@@QEAA@XZ 0000000180028390 f i mainwindow_fusion.obj
 0001:000273b0       ?begin@?$vector@EV?$allocator@E@std@@@std@@QEAA?AV?$_Vector_iterator@V?$_Vector_val@EV?$allocator@E@std@@@std@@@2@XZ 00000001800283b0 f i mainwindow_fusion.obj
 0001:000273c0       ?end@?$vector@EV?$allocator@E@std@@@std@@QEAA?AV?$_Vector_iterator@V?$_Vector_val@EV?$allocator@E@std@@@std@@@2@XZ 00000001800283c0 f i mainwindow_fusion.obj
 0001:000273d0       ??0?$vector@UPoint@MainWindow_fusion@@V?$allocator@UPoint@MainWindow_fusion@@@std@@@std@@QEAA@XZ 00000001800283d0 f i mainwindow_fusion.obj
 0001:000273f0       ??0?$vector@UCluster@MainWindow_fusion@@V?$allocator@UCluster@MainWindow_fusion@@@std@@@std@@QEAA@XZ 00000001800283f0 f i mainwindow_fusion.obj
 0001:00027410       ?_Buy@?$vector@EV?$allocator@E@std@@@std@@IEAA_N_K@Z 0000000180028410 f i mainwindow_fusion.obj
 0001:00027470       ??0?$_Tree_val@V?$_Tmap_traits@HV?$vector@HV?$allocator@H@std@@@std@@U?$less@H@2@V?$allocator@U?$pair@$$CBHV?$vector@HV?$allocator@H@std@@@std@@@std@@@2@$0A@@std@@@std@@QEAA@AEBU?$less@H@1@V?$allocator@U?$pair@$$CBHV?$vector@HV?$allocator@H@std@@@std@@@std@@@1@@Z 0000000180028470 f i mainwindow_fusion.obj
 0001:00027500       ?_Destroy@?$vector@EV?$allocator@E@std@@@std@@IEAAXPEAE0@Z 0000000180028500 f i mainwindow_fusion.obj
 0001:00027510       ??9?$_Vector_const_iterator@V?$_Vector_val@EV?$allocator@E@std@@@std@@@std@@QEBA_NAEBV01@@Z 0000000180028510 f i mainwindow_fusion.obj
 0001:00027520       ??0?$_Tree_iterator@V?$_Tree_val@V?$_Tmap_traits@HV?$vector@HV?$allocator@H@std@@@std@@U?$less@H@2@V?$allocator@U?$pair@$$CBHV?$vector@HV?$allocator@H@std@@@std@@@std@@@2@$0A@@std@@@std@@@std@@QEAA@PEAU_Node@?$_Tree_nod@V?$_Tmap_traits@HV?$vector@HV?$allocator@H@std@@@std@@U?$less@H@2@V?$allocator@U?$pair@$$CBHV?$vector@HV?$allocator@H@std@@@std@@@std@@@2@$0A@@std@@@1@PEBV?$_Tree_val@V?$_Tmap_traits@HV?$vector@HV?$allocator@H@std@@@std@@U?$less@H@2@V?$allocator@U?$pair@$$CBHV?$vector@HV?$allocator@H@std@@@std@@@std@@@2@$0A@@std@@@1@@Z 0000000180028520 f i mainwindow_fusion.obj
 0001:00027530       ??E?$_Tree_const_iterator@V?$_Tree_val@V?$_Tmap_traits@HV?$vector@HV?$allocator@H@std@@@std@@U?$less@H@2@V?$allocator@U?$pair@$$CBHV?$vector@HV?$allocator@H@std@@@std@@@std@@@2@$0A@@std@@@std@@@std@@QEAA?AV01@H@Z 0000000180028530 f i mainwindow_fusion.obj
 0001:00027590       ??$_Cons_val@V?$allocator@E@std@@EAEBE@std@@YAXAEAV?$allocator@E@0@PEAEAEBE@Z 0000000180028590 f i mainwindow_fusion.obj
 0001:000275a0       ??$_Ucopy@PEAH@?$vector@HV?$allocator@H@std@@@std@@IEAAPEAHPEAH00@Z 00000001800285a0 f i mainwindow_fusion.obj
 0001:000275d0       ??$_Cons_val@V?$allocator@UPoint@MainWindow_fusion@@@std@@UPoint@MainWindow_fusion@@AEBU34@@std@@YAXAEAV?$allocator@UPoint@MainWindow_fusion@@@0@PEAUPoint@MainWindow_fusion@@AEBU23@@Z 00000001800285d0 f i mainwindow_fusion.obj
 0001:000275f0       ??$_Cons_val@V?$allocator@UCluster@MainWindow_fusion@@@std@@UCluster@MainWindow_fusion@@AEBU34@@std@@YAXAEAV?$allocator@UCluster@MainWindow_fusion@@@0@PEAUCluster@MainWindow_fusion@@AEBU23@@Z 00000001800285f0 f i mainwindow_fusion.obj
 0001:00027610       ??$_Umove@PEAE@?$vector@EV?$allocator@E@std@@@std@@IEAAPEAEPEAE00@Z 0000000180028610 f i mainwindow_fusion.obj
 0001:00027640       ??0?$pair@V?$_Tree_iterator@V?$_Tree_val@V?$_Tmap_traits@HV?$vector@HV?$allocator@H@std@@@std@@U?$less@H@2@V?$allocator@U?$pair@$$CBHV?$vector@HV?$allocator@H@std@@@std@@@std@@@2@$0A@@std@@@std@@@std@@_N@std@@QEAA@$$QEAV?$_Tree_iterator@V?$_Tree_val@V?$_Tmap_traits@HV?$vector@HV?$allocator@H@std@@@std@@U?$less@H@2@V?$allocator@U?$pair@$$CBHV?$vector@HV?$allocator@H@std@@@std@@@std@@@2@$0A@@std@@@std@@@1@$$QEA_N@Z 0000000180028640 f i mainwindow_fusion.obj
 0001:00027660       ??$_Dest_val@V?$allocator@UPoint@MainWindow_fusion@@@std@@UPoint@MainWindow_fusion@@@std@@YAXAEAV?$allocator@UPoint@MainWindow_fusion@@@0@PEAUPoint@MainWindow_fusion@@@Z 0000000180028660 f i mainwindow_fusion.obj
 0001:00027670       ??$_Dest_val@V?$allocator@UCluster@MainWindow_fusion@@@std@@UCluster@MainWindow_fusion@@@std@@YAXAEAV?$allocator@UCluster@MainWindow_fusion@@@0@PEAUCluster@MainWindow_fusion@@@Z 0000000180028670 f i mainwindow_fusion.obj
 0001:00027680       ??$iter_swap@PEAEPEAE@std@@YAXPEAE0@Z 0000000180028680 f i mainwindow_fusion.obj
 0001:00027690       ??$_Make_heap@PEAE_JE@std@@YAXPEAE0PEA_J0@Z 0000000180028690 f i mainwindow_fusion.obj
 0001:00027770       ??$_Insertion_sort1@PEAEE@std@@YAXPEAE00@Z 0000000180028770 f i mainwindow_fusion.obj
 0001:00027830       ??$_Dest_val@V?$allocator@E@std@@E@std@@YAXAEAV?$allocator@E@0@PEAE@Z 0000000180028830 f i mainwindow_fusion.obj
 0001:00027840       ??$_Cons_val@V?$allocator@UPoint@MainWindow_fusion@@@std@@UPoint@MainWindow_fusion@@U34@@std@@YAXAEAV?$allocator@UPoint@MainWindow_fusion@@@0@PEAUPoint@MainWindow_fusion@@$$QEAU23@@Z 0000000180028840 f i mainwindow_fusion.obj
 0001:00027860       ??$_Cons_val@V?$allocator@UCluster@MainWindow_fusion@@@std@@UCluster@MainWindow_fusion@@U34@@std@@YAXAEAV?$allocator@UCluster@MainWindow_fusion@@@0@PEAUCluster@MainWindow_fusion@@$$QEAU23@@Z 0000000180028860 f i mainwindow_fusion.obj
 0001:00027880       ??$_Med3@PEAE@std@@YAXPEAE00@Z 0000000180028880 f i mainwindow_fusion.obj
 0001:000278c0       ??$_Pop_heap_0@PEAEE@std@@YAXPEAE00@Z 00000001800288c0 f i mainwindow_fusion.obj
 0001:00027950       ??1?$_Pair_base@$$CBHV?$vector@HV?$allocator@H@std@@@std@@@std@@QEAA@XZ 0000000180028950 f i mainwindow_fusion.obj
 0001:00027980       ??0?$_Tree@V?$_Tmap_traits@HV?$vector@HV?$allocator@H@std@@@std@@U?$less@H@2@V?$allocator@U?$pair@$$CBHV?$vector@HV?$allocator@H@std@@@std@@@std@@@2@$0A@@std@@@std@@QEAA@AEBU?$less@H@1@AEBV?$allocator@U?$pair@$$CBHV?$vector@HV?$allocator@H@std@@@std@@@std@@@1@@Z 0000000180028980 f i mainwindow_fusion.obj
 0001:00027a10       ?end@?$_Tree@V?$_Tmap_traits@HV?$vector@HV?$allocator@H@std@@@std@@U?$less@H@2@V?$allocator@U?$pair@$$CBHV?$vector@HV?$allocator@H@std@@@std@@@std@@@2@$0A@@std@@@std@@QEAA?AV?$_Tree_iterator@V?$_Tree_val@V?$_Tmap_traits@HV?$vector@HV?$allocator@H@std@@@std@@U?$less@H@2@V?$allocator@U?$pair@$$CBHV?$vector@HV?$allocator@H@std@@@std@@@std@@@2@$0A@@std@@@std@@@2@XZ 0000000180028a10 f i mainwindow_fusion.obj
 0001:00027a20       ?lower_bound@?$_Tree@V?$_Tmap_traits@HV?$vector@HV?$allocator@H@std@@@std@@U?$less@H@2@V?$allocator@U?$pair@$$CBHV?$vector@HV?$allocator@H@std@@@std@@@std@@@2@$0A@@std@@@std@@QEAA?AV?$_Tree_iterator@V?$_Tree_val@V?$_Tmap_traits@HV?$vector@HV?$allocator@H@std@@@std@@U?$less@H@2@V?$allocator@U?$pair@$$CBHV?$vector@HV?$allocator@H@std@@@std@@@std@@@2@$0A@@std@@@std@@@2@AEBH@Z 0000000180028a20 f i mainwindow_fusion.obj
 0001:00027a50       ?erase@?$vector@EV?$allocator@E@std@@@std@@QEAA?AV?$_Vector_iterator@V?$_Vector_val@EV?$allocator@E@std@@@std@@@2@V?$_Vector_const_iterator@V?$_Vector_val@EV?$allocator@E@std@@@std@@@2@0@Z 0000000180028a50 f i mainwindow_fusion.obj
 0001:00027ab0       ?_Tidy@?$vector@EV?$allocator@E@std@@@std@@IEAAXXZ 0000000180028ab0 f i mainwindow_fusion.obj
 0001:00027ae0       ?begin@?$_Tree@V?$_Tmap_traits@HV?$vector@HV?$allocator@H@std@@@std@@U?$less@H@2@V?$allocator@U?$pair@$$CBHV?$vector@HV?$allocator@H@std@@@std@@@std@@@2@$0A@@std@@@std@@QEAA?AV?$_Tree_iterator@V?$_Tree_val@V?$_Tmap_traits@HV?$vector@HV?$allocator@H@std@@@std@@U?$less@H@2@V?$allocator@U?$pair@$$CBHV?$vector@HV?$allocator@H@std@@@std@@@std@@@2@$0A@@std@@@std@@@2@XZ 0000000180028ae0 f i mainwindow_fusion.obj
 0001:00027af0       ?reserve@?$vector@EV?$allocator@E@std@@@std@@QEAAX_K@Z 0000000180028af0 f i mainwindow_fusion.obj
 0001:00027ba0       ??$_Destroy_range@V?$allocator@UPoint@MainWindow_fusion@@@std@@@std@@YAXPEAUPoint@MainWindow_fusion@@0AEAV?$allocator@UPoint@MainWindow_fusion@@@0@U_Nonscalar_ptr_iterator_tag@0@@Z 0000000180028ba0 f i mainwindow_fusion.obj
 0001:00027bb0       ??$_Destroy_range@V?$allocator@UCluster@MainWindow_fusion@@@std@@@std@@YAXPEAUCluster@MainWindow_fusion@@0AEAV?$allocator@UCluster@MainWindow_fusion@@@0@U_Nonscalar_ptr_iterator_tag@0@@Z 0000000180028bb0 f i mainwindow_fusion.obj
 0001:00027bc0       ??$make_heap@PEAE@std@@YAXPEAE0@Z 0000000180028bc0 f i mainwindow_fusion.obj
 0001:00027be0       ??$_Insertion_sort@PEAE@std@@YAXPEAE0@Z 0000000180028be0 f i mainwindow_fusion.obj
 0001:00027bf0       ??$_Uninit_copy@V?$_Vector_const_iterator@V?$_Vector_val@EV?$allocator@E@std@@@std@@@std@@PEAEV?$allocator@E@2@@std@@YAPEAEV?$_Vector_const_iterator@V?$_Vector_val@EV?$allocator@E@std@@@std@@@0@0PEAEAEAV?$allocator@E@0@U_Nonscalar_ptr_iterator_tag@0@@Z 0000000180028bf0 f i mainwindow_fusion.obj
 0001:00027c30       ??$_Uninit_move@PEAUPoint@MainWindow_fusion@@PEAU12@V?$allocator@UPoint@MainWindow_fusion@@@std@@U12@@std@@YAPEAUPoint@MainWindow_fusion@@PEAU12@00AEAV?$allocator@UPoint@MainWindow_fusion@@@0@0U_Nonscalar_ptr_iterator_tag@0@@Z 0000000180028c30 f i mainwindow_fusion.obj
 0001:00027c70       ??$_Uninit_move@PEAUCluster@MainWindow_fusion@@PEAU12@V?$allocator@UCluster@MainWindow_fusion@@@std@@U12@@std@@YAPEAUCluster@MainWindow_fusion@@PEAU12@00AEAV?$allocator@UCluster@MainWindow_fusion@@@0@0U_Nonscalar_ptr_iterator_tag@0@@Z 0000000180028c70 f i mainwindow_fusion.obj
 0001:00027cc0       ??$_Median@PEAE@std@@YAXPEAE00@Z 0000000180028cc0 f i mainwindow_fusion.obj
 0001:00027e30       ??$_Pop_heap@PEAE@std@@YAXPEAE0@Z 0000000180028e30 f i mainwindow_fusion.obj
 0001:00027e40       ?Show_process@MainWindow_fusion@@AEAAXV?$basic_string@DU?$char_traits@D@std@@V?$allocator@D@2@@std@@@Z 0000000180028e40 f   mainwindow_fusion.obj
 0001:00027f60       ?writePPMImage@MainWindow_fusion@@QEAAXPEAPEAPEAEQEAHV?$basic_string@DU?$char_traits@D@std@@V?$allocator@D@2@@std@@@Z 0000000180028f60 f   mainwindow_fusion.obj
 0001:000280a0       ??1?$vector@EV?$allocator@E@std@@@std@@QEAA@XZ 00000001800290a0 f i mainwindow_fusion.obj
 0001:000280d0       ?clear@?$vector@EV?$allocator@E@std@@@std@@QEAAXXZ 00000001800290d0 f i mainwindow_fusion.obj
 0001:00028120       ??1?$pair@$$CBHV?$vector@HV?$allocator@H@std@@@std@@@std@@QEAA@XZ 0000000180029120 f i mainwindow_fusion.obj
 0001:00028150       ?_Reserve@?$vector@EV?$allocator@E@std@@@std@@IEAAX_K@Z 0000000180029150 f i mainwindow_fusion.obj
 0001:000281c0       ??$_Destroy_range@V?$allocator@UPoint@MainWindow_fusion@@@std@@@std@@YAXPEAUPoint@MainWindow_fusion@@0AEAV?$allocator@UPoint@MainWindow_fusion@@@0@@Z 00000001800291c0 f i mainwindow_fusion.obj
 0001:000281d0       ??$_Destroy_range@V?$allocator@UCluster@MainWindow_fusion@@@std@@@std@@YAXPEAUCluster@MainWindow_fusion@@0AEAV?$allocator@UCluster@MainWindow_fusion@@@0@@Z 00000001800291d0 f i mainwindow_fusion.obj
 0001:000281e0       ??$_Uninitialized_copy@V?$_Vector_const_iterator@V?$_Vector_val@EV?$allocator@E@std@@@std@@@std@@PEAEV?$allocator@E@2@@std@@YAPEAEV?$_Vector_const_iterator@V?$_Vector_val@EV?$allocator@E@std@@@std@@@0@0PEAEAEAV?$allocator@E@0@@Z 00000001800291e0 f i mainwindow_fusion.obj
 0001:00028200       ??$_Uninitialized_move@PEAUPoint@MainWindow_fusion@@PEAU12@V?$allocator@UPoint@MainWindow_fusion@@@std@@@std@@YAPEAUPoint@MainWindow_fusion@@PEAU12@00AEAV?$allocator@UPoint@MainWindow_fusion@@@0@@Z 0000000180029200 f i mainwindow_fusion.obj
 0001:00028220       ??$_Uninitialized_move@PEAUCluster@MainWindow_fusion@@PEAU12@V?$allocator@UCluster@MainWindow_fusion@@@std@@@std@@YAPEAUCluster@MainWindow_fusion@@PEAU12@00AEAV?$allocator@UCluster@MainWindow_fusion@@@0@@Z 0000000180029220 f i mainwindow_fusion.obj
 0001:00028240       ??_G?$pair@$$CBHV?$vector@HV?$allocator@H@std@@@std@@@std@@QEAAPEAXI@Z 0000000180029240 f i mainwindow_fusion.obj
 0001:00028290       ??$_Unguarded_partition@PEAE@std@@YA?AU?$pair@PEAEPEAE@0@PEAE0@Z 0000000180029290 f i mainwindow_fusion.obj
 0001:00028420       ??$_Sort_heap@PEAE@std@@YAXPEAE0@Z 0000000180029420 f i mainwindow_fusion.obj
 0001:00028500       ?push_back@?$vector@EV?$allocator@E@std@@@std@@QEAAXAEBE@Z 0000000180029500 f i mainwindow_fusion.obj
 0001:00028590       ??4?$vector@HV?$allocator@H@std@@@std@@QEAAAEAV01@AEBV01@@Z 0000000180029590 f i mainwindow_fusion.obj
 0001:000286d0       ?_Destroy@?$vector@UPoint@MainWindow_fusion@@V?$allocator@UPoint@MainWindow_fusion@@@std@@@std@@IEAAXPEAUPoint@MainWindow_fusion@@0@Z 00000001800296d0 f i mainwindow_fusion.obj
 0001:000286e0       ?_Destroy@?$vector@UCluster@MainWindow_fusion@@V?$allocator@UCluster@MainWindow_fusion@@@std@@@std@@IEAAXPEAUCluster@MainWindow_fusion@@0@Z 00000001800296e0 f i mainwindow_fusion.obj
 0001:000286f0       ??$_Ucopy@V?$_Vector_const_iterator@V?$_Vector_val@EV?$allocator@E@std@@@std@@@std@@@?$vector@EV?$allocator@E@std@@@std@@IEAAPEAEV?$_Vector_const_iterator@V?$_Vector_val@EV?$allocator@E@std@@@std@@@1@0PEAE@Z 00000001800296f0 f i mainwindow_fusion.obj
 0001:00028730       ??$_Umove@PEAUPoint@MainWindow_fusion@@@?$vector@UPoint@MainWindow_fusion@@V?$allocator@UPoint@MainWindow_fusion@@@std@@@std@@IEAAPEAUPoint@MainWindow_fusion@@PEAU23@00@Z 0000000180029730 f i mainwindow_fusion.obj
 0001:00028770       ??$_Umove@PEAUCluster@MainWindow_fusion@@@?$vector@UCluster@MainWindow_fusion@@V?$allocator@UCluster@MainWindow_fusion@@@std@@@std@@IEAAPEAUCluster@MainWindow_fusion@@PEAU23@00@Z 0000000180029770 f i mainwindow_fusion.obj
 0001:000287b0       ??$_Destroy@U?$pair@$$CBHV?$vector@HV?$allocator@H@std@@@std@@@std@@@std@@YAXPEAU?$pair@$$CBHV?$vector@HV?$allocator@H@std@@@std@@@0@@Z 00000001800297b0 f i mainwindow_fusion.obj
 0001:000287e0       ??$sort_heap@PEAE@std@@YAXPEAE0@Z 00000001800297e0 f i mainwindow_fusion.obj
 0001:000287f0       ?GetHistogram@MainWindow_fusion@@QEAAXV?$vector@EV?$allocator@E@std@@@std@@AEAV23@AEAV?$vector@HV?$allocator@H@std@@@3@@Z 00000001800297f0 f   mainwindow_fusion.obj
 0001:00028b00       ?on_pushButton_2_clicked@MainWindow_fusion@@AEAAXXZ 0000000180029b00 f   mainwindow_fusion.obj
 0001:00028c20       ?on_pushButton_4_clicked@MainWindow_fusion@@AEAAXXZ 0000000180029c20 f   mainwindow_fusion.obj
 0001:00028f00       ??0?$vector@EV?$allocator@E@std@@@std@@QEAA@AEBV01@@Z 0000000180029f00 f i mainwindow_fusion.obj
 0001:00028fc0       ?_Tidy@?$vector@UPoint@MainWindow_fusion@@V?$allocator@UPoint@MainWindow_fusion@@@std@@@std@@IEAAXXZ 0000000180029fc0 f i mainwindow_fusion.obj
 0001:00028ff0       ?_Tidy@?$vector@UCluster@MainWindow_fusion@@V?$allocator@UCluster@MainWindow_fusion@@@std@@@std@@IEAAXXZ 0000000180029ff0 f i mainwindow_fusion.obj
 0001:00029020       ?reserve@?$vector@UPoint@MainWindow_fusion@@V?$allocator@UPoint@MainWindow_fusion@@@std@@@std@@QEAAX_K@Z 000000018002a020 f i mainwindow_fusion.obj
 0001:00029120       ?reserve@?$vector@UCluster@MainWindow_fusion@@V?$allocator@UCluster@MainWindow_fusion@@@std@@@std@@QEAAX_K@Z 000000018002a120 f i mainwindow_fusion.obj
 0001:00029230       ?destroy@?$allocator@U?$pair@$$CBHV?$vector@HV?$allocator@H@std@@@std@@@std@@@std@@QEAAXPEAU?$pair@$$CBHV?$vector@HV?$allocator@H@std@@@std@@@2@@Z 000000018002a230 f i mainwindow_fusion.obj
 0001:00029260       ??$_Sort@PEAE_J@std@@YAXPEAE0_J@Z 000000018002a260 f i mainwindow_fusion.obj
 0001:00029370       ??0?$_Pair_base@$$CBHV?$vector@HV?$allocator@H@std@@@std@@@std@@QEAA@$$QEBH$$QEAV?$vector@HV?$allocator@H@std@@@1@@Z 000000018002a370 f i mainwindow_fusion.obj
 0001:000293c0       ?GetStats@MainWindow_fusion@@QEAAXPEAPEAHV?$vector@EV?$allocator@E@std@@@std@@HAEAM2AEAH3HHHHH@Z 000000018002a3c0 f   mainwindow_fusion.obj
 0001:000298c0       ??1?$vector@UPoint@MainWindow_fusion@@V?$allocator@UPoint@MainWindow_fusion@@@std@@@std@@QEAA@XZ 000000018002a8c0 f i mainwindow_fusion.obj
 0001:000298f0       ??1?$vector@UCluster@MainWindow_fusion@@V?$allocator@UCluster@MainWindow_fusion@@@std@@@std@@QEAA@XZ 000000018002a8f0 f i mainwindow_fusion.obj
 0001:00029920       ?_Reserve@?$vector@UPoint@MainWindow_fusion@@V?$allocator@UPoint@MainWindow_fusion@@@std@@@std@@IEAAX_K@Z 000000018002a920 f i mainwindow_fusion.obj
 0001:000299d0       ?_Reserve@?$vector@UCluster@MainWindow_fusion@@V?$allocator@UCluster@MainWindow_fusion@@@std@@@std@@IEAAX_K@Z 000000018002a9d0 f i mainwindow_fusion.obj
 0001:00029a80       ??0?$_Pair_base@$$CBHV?$vector@HV?$allocator@H@std@@@std@@@std@@QEAA@AEBH$$QEAV?$vector@HV?$allocator@H@std@@@1@@Z 000000018002aa80 f i mainwindow_fusion.obj
 0001:00029ad0       ??$sort@V?$_Vector_iterator@V?$_Vector_val@EV?$allocator@E@std@@@std@@@std@@@std@@YAXV?$_Vector_iterator@V?$_Vector_val@EV?$allocator@E@std@@@std@@@0@0@Z 000000018002aad0 f i mainwindow_fusion.obj
 0001:00029af0       ??$_Dest_val@V?$allocator@U?$pair@$$CBHV?$vector@HV?$allocator@H@std@@@std@@@std@@@std@@U?$pair@$$CBHV?$vector@HV?$allocator@H@std@@@std@@@2@@std@@YAXAEAV?$allocator@U?$pair@$$CBHV?$vector@HV?$allocator@H@std@@@std@@@std@@@0@PEAU?$pair@$$CBHV?$vector@HV?$allocator@H@std@@@std@@@0@@Z 000000018002aaf0 f i mainwindow_fusion.obj
 0001:00029b20       ?_Insert@?$_Tree@V?$_Tmap_traits@HV?$vector@HV?$allocator@H@std@@@std@@U?$less@H@2@V?$allocator@U?$pair@$$CBHV?$vector@HV?$allocator@H@std@@@std@@@std@@@2@$0A@@std@@@std@@IEAA?AV?$_Tree_iterator@V?$_Tree_val@V?$_Tmap_traits@HV?$vector@HV?$allocator@H@std@@@std@@U?$less@H@2@V?$allocator@U?$pair@$$CBHV?$vector@HV?$allocator@H@std@@@std@@@std@@@2@$0A@@std@@@std@@@2@_NPEAU_Node@?$_Tree_nod@V?$_Tmap_traits@HV?$vector@HV?$allocator@H@std@@@std@@U?$less@H@2@V?$allocator@U?$pair@$$CBHV?$vector@HV?$allocator@H@std@@@std@@@std@@@2@$0A@@std@@@2@1@Z 000000018002ab20 f i mainwindow_fusion.obj
 0001:00029de0       ??$?0$$CBHV?$vector@HV?$allocator@H@std@@@std@@@?$pair@$$CBHV?$vector@HV?$allocator@H@std@@@std@@@std@@QEAA@$$QEAU01@@Z 000000018002ade0 f i mainwindow_fusion.obj
 0001:00029e30       ?PrepareStatistics@MainWindow_fusion@@QEAAXPEAPEAHPEAPEAPEAE1HHHHHHAEAM222AEAH333@Z 000000018002ae30 f   mainwindow_fusion.obj
 0001:0002a2a0       ?Fusion_GLSI@MainWindow_fusion@@QEAAXPEAPEAHAEAPEAPEAPEAEPEAPEAPEAE2HHHHHH@Z 000000018002b2a0 f   mainwindow_fusion.obj
 0001:0002a550       ?push_back@?$vector@UPoint@MainWindow_fusion@@V?$allocator@UPoint@MainWindow_fusion@@@std@@@std@@QEAAXAEBUPoint@MainWindow_fusion@@@Z 000000018002b550 f i mainwindow_fusion.obj
 0001:0002a620       ?push_back@?$vector@UCluster@MainWindow_fusion@@V?$allocator@UCluster@MainWindow_fusion@@@std@@@std@@QEAAXAEBUCluster@MainWindow_fusion@@@Z 000000018002b620 f i mainwindow_fusion.obj
 0001:0002a6e0       ?_Erase@?$_Tree@V?$_Tmap_traits@HV?$vector@HV?$allocator@H@std@@@std@@U?$less@H@2@V?$allocator@U?$pair@$$CBHV?$vector@HV?$allocator@H@std@@@std@@@std@@@2@$0A@@std@@@std@@IEAAXPEAU_Node@?$_Tree_nod@V?$_Tmap_traits@HV?$vector@HV?$allocator@H@std@@@std@@U?$less@H@2@V?$allocator@U?$pair@$$CBHV?$vector@HV?$allocator@H@std@@@std@@@std@@@2@$0A@@std@@@2@@Z 000000018002b6e0 f i mainwindow_fusion.obj
 0001:0002a760       ??0?$pair@$$CBHV?$vector@HV?$allocator@H@std@@@std@@@std@@QEAA@AEBH$$QEAV?$vector@HV?$allocator@H@std@@@1@@Z 000000018002b760 f i mainwindow_fusion.obj
 0001:0002a7b0       ?erase@?$_Tree@V?$_Tmap_traits@HV?$vector@HV?$allocator@H@std@@@std@@U?$less@H@2@V?$allocator@U?$pair@$$CBHV?$vector@HV?$allocator@H@std@@@std@@@std@@@2@$0A@@std@@@std@@QEAA?AV?$_Tree_iterator@V?$_Tree_val@V?$_Tmap_traits@HV?$vector@HV?$allocator@H@std@@@std@@U?$less@H@2@V?$allocator@U?$pair@$$CBHV?$vector@HV?$allocator@H@std@@@std@@@std@@@2@$0A@@std@@@std@@@2@V?$_Tree_const_iterator@V?$_Tree_val@V?$_Tmap_traits@HV?$vector@HV?$allocator@H@std@@@std@@U?$less@H@2@V?$allocator@U?$pair@$$CBHV?$vector@HV?$allocator@H@std@@@std@@@std@@@2@$0A@@std@@@std@@@2@@Z 000000018002b7b0 f i mainwindow_fusion.obj
 0001:0002ab30       ?_Linsert@?$_Tree@V?$_Tmap_traits@HV?$vector@HV?$allocator@H@std@@@std@@U?$less@H@2@V?$allocator@U?$pair@$$CBHV?$vector@HV?$allocator@H@std@@@std@@@std@@@2@$0A@@std@@@std@@QEAA?AU?$pair@V?$_Tree_iterator@V?$_Tree_val@V?$_Tmap_traits@HV?$vector@HV?$allocator@H@std@@@std@@U?$less@H@2@V?$allocator@U?$pair@$$CBHV?$vector@HV?$allocator@H@std@@@std@@@std@@@2@$0A@@std@@@std@@@std@@_N@2@PEAU_Node@?$_Tree_nod@V?$_Tmap_traits@HV?$vector@HV?$allocator@H@std@@@std@@U?$less@H@2@V?$allocator@U?$pair@$$CBHV?$vector@HV?$allocator@H@std@@@std@@@std@@@2@$0A@@std@@@2@_N@Z 000000018002bb30 f i mainwindow_fusion.obj
 0001:0002ac90       ?construct@?$allocator@U?$pair@$$CBHV?$vector@HV?$allocator@H@std@@@std@@@std@@@std@@QEAAXPEAU?$pair@$$CBHV?$vector@HV?$allocator@H@std@@@std@@@2@$$QEAU32@@Z 000000018002bc90 f i mainwindow_fusion.obj
 0001:0002ad00       ?on_pushButton_clicked@MainWindow_fusion@@AEAAXXZ 000000018002bd00 f   mainwindow_fusion.obj
 0001:0002c320       ?clear@?$_Tree@V?$_Tmap_traits@HV?$vector@HV?$allocator@H@std@@@std@@U?$less@H@2@V?$allocator@U?$pair@$$CBHV?$vector@HV?$allocator@H@std@@@std@@@std@@@2@$0A@@std@@@std@@QEAAXXZ 000000018002d320 f i mainwindow_fusion.obj
 0001:0002c360       ?erase@?$_Tree@V?$_Tmap_traits@HV?$vector@HV?$allocator@H@std@@@std@@U?$less@H@2@V?$allocator@U?$pair@$$CBHV?$vector@HV?$allocator@H@std@@@std@@@std@@@2@$0A@@std@@@std@@QEAA?AV?$_Tree_iterator@V?$_Tree_val@V?$_Tmap_traits@HV?$vector@HV?$allocator@H@std@@@std@@U?$less@H@2@V?$allocator@U?$pair@$$CBHV?$vector@HV?$allocator@H@std@@@std@@@std@@@2@$0A@@std@@@std@@@2@V?$_Tree_const_iterator@V?$_Tree_val@V?$_Tmap_traits@HV?$vector@HV?$allocator@H@std@@@std@@U?$less@H@2@V?$allocator@U?$pair@$$CBHV?$vector@HV?$allocator@H@std@@@std@@@std@@@2@$0A@@std@@@std@@@2@0@Z 000000018002d360 f i mainwindow_fusion.obj
 0001:0002c460       ?_Insert@?$_Tree@V?$_Tmap_traits@HV?$vector@HV?$allocator@H@std@@@std@@U?$less@H@2@V?$allocator@U?$pair@$$CBHV?$vector@HV?$allocator@H@std@@@std@@@std@@@2@$0A@@std@@@std@@QEAA?AV?$_Tree_iterator@V?$_Tree_val@V?$_Tmap_traits@HV?$vector@HV?$allocator@H@std@@@std@@U?$less@H@2@V?$allocator@U?$pair@$$CBHV?$vector@HV?$allocator@H@std@@@std@@@std@@@2@$0A@@std@@@std@@@2@V?$_Tree_const_iterator@V?$_Tree_val@V?$_Tmap_traits@HV?$vector@HV?$allocator@H@std@@@std@@U?$less@H@2@V?$allocator@U?$pair@$$CBHV?$vector@HV?$allocator@H@std@@@std@@@std@@@2@$0A@@std@@@std@@@2@PEAU_Node@?$_Tree_nod@V?$_Tmap_traits@HV?$vector@HV?$allocator@H@std@@@std@@U?$less@H@2@V?$allocator@U?$pair@$$CBHV?$vector@HV?$allocator@H@std@@@std@@@std@@@2@$0A@@std@@@2@@Z 000000018002d460 f i mainwindow_fusion.obj
 0001:0002c680       ??$_Cons_val@V?$allocator@U?$pair@$$CBHV?$vector@HV?$allocator@H@std@@@std@@@std@@@std@@U?$pair@$$CBHV?$vector@HV?$allocator@H@std@@@std@@@2@U32@@std@@YAXAEAV?$allocator@U?$pair@$$CBHV?$vector@HV?$allocator@H@std@@@std@@@std@@@0@PEAU?$pair@$$CBHV?$vector@HV?$allocator@H@std@@@std@@@0@$$QEAU20@@Z 000000018002d680 f i mainwindow_fusion.obj
 0001:0002c6f0       ?_Tidy@?$_Tree@V?$_Tmap_traits@HV?$vector@HV?$allocator@H@std@@@std@@U?$less@H@2@V?$allocator@U?$pair@$$CBHV?$vector@HV?$allocator@H@std@@@std@@@std@@@2@$0A@@std@@@std@@IEAAXXZ 000000018002d6f0 f i mainwindow_fusion.obj
 0001:0002c710       ??$_Buynode@U?$pair@$$CBHV?$vector@HV?$allocator@H@std@@@std@@@std@@@?$_Tree_val@V?$_Tmap_traits@HV?$vector@HV?$allocator@H@std@@@std@@U?$less@H@2@V?$allocator@U?$pair@$$CBHV?$vector@HV?$allocator@H@std@@@std@@@std@@@2@$0A@@std@@@std@@QEAAPEAU_Node@?$_Tree_nod@V?$_Tmap_traits@HV?$vector@HV?$allocator@H@std@@@std@@U?$less@H@2@V?$allocator@U?$pair@$$CBHV?$vector@HV?$allocator@H@std@@@std@@@std@@@2@$0A@@std@@@1@$$QEAU?$pair@$$CBHV?$vector@HV?$allocator@H@std@@@std@@@1@@Z 000000018002d710 f i mainwindow_fusion.obj
 0001:0002c790       ??1?$_Tree@V?$_Tmap_traits@HV?$vector@HV?$allocator@H@std@@@std@@U?$less@H@2@V?$allocator@U?$pair@$$CBHV?$vector@HV?$allocator@H@std@@@std@@@std@@@2@$0A@@std@@@std@@QEAA@XZ 000000018002d790 f i mainwindow_fusion.obj
 0001:0002c7d0       ??$insert@U?$pair@$$CBHV?$vector@HV?$allocator@H@std@@@std@@@std@@@?$_Tree@V?$_Tmap_traits@HV?$vector@HV?$allocator@H@std@@@std@@U?$less@H@2@V?$allocator@U?$pair@$$CBHV?$vector@HV?$allocator@H@std@@@std@@@std@@@2@$0A@@std@@@std@@QEAA?AV?$_Tree_iterator@V?$_Tree_val@V?$_Tmap_traits@HV?$vector@HV?$allocator@H@std@@@std@@U?$less@H@2@V?$allocator@U?$pair@$$CBHV?$vector@HV?$allocator@H@std@@@std@@@std@@@2@$0A@@std@@@std@@@1@V?$_Tree_const_iterator@V?$_Tree_val@V?$_Tmap_traits@HV?$vector@HV?$allocator@H@std@@@std@@U?$less@H@2@V?$allocator@U?$pair@$$CBHV?$vector@HV?$allocator@H@std@@@std@@@std@@@2@$0A@@std@@@std@@@1@$$QEAU?$pair@$$CBHV?$vector@HV?$allocator@H@std@@@std@@@1@@Z 000000018002d7d0 f i mainwindow_fusion.obj
 0001:0002c810       ??1?$map@HV?$vector@HV?$allocator@H@std@@@std@@U?$less@H@2@V?$allocator@U?$pair@$$CBHV?$vector@HV?$allocator@H@std@@@std@@@std@@@2@@std@@QEAA@XZ 000000018002d810 f i mainwindow_fusion.obj
 0001:0002c850       ??1MainWindow_fusion@@UEAA@XZ 000000018002d850 f   mainwindow_fusion.obj
 0001:0002c9d0       ??_EMainWindow_fusion@@WBA@EAAPEAXI@Z 000000018002d9d0 f i mainwindow_fusion.obj
 0001:0002c9e0       ??0?$map@HV?$vector@HV?$allocator@H@std@@@std@@U?$less@H@2@V?$allocator@U?$pair@$$CBHV?$vector@HV?$allocator@H@std@@@std@@@std@@@2@@std@@QEAA@XZ 000000018002d9e0 f i mainwindow_fusion.obj
 0001:0002ca70       ??A?$map@HV?$vector@HV?$allocator@H@std@@@std@@U?$less@H@2@V?$allocator@U?$pair@$$CBHV?$vector@HV?$allocator@H@std@@@std@@@std@@@2@@std@@QEAAAEAV?$vector@HV?$allocator@H@std@@@1@AEBH@Z 000000018002da70 f i mainwindow_fusion.obj
 0001:0002cb40       ??0MainWindow_fusion@@QEAA@PEAVQWidget@@@Z 000000018002db40 f   mainwindow_fusion.obj
 0001:0002cd40       ??_EMainWindow_fusion@@UEAAPEAXI@Z 000000018002dd40 f i mainwindow_fusion.obj
 0001:0002cd40       ??_GMainWindow_fusion@@UEAAPEAXI@Z 000000018002dd40 f i mainwindow_fusion.obj
 0001:0002cd70       ?classification@MainWindow_fusion@@QEAAXXZ 000000018002dd70 f   mainwindow_fusion.obj
 0001:0002df10       ?insertvalue@MainWindow_fusion@@QEAAXHHHPEAPEAHH@Z 000000018002ef10 f   mainwindow_fusion.obj
 0001:0002e260       ?on_pushButton_6_clicked@MainWindow_fusion@@AEAAXXZ 000000018002f260 f   mainwindow_fusion.obj
 0001:0002e310       ?on_pushButton_ms_clicked@MainWindow_fusion@@AEAAXXZ 000000018002f310 f   mainwindow_fusion.obj
 0001:0002f0c0       ??0?$QFlags@W4ImageConversionFlag@Qt@@@@QEAA@W4ImageConversionFlag@Qt@@@Z 00000001800300c0 f i pain2img.obj
 0001:0002f0d0       ?paintEvent@pain2img@@MEAAXPEAVQPaintEvent@@@Z 00000001800300d0 f   pain2img.obj
 0001:0002f300       ??_GQImage@@UEAAPEAXI@Z    0000000180030300 f i pain2img.obj
 0001:0002f300       ??_EQImage@@UEAAPEAXI@Z    0000000180030300 f i pain2img.obj
 0001:0002f330       ??1pain2img@@UEAA@XZ       0000000180030330 f   pain2img.obj
 0001:0002f3d0       ??_Epain2img@@WBA@EAAPEAXI@Z 00000001800303d0 f i pain2img.obj
 0001:0002f3e0       ??_Epain2img@@UEAAPEAXI@Z  00000001800303e0 f i pain2img.obj
 0001:0002f3e0       ??_Gpain2img@@UEAAPEAXI@Z  00000001800303e0 f i pain2img.obj
 0001:0002f410       ??0pain2img@@QEAA@V?$vector@HV?$allocator@H@std@@@std@@PEAPEAPEAHHHHPEADPEAVQWidget@@@Z 0000000180030410 f   pain2img.obj
 0001:0002f510       ?mouseReleaseEvent@paintbox@@MEAAXPEAVQMouseEvent@@@Z 0000000180030510 f   paintbox.obj
 0001:0002f520       ?paintEvent@paintbox@@MEAAXPEAVQPaintEvent@@@Z 0000000180030520 f   paintbox.obj
 0001:0002f600       ??0paintbox@@QEAA@V?$basic_string@DU?$char_traits@D@std@@V?$allocator@D@2@@std@@HHPEAVQWidget@@@Z 0000000180030600 f   paintbox.obj
 0001:0002f720       ??_Epaintbox@@WBA@EAAPEAXI@Z 0000000180030720 f i paintbox.obj
 0001:0002f730       ??1paintbox@@UEAA@XZ       0000000180030730 f i paintbox.obj
 0001:0002f770       ??_Gpaintbox@@UEAAPEAXI@Z  0000000180030770 f i paintbox.obj
 0001:0002f770       ??_Epaintbox@@UEAAPEAXI@Z  0000000180030770 f i paintbox.obj
 0001:0002f7d0       ?paintEvent@Paintbox2@@MEAAXPEAVQPaintEvent@@@Z 00000001800307d0 f   paintbox2.obj
 0001:0002fa20       ??1Paintbox2@@UEAA@XZ      0000000180030a20 f   paintbox2.obj
 0001:0002fa80       ??_EPaintbox2@@WBA@EAAPEAXI@Z 0000000180030a80 f i paintbox2.obj
 0001:0002fa90       ??_GPaintbox2@@UEAAPEAXI@Z 0000000180030a90 f i paintbox2.obj
 0001:0002fa90       ??_EPaintbox2@@UEAAPEAXI@Z 0000000180030a90 f i paintbox2.obj
 0001:0002fb10       ??0Paintbox2@@QEAA@HV?$vector@HV?$allocator@H@std@@@std@@PEAPEAPEAHHHPEADHPEAVQWidget@@@Z 0000000180030b10 f   paintbox2.obj
 0001:0002fc20       ?compare@?$char_traits@D@std@@SAHPEBD0_K@Z 0000000180030c20 f i ModuleManager.obj
 0001:0002fc30       ?setService@ModuleManager@@QEAAXPEAVExternal@@@Z 0000000180030c30 f i ModuleManager.obj
 0001:0002fc40       opticks_get_module_descriptor 0000000180030c40 f   ModuleManager.obj
 0001:0002fc50       ?getTotalPlugIns@ModuleManager@@SAIXZ 0000000180030c50 f   ModuleManager.obj
 0001:0002fc60       ?getPlugIn@ModuleManager@@QEAAPEAVPlugIn@@I@Z 0000000180030c60 f   ModuleManager.obj
 0001:0002fc70       ?size@?$vector@U?$pair@V?$basic_string@DU?$char_traits@D@std@@V?$allocator@D@2@@std@@PEAVPlugInFactory@@@std@@V?$allocator@U?$pair@V?$basic_string@DU?$char_traits@D@std@@V?$allocator@D@2@@std@@PEAVPlugInFactory@@@std@@@2@@std@@QEBA_KXZ 0000000180030c70 f i ModuleManager.obj
 0001:0002fca0       ??A?$vector@U?$pair@V?$basic_string@DU?$char_traits@D@std@@V?$allocator@D@2@@std@@PEAVPlugInFactory@@@std@@V?$allocator@U?$pair@V?$basic_string@DU?$char_traits@D@std@@V?$allocator@D@2@@std@@PEAVPlugInFactory@@@std@@@2@@std@@QEAAAEAU?$pair@V?$basic_string@DU?$char_traits@D@std@@V?$allocator@D@2@@std@@PEAVPlugInFactory@@@1@_K@Z 0000000180030ca0 f i ModuleManager.obj
 0001:0002fcb0       ?_Inside@?$vector@U?$pair@V?$basic_string@DU?$char_traits@D@std@@V?$allocator@D@2@@std@@PEAVPlugInFactory@@@std@@V?$allocator@U?$pair@V?$basic_string@DU?$char_traits@D@std@@V?$allocator@D@2@@std@@PEAVPlugInFactory@@@std@@@2@@std@@IEBA_NPEBU?$pair@V?$basic_string@DU?$char_traits@D@std@@V?$allocator@D@2@@std@@PEAVPlugInFactory@@@2@@Z 0000000180030cb0 f i ModuleManager.obj
 0001:0002fcd0       ?_Orphan_range@?$vector@U?$pair@V?$basic_string@DU?$char_traits@D@std@@V?$allocator@D@2@@std@@PEAVPlugInFactory@@@std@@V?$allocator@U?$pair@V?$basic_string@DU?$char_traits@D@std@@V?$allocator@D@2@@std@@PEAVPlugInFactory@@@std@@@2@@std@@IEBAXPEAU?$pair@V?$basic_string@DU?$char_traits@D@std@@V?$allocator@D@2@@std@@PEAVPlugInFactory@@@2@0@Z 0000000180030cd0 f i ModuleManager.obj
 0001:0002fce0       ??1?$_Vector_val@U?$pair@V?$basic_string@DU?$char_traits@D@std@@V?$allocator@D@2@@std@@PEAVPlugInFactory@@@std@@V?$allocator@U?$pair@V?$basic_string@DU?$char_traits@D@std@@V?$allocator@D@2@@std@@PEAVPlugInFactory@@@std@@@2@@std@@QEAA@XZ 0000000180030ce0 f i ModuleManager.obj
 0001:0002fcf0       ??0?$allocator@U?$pair@V?$basic_string@DU?$char_traits@D@std@@V?$allocator@D@2@@std@@PEAVPlugInFactory@@@std@@@std@@QEAA@XZ 0000000180030cf0 f i ModuleManager.obj
 0001:0002fd00       ??0?$_String_const_iterator@DU?$char_traits@D@std@@V?$allocator@D@2@@std@@QEAA@PEBDPEBU_Container_base0@1@@Z 0000000180030d00 f i ModuleManager.obj
 0001:0002fd10       ?capacity@?$vector@U?$pair@V?$basic_string@DU?$char_traits@D@std@@V?$allocator@D@2@@std@@PEAVPlugInFactory@@@std@@V?$allocator@U?$pair@V?$basic_string@DU?$char_traits@D@std@@V?$allocator@D@2@@std@@PEAVPlugInFactory@@@std@@@2@@std@@QEBA_KXZ 0000000180030d10 f i ModuleManager.obj
 0001:0002fd40       ?_Xlen@?$vector@U?$pair@V?$basic_string@DU?$char_traits@D@std@@V?$allocator@D@2@@std@@PEAVPlugInFactory@@@std@@V?$allocator@U?$pair@V?$basic_string@DU?$char_traits@D@std@@V?$allocator@D@2@@std@@PEAVPlugInFactory@@@std@@@2@@std@@IEBAXXZ 0000000180030d40 f i ModuleManager.obj
 0001:0002fd60       ??0?$allocator@U?$pair@V?$basic_string@DU?$char_traits@D@std@@V?$allocator@D@2@@std@@PEAVPlugInFactory@@@std@@@std@@QEAA@AEBV01@@Z 0000000180030d60 f i ModuleManager.obj
 0001:0002fd70       ?deallocate@?$allocator@U?$pair@V?$basic_string@DU?$char_traits@D@std@@V?$allocator@D@2@@std@@PEAVPlugInFactory@@@std@@@std@@QEAAXPEAU?$pair@V?$basic_string@DU?$char_traits@D@std@@V?$allocator@D@2@@std@@PEAVPlugInFactory@@@2@_K@Z 0000000180030d70 f i ModuleManager.obj
 0001:0002fd80       ??0?$_Vector_const_iterator@V?$_Vector_val@U?$pair@V?$basic_string@DU?$char_traits@D@std@@V?$allocator@D@2@@std@@PEAVPlugInFactory@@@std@@V?$allocator@U?$pair@V?$basic_string@DU?$char_traits@D@std@@V?$allocator@D@2@@std@@PEAVPlugInFactory@@@std@@@2@@std@@@std@@QEAA@PEAU?$pair@V?$basic_string@DU?$char_traits@D@std@@V?$allocator@D@2@@std@@PEAVPlugInFactory@@@1@PEBU_Container_base0@1@@Z 0000000180030d80 f i ModuleManager.obj
 0001:0002fd90       ?max_size@?$allocator@U?$pair@V?$basic_string@DU?$char_traits@D@std@@V?$allocator@D@2@@std@@PEAVPlugInFactory@@@std@@@std@@QEBA_KXZ 0000000180030d90 f i ModuleManager.obj
 0001:0002fda0       ??$addressof@U?$pair@V?$basic_string@DU?$char_traits@D@std@@V?$allocator@D@2@@std@@PEAVPlugInFactory@@@std@@@std@@YAPEAU?$pair@V?$basic_string@DU?$char_traits@D@std@@V?$allocator@D@2@@std@@PEAVPlugInFactory@@@0@AEAU10@@Z 0000000180030da0 f i ModuleManager.obj
 0001:0002fdb0       ??$forward@U?$pair@V?$basic_string@DU?$char_traits@D@std@@V?$allocator@D@2@@std@@PEAVPlugInFactory@@@std@@@std@@YA$$QEAU?$pair@V?$basic_string@DU?$char_traits@D@std@@V?$allocator@D@2@@std@@PEAVPlugInFactory@@@0@AEAU10@@Z 0000000180030db0 f i ModuleManager.obj
 0001:0002fdc0       ??$_Allocate@U?$pair@V?$basic_string@DU?$char_traits@D@std@@V?$allocator@D@2@@std@@PEAVPlugInFactory@@@std@@@std@@YAPEAU?$pair@V?$basic_string@DU?$char_traits@D@std@@V?$allocator@D@2@@std@@PEAVPlugInFactory@@@0@_KPEAU10@@Z 0000000180030dc0 f i ModuleManager.obj
 0001:0002fe30       ?_Compat@?$_Vector_const_iterator@V?$_Vector_val@U?$pair@V?$basic_string@DU?$char_traits@D@std@@V?$allocator@D@2@@std@@PEAVPlugInFactory@@@std@@V?$allocator@U?$pair@V?$basic_string@DU?$char_traits@D@std@@V?$allocator@D@2@@std@@PEAVPlugInFactory@@@std@@@2@@std@@@std@@QEBAXAEBV12@@Z 0000000180030e30 f i ModuleManager.obj
 0001:0002fe40       ??$move@AEAV?$basic_string@DU?$char_traits@D@std@@V?$allocator@D@2@@std@@@std@@YA$$QEAV?$basic_string@DU?$char_traits@D@std@@V?$allocator@D@2@@0@AEAV10@@Z 0000000180030e40 f i ModuleManager.obj
 0001:0002fe50       ??$_Count@PEADD@std@@YA_JPEAD0AEBD@Z 0000000180030e50 f i ModuleManager.obj
 0001:0002fe80       ??$forward@AEAPEAVPlugInFactory@@@std@@YAAEAPEAVPlugInFactory@@AEAPEAV1@@Z 0000000180030e80 f i ModuleManager.obj
 0001:0002fe90       ??$_Ptr_cat@U?$pair@V?$basic_string@DU?$char_traits@D@std@@V?$allocator@D@2@@std@@PEAVPlugInFactory@@@std@@U12@@std@@YA?AU_Nonscalar_ptr_iterator_tag@0@PEAU?$pair@V?$basic_string@DU?$char_traits@D@std@@V?$allocator@D@2@@std@@PEAVPlugInFactory@@@0@0@Z 0000000180030e90 f i ModuleManager.obj
 0001:0002fea0       ?_Unchecked@?$_String_iterator@DU?$char_traits@D@std@@V?$allocator@D@2@@std@@QEBAPEADXZ 0000000180030ea0 f i ModuleManager.obj
 0001:0002feb0       ?_Unchecked@?$_Vector_iterator@V?$_Vector_val@U?$pair@V?$basic_string@DU?$char_traits@D@std@@V?$allocator@D@2@@std@@PEAVPlugInFactory@@@std@@V?$allocator@U?$pair@V?$basic_string@DU?$char_traits@D@std@@V?$allocator@D@2@@std@@PEAVPlugInFactory@@@std@@@2@@std@@@std@@QEBAPEAU?$pair@V?$basic_string@DU?$char_traits@D@std@@V?$allocator@D@2@@std@@PEAVPlugInFactory@@@2@XZ 0000000180030eb0 f i ModuleManager.obj
 0001:0002fec0       ??$forward@PEAVPlugInFactory@@@std@@YA$$QEAPEAVPlugInFactory@@AEAPEAV1@@Z 0000000180030ec0 f i ModuleManager.obj
 0001:0002fed0       ??$_Val_type@PEAU?$pair@V?$basic_string@DU?$char_traits@D@std@@V?$allocator@D@2@@std@@PEAVPlugInFactory@@@std@@@std@@YAPEAU?$pair@V?$basic_string@DU?$char_traits@D@std@@V?$allocator@D@2@@std@@PEAVPlugInFactory@@@0@PEAU10@@Z 0000000180030ed0 f i ModuleManager.obj
 0001:0002fee0       ??$move@AEAPEAVPlugInFactory@@@std@@YA$$QEAPEAVPlugInFactory@@AEAPEAV1@@Z 0000000180030ee0 f i ModuleManager.obj
 0001:0002fef0       ??$_Unchecked@PEAU?$pair@V?$basic_string@DU?$char_traits@D@std@@V?$allocator@D@2@@std@@PEAVPlugInFactory@@@std@@@std@@YAPEAU?$pair@V?$basic_string@DU?$char_traits@D@std@@V?$allocator@D@2@@std@@PEAVPlugInFactory@@@0@PEAU10@@Z 0000000180030ef0 f i ModuleManager.obj
 0001:0002ff00       ??$_Dist_type@PEAU?$pair@V?$basic_string@DU?$char_traits@D@std@@V?$allocator@D@2@@std@@PEAVPlugInFactory@@@std@@@std@@YAPEA_JPEAU?$pair@V?$basic_string@DU?$char_traits@D@std@@V?$allocator@D@2@@std@@PEAVPlugInFactory@@@0@@Z 0000000180030f00 f i ModuleManager.obj
 0001:0002ff10       ??$forward@AEAPEAU?$pair@V?$basic_string@DU?$char_traits@D@std@@V?$allocator@D@2@@std@@PEAVPlugInFactory@@@std@@@std@@YAAEAPEAU?$pair@V?$basic_string@DU?$char_traits@D@std@@V?$allocator@D@2@@std@@PEAVPlugInFactory@@@0@AEAPEAU10@@Z 0000000180030f10 f i ModuleManager.obj
 0001:0002ff20       ??$?0AEAPEAU?$pair@V?$basic_string@DU?$char_traits@D@std@@V?$allocator@D@2@@std@@PEAVPlugInFactory@@@std@@AEAPEAU01@@?$_Pair_base@PEAU?$pair@V?$basic_string@DU?$char_traits@D@std@@V?$allocator@D@2@@std@@PEAVPlugInFactory@@@std@@PEAU12@@std@@QEAA@AEAPEAU?$pair@V?$basic_string@DU?$char_traits@D@std@@V?$allocator@D@2@@std@@PEAVPlugInFactory@@@1@0@Z 0000000180030f20 f i ModuleManager.obj
 0001:0002ff40       ??$_Move@AEAU?$pair@V?$basic_string@DU?$char_traits@D@std@@V?$allocator@D@2@@std@@PEAVPlugInFactory@@@std@@@std@@YA$$QEAU?$pair@V?$basic_string@DU?$char_traits@D@std@@V?$allocator@D@2@@std@@PEAVPlugInFactory@@@0@AEAU10@@Z 0000000180030f40 f i ModuleManager.obj
 0001:0002ff50       ??$move@AEAU?$pair@V?$basic_string@DU?$char_traits@D@std@@V?$allocator@D@2@@std@@PEAVPlugInFactory@@@std@@@std@@YA$$QEAU?$pair@V?$basic_string@DU?$char_traits@D@std@@V?$allocator@D@2@@std@@PEAVPlugInFactory@@@0@AEAU10@@Z 0000000180030f50 f i ModuleManager.obj
 0001:0002ff60       ??$_Move@AEAPEAVPlugInFactory@@@std@@YA$$QEAPEAVPlugInFactory@@AEAPEAV1@@Z 0000000180030f60 f i ModuleManager.obj
 0001:0002ff70       ??$_Move@AEAT_Bxty@?$_String_val@DV?$allocator@D@std@@@std@@@std@@YA$$QEAT_Bxty@?$_String_val@DV?$allocator@D@std@@@0@AEAT120@@Z 0000000180030f70 f i ModuleManager.obj
 0001:0002ff80       ??$_Move@AEA_K@std@@YA$$QEA_KAEA_K@Z 0000000180030f80 f i ModuleManager.obj
 0001:0002ff90       ??D?$_Vector_iterator@V?$_Vector_val@V?$basic_string@DU?$char_traits@D@std@@V?$allocator@D@2@@std@@V?$allocator@V?$basic_string@DU?$char_traits@D@std@@V?$allocator@D@2@@std@@@2@@std@@@std@@QEBAAEAV?$basic_string@DU?$char_traits@D@std@@V?$allocator@D@2@@1@XZ 0000000180030f90 f i ModuleManager.obj
 0001:0002ffa0       ??E?$_Vector_iterator@V?$_Vector_val@V?$basic_string@DU?$char_traits@D@std@@V?$allocator@D@2@@std@@V?$allocator@V?$basic_string@DU?$char_traits@D@std@@V?$allocator@D@2@@std@@@2@@std@@@std@@QEAAAEAV01@XZ 0000000180030fa0 f i ModuleManager.obj
 0001:0002ffb0       ?compare@?$basic_string@DU?$char_traits@D@std@@V?$allocator@D@2@@std@@QEBAH_K0PEBD0@Z 0000000180030fb0 f i ModuleManager.obj
 0001:00030040       ??0?$_String_iterator@DU?$char_traits@D@std@@V?$allocator@D@2@@std@@QEAA@PEADPEBU_Container_base0@1@@Z 0000000180031040 f i ModuleManager.obj
 0001:00030050       ??0?$_Vector_val@U?$pair@V?$basic_string@DU?$char_traits@D@std@@V?$allocator@D@2@@std@@PEAVPlugInFactory@@@std@@V?$allocator@U?$pair@V?$basic_string@DU?$char_traits@D@std@@V?$allocator@D@2@@std@@PEAVPlugInFactory@@@std@@@2@@std@@QEAA@V?$allocator@U?$pair@V?$basic_string@DU?$char_traits@D@std@@V?$allocator@D@2@@std@@PEAVPlugInFactory@@@std@@@1@@Z 0000000180031050 f i ModuleManager.obj
 0001:00030070       ??0?$_Vector_iterator@V?$_Vector_val@V?$basic_string@DU?$char_traits@D@std@@V?$allocator@D@2@@std@@V?$allocator@V?$basic_string@DU?$char_traits@D@std@@V?$allocator@D@2@@std@@@2@@std@@@std@@QEAA@PEAV?$basic_string@DU?$char_traits@D@std@@V?$allocator@D@2@@1@PEBU_Container_base0@1@@Z 0000000180031070 f i ModuleManager.obj
 0001:00030080       ??0?$_Vector_iterator@V?$_Vector_val@U?$pair@V?$basic_string@DU?$char_traits@D@std@@V?$allocator@D@2@@std@@PEAVPlugInFactory@@@std@@V?$allocator@U?$pair@V?$basic_string@DU?$char_traits@D@std@@V?$allocator@D@2@@std@@PEAVPlugInFactory@@@std@@@2@@std@@@std@@QEAA@PEAU?$pair@V?$basic_string@DU?$char_traits@D@std@@V?$allocator@D@2@@std@@PEAVPlugInFactory@@@1@PEBU_Container_base0@1@@Z 0000000180031080 f i ModuleManager.obj
 0001:00030090       ?max_size@?$vector@U?$pair@V?$basic_string@DU?$char_traits@D@std@@V?$allocator@D@2@@std@@PEAVPlugInFactory@@@std@@V?$allocator@U?$pair@V?$basic_string@DU?$char_traits@D@std@@V?$allocator@D@2@@std@@PEAVPlugInFactory@@@std@@@2@@std@@QEBA_KXZ 0000000180031090 f i ModuleManager.obj
 0001:000300a0       ?_Grow_to@?$vector@U?$pair@V?$basic_string@DU?$char_traits@D@std@@V?$allocator@D@2@@std@@PEAVPlugInFactory@@@std@@V?$allocator@U?$pair@V?$basic_string@DU?$char_traits@D@std@@V?$allocator@D@2@@std@@PEAVPlugInFactory@@@std@@@2@@std@@IEBA_K_K@Z 00000001800310a0 f i ModuleManager.obj
 0001:00030100       ?allocate@?$allocator@U?$pair@V?$basic_string@DU?$char_traits@D@std@@V?$allocator@D@2@@std@@PEAVPlugInFactory@@@std@@@std@@QEAAPEAU?$pair@V?$basic_string@DU?$char_traits@D@std@@V?$allocator@D@2@@std@@PEAVPlugInFactory@@@2@_K@Z 0000000180031100 f i ModuleManager.obj
 0001:00030170       ??G?$_Vector_const_iterator@V?$_Vector_val@U?$pair@V?$basic_string@DU?$char_traits@D@std@@V?$allocator@D@2@@std@@PEAVPlugInFactory@@@std@@V?$allocator@U?$pair@V?$basic_string@DU?$char_traits@D@std@@V?$allocator@D@2@@std@@PEAVPlugInFactory@@@std@@@2@@std@@@std@@QEBA_JAEBV01@@Z 0000000180031170 f i ModuleManager.obj
 0001:000301a0       ??$_Unchecked@DU?$char_traits@D@std@@V?$allocator@D@2@@std@@YAPEADV?$_String_iterator@DU?$char_traits@D@std@@V?$allocator@D@2@@0@@Z 00000001800311a0 f i ModuleManager.obj
 0001:000301b0       ??$_Unchecked@V?$_Vector_val@U?$pair@V?$basic_string@DU?$char_traits@D@std@@V?$allocator@D@2@@std@@PEAVPlugInFactory@@@std@@V?$allocator@U?$pair@V?$basic_string@DU?$char_traits@D@std@@V?$allocator@D@2@@std@@PEAVPlugInFactory@@@std@@@2@@std@@@std@@YAPEAU?$pair@V?$basic_string@DU?$char_traits@D@std@@V?$allocator@D@2@@std@@PEAVPlugInFactory@@@0@V?$_Vector_iterator@V?$_Vector_val@U?$pair@V?$basic_string@DU?$char_traits@D@std@@V?$allocator@D@2@@std@@PEAVPlugInFactory@@@std@@V?$allocator@U?$pair@V?$basic_string@DU?$char_traits@D@std@@V?$allocator@D@2@@std@@PEAVPlugInFactory@@@std@@@2@@std@@@0@@Z 00000001800311b0 f i ModuleManager.obj
 0001:000301c0       ??$?0AEAPEAU?$pair@V?$basic_string@DU?$char_traits@D@std@@V?$allocator@D@2@@std@@PEAVPlugInFactory@@@std@@AEAPEAU01@@?$pair@PEAU?$pair@V?$basic_string@DU?$char_traits@D@std@@V?$allocator@D@2@@std@@PEAVPlugInFactory@@@std@@PEAU12@@std@@QEAA@AEAPEAU?$pair@V?$basic_string@DU?$char_traits@D@std@@V?$allocator@D@2@@std@@PEAVPlugInFactory@@@1@0@Z 00000001800311c0 f i ModuleManager.obj
 0001:000301e0       ??$swap@PEAVPlugInFactory@@@std@@YAXAEAPEAVPlugInFactory@@0@Z 00000001800311e0 f i ModuleManager.obj
 0001:000301f0       ??$swap@T_Bxty@?$_String_val@DV?$allocator@D@std@@@std@@@std@@YAXAEAT_Bxty@?$_String_val@DV?$allocator@D@std@@@0@0@Z 00000001800311f0 f i ModuleManager.obj
 0001:00030210       ??$swap@_K@std@@YAXAEA_K0@Z 0000000180031210 f i ModuleManager.obj
 0001:00030220       ?begin@?$basic_string@DU?$char_traits@D@std@@V?$allocator@D@2@@std@@QEAA?AV?$_String_iterator@DU?$char_traits@D@std@@V?$allocator@D@2@@2@XZ 0000000180031220 f i ModuleManager.obj
 0001:00030240       ?end@?$basic_string@DU?$char_traits@D@std@@V?$allocator@D@2@@std@@QEAA?AV?$_String_iterator@DU?$char_traits@D@std@@V?$allocator@D@2@@2@XZ 0000000180031240 f i ModuleManager.obj
 0001:00030270       ?compare@?$basic_string@DU?$char_traits@D@std@@V?$allocator@D@2@@std@@QEBAHAEBV12@@Z 0000000180031270 f i ModuleManager.obj
 0001:000302f0       ?begin@?$vector@V?$basic_string@DU?$char_traits@D@std@@V?$allocator@D@2@@std@@V?$allocator@V?$basic_string@DU?$char_traits@D@std@@V?$allocator@D@2@@std@@@2@@std@@QEAA?AV?$_Vector_iterator@V?$_Vector_val@V?$basic_string@DU?$char_traits@D@std@@V?$allocator@D@2@@std@@V?$allocator@V?$basic_string@DU?$char_traits@D@std@@V?$allocator@D@2@@std@@@2@@std@@@2@XZ 00000001800312f0 f i ModuleManager.obj
 0001:00030300       ?end@?$vector@V?$basic_string@DU?$char_traits@D@std@@V?$allocator@D@2@@std@@V?$allocator@V?$basic_string@DU?$char_traits@D@std@@V?$allocator@D@2@@std@@@2@@std@@QEAA?AV?$_Vector_iterator@V?$_Vector_val@V?$basic_string@DU?$char_traits@D@std@@V?$allocator@D@2@@std@@V?$allocator@V?$basic_string@DU?$char_traits@D@std@@V?$allocator@D@2@@std@@@2@@std@@@2@XZ 0000000180031300 f i ModuleManager.obj
 0001:00030310       ??0?$vector@U?$pair@V?$basic_string@DU?$char_traits@D@std@@V?$allocator@D@2@@std@@PEAVPlugInFactory@@@std@@V?$allocator@U?$pair@V?$basic_string@DU?$char_traits@D@std@@V?$allocator@D@2@@std@@PEAVPlugInFactory@@@std@@@2@@std@@QEAA@XZ 0000000180031310 f i ModuleManager.obj
 0001:00030330       ?begin@?$vector@U?$pair@V?$basic_string@DU?$char_traits@D@std@@V?$allocator@D@2@@std@@PEAVPlugInFactory@@@std@@V?$allocator@U?$pair@V?$basic_string@DU?$char_traits@D@std@@V?$allocator@D@2@@std@@PEAVPlugInFactory@@@std@@@2@@std@@QEAA?AV?$_Vector_iterator@V?$_Vector_val@U?$pair@V?$basic_string@DU?$char_traits@D@std@@V?$allocator@D@2@@std@@PEAVPlugInFactory@@@std@@V?$allocator@U?$pair@V?$basic_string@DU?$char_traits@D@std@@V?$allocator@D@2@@std@@PEAVPlugInFactory@@@std@@@2@@std@@@2@XZ 0000000180031330 f i ModuleManager.obj
 0001:00030340       ?end@?$vector@U?$pair@V?$basic_string@DU?$char_traits@D@std@@V?$allocator@D@2@@std@@PEAVPlugInFactory@@@std@@V?$allocator@U?$pair@V?$basic_string@DU?$char_traits@D@std@@V?$allocator@D@2@@std@@PEAVPlugInFactory@@@std@@@2@@std@@QEAA?AV?$_Vector_iterator@V?$_Vector_val@U?$pair@V?$basic_string@DU?$char_traits@D@std@@V?$allocator@D@2@@std@@PEAVPlugInFactory@@@std@@V?$allocator@U?$pair@V?$basic_string@DU?$char_traits@D@std@@V?$allocator@D@2@@std@@PEAVPlugInFactory@@@std@@@2@@std@@@2@XZ 0000000180031340 f i ModuleManager.obj
 0001:00030350       ??$count@V?$_String_iterator@DU?$char_traits@D@std@@V?$allocator@D@2@@std@@D@std@@YA_JV?$_String_iterator@DU?$char_traits@D@std@@V?$allocator@D@2@@0@0AEBD@Z 0000000180031350 f i ModuleManager.obj
 0001:00030380       ??$?MDU?$char_traits@D@std@@V?$allocator@D@1@@std@@YA_NAEBV?$basic_string@DU?$char_traits@D@std@@V?$allocator@D@2@@0@0@Z 0000000180031380 f i ModuleManager.obj
 0001:000303a0       ??G?$_Vector_iterator@V?$_Vector_val@U?$pair@V?$basic_string@DU?$char_traits@D@std@@V?$allocator@D@2@@std@@PEAVPlugInFactory@@@std@@V?$allocator@U?$pair@V?$basic_string@DU?$char_traits@D@std@@V?$allocator@D@2@@std@@PEAVPlugInFactory@@@std@@@2@@std@@@std@@QEBA_JAEBV?$_Vector_const_iterator@V?$_Vector_val@U?$pair@V?$basic_string@DU?$char_traits@D@std@@V?$allocator@D@2@@std@@PEAVPlugInFactory@@@std@@V?$allocator@U?$pair@V?$basic_string@DU?$char_traits@D@std@@V?$allocator@D@2@@std@@PEAVPlugInFactory@@@std@@@2@@std@@@1@@Z 00000001800313a0 f i ModuleManager.obj
 0001:000303d0       ??$_Swap_adl@PEAVPlugInFactory@@@std@@YAXAEAPEAVPlugInFactory@@0@Z 00000001800313d0 f i ModuleManager.obj
 0001:000303e0       ??1?$_Pair_base@V?$basic_string@DU?$char_traits@D@std@@V?$allocator@D@2@@std@@PEAVPlugInFactory@@@std@@QEAA@XZ 00000001800313e0 f i ModuleManager.obj
 0001:00030420       ??1?$pair@V?$basic_string@DU?$char_traits@D@std@@V?$allocator@D@2@@std@@PEAVPlugInFactory@@@std@@QEAA@XZ 0000000180031420 f i ModuleManager.obj
 0001:00030460       ??_G?$pair@V?$basic_string@DU?$char_traits@D@std@@V?$allocator@D@2@@std@@PEAVPlugInFactory@@@std@@QEAAPEAXI@Z 0000000180031460 f i ModuleManager.obj
 0001:000304b0       ??RFactoryPtrComparator@@QEAA_NU?$pair@V?$basic_string@DU?$char_traits@D@std@@V?$allocator@D@2@@std@@PEAVPlugInFactory@@@std@@0@Z 00000001800314b0 f i ModuleManager.obj
 0001:00030630       ??$?0AEAV?$basic_string@DU?$char_traits@D@std@@V?$allocator@D@2@@std@@AEAPEAVPlugInFactory@@@?$_Pair_base@V?$basic_string@DU?$char_traits@D@std@@V?$allocator@D@2@@std@@PEAVPlugInFactory@@@std@@QEAA@AEAV?$basic_string@DU?$char_traits@D@std@@V?$allocator@D@2@@1@AEAPEAVPlugInFactory@@@Z 0000000180031630 f i ModuleManager.obj
 0001:00030680       ??$?0V?$basic_string@DU?$char_traits@D@std@@V?$allocator@D@2@@std@@PEAVPlugInFactory@@@?$pair@V?$basic_string@DU?$char_traits@D@std@@V?$allocator@D@2@@std@@PEAVPlugInFactory@@@std@@QEAA@AEAU01@@Z 0000000180031680 f i ModuleManager.obj
 0001:000306d0       ??$_Destroy@U?$pair@V?$basic_string@DU?$char_traits@D@std@@V?$allocator@D@2@@std@@PEAVPlugInFactory@@@std@@@std@@YAXPEAU?$pair@V?$basic_string@DU?$char_traits@D@std@@V?$allocator@D@2@@std@@PEAVPlugInFactory@@@0@@Z 00000001800316d0 f i ModuleManager.obj
 0001:00030710       ??$?0AEAV?$basic_string@DU?$char_traits@D@std@@V?$allocator@D@2@@std@@AEAPEAVPlugInFactory@@@?$pair@V?$basic_string@DU?$char_traits@D@std@@V?$allocator@D@2@@std@@PEAVPlugInFactory@@@std@@QEAA@AEAV?$basic_string@DU?$char_traits@D@std@@V?$allocator@D@2@@1@AEAPEAVPlugInFactory@@@Z 0000000180031710 f i ModuleManager.obj
 0001:00030760       ??4?$basic_string@DU?$char_traits@D@std@@V?$allocator@D@2@@std@@QEAAAEAV01@$$QEAV01@@Z 0000000180031760 f i ModuleManager.obj
 0001:00030770       ?destroy@?$allocator@U?$pair@V?$basic_string@DU?$char_traits@D@std@@V?$allocator@D@2@@std@@PEAVPlugInFactory@@@std@@@std@@QEAAXPEAU?$pair@V?$basic_string@DU?$char_traits@D@std@@V?$allocator@D@2@@std@@PEAVPlugInFactory@@@2@@Z 0000000180031770 f i ModuleManager.obj
 0001:000307b0       ??4?$pair@V?$basic_string@DU?$char_traits@D@std@@V?$allocator@D@2@@std@@PEAVPlugInFactory@@@std@@QEAAAEAU01@$$QEAU01@@Z 00000001800317b0 f i ModuleManager.obj
 0001:000307e0       ??$_Push_heap@PEAU?$pair@V?$basic_string@DU?$char_traits@D@std@@V?$allocator@D@2@@std@@PEAVPlugInFactory@@@std@@_JU12@UFactoryPtrComparator@@@std@@YAXPEAU?$pair@V?$basic_string@DU?$char_traits@D@std@@V?$allocator@D@2@@std@@PEAVPlugInFactory@@@0@_J1$$QEAU10@UFactoryPtrComparator@@@Z 00000001800317e0 f i ModuleManager.obj
 0001:000309a0       ??$_Move_backward@PEAU?$pair@V?$basic_string@DU?$char_traits@D@std@@V?$allocator@D@2@@std@@PEAVPlugInFactory@@@std@@PEAU12@@std@@YAPEAU?$pair@V?$basic_string@DU?$char_traits@D@std@@V?$allocator@D@2@@std@@PEAVPlugInFactory@@@0@PEAU10@00U_Nonscalar_ptr_iterator_tag@0@@Z 00000001800319a0 f i ModuleManager.obj
 0001:00030a80       ?swap@?$basic_string@DU?$char_traits@D@std@@V?$allocator@D@2@@std@@QEAAXAEAV12@@Z 0000000180031a80 f i ModuleManager.obj
 0001:00030ae0       ??$make_pair@AEAV?$basic_string@DU?$char_traits@D@std@@V?$allocator@D@2@@std@@AEAPEAVPlugInFactory@@@std@@YA?AU?$pair@V?$basic_string@DU?$char_traits@D@std@@V?$allocator@D@2@@std@@PEAVPlugInFactory@@@0@AEAV?$basic_string@DU?$char_traits@D@std@@V?$allocator@D@2@@0@AEAPEAVPlugInFactory@@@Z 0000000180031ae0 f i ModuleManager.obj
 0001:00030b30       ??0?$_Pair_base@V?$basic_string@DU?$char_traits@D@std@@V?$allocator@D@2@@std@@PEAVPlugInFactory@@@std@@QEAA@$$QEAV?$basic_string@DU?$char_traits@D@std@@V?$allocator@D@2@@1@$$QEAPEAVPlugInFactory@@@Z 0000000180031b30 f i ModuleManager.obj
 0001:00030b70       ??$_Dest_val@V?$allocator@U?$pair@V?$basic_string@DU?$char_traits@D@std@@V?$allocator@D@2@@std@@PEAVPlugInFactory@@@std@@@std@@U?$pair@V?$basic_string@DU?$char_traits@D@std@@V?$allocator@D@2@@std@@PEAVPlugInFactory@@@2@@std@@YAXAEAV?$allocator@U?$pair@V?$basic_string@DU?$char_traits@D@std@@V?$allocator@D@2@@std@@PEAVPlugInFactory@@@std@@@0@PEAU?$pair@V?$basic_string@DU?$char_traits@D@std@@V?$allocator@D@2@@std@@PEAVPlugInFactory@@@0@@Z 0000000180031b70 f i ModuleManager.obj
 0001:00030bb0       ??$_Adjust_heap@PEAU?$pair@V?$basic_string@DU?$char_traits@D@std@@V?$allocator@D@2@@std@@PEAVPlugInFactory@@@std@@_JU12@UFactoryPtrComparator@@@std@@YAXPEAU?$pair@V?$basic_string@DU?$char_traits@D@std@@V?$allocator@D@2@@std@@PEAVPlugInFactory@@@0@_J1$$QEAU10@UFactoryPtrComparator@@@Z 0000000180031bb0 f i ModuleManager.obj
 0001:00030da0       ??$_Move_backward@PEAU?$pair@V?$basic_string@DU?$char_traits@D@std@@V?$allocator@D@2@@std@@PEAVPlugInFactory@@@std@@PEAU12@@std@@YAPEAU?$pair@V?$basic_string@DU?$char_traits@D@std@@V?$allocator@D@2@@std@@PEAVPlugInFactory@@@0@PEAU10@00@Z 0000000180031da0 f i ModuleManager.obj
 0001:00030db0       ??$_Pop_heap@PEAU?$pair@V?$basic_string@DU?$char_traits@D@std@@V?$allocator@D@2@@std@@PEAVPlugInFactory@@@std@@_JU12@UFactoryPtrComparator@@@std@@YAXPEAU?$pair@V?$basic_string@DU?$char_traits@D@std@@V?$allocator@D@2@@std@@PEAVPlugInFactory@@@0@00$$QEAU10@UFactoryPtrComparator@@PEA_J@Z 0000000180031db0 f i ModuleManager.obj
 0001:00030e30       ??$swap@DU?$char_traits@D@std@@V?$allocator@D@2@@std@@YAXAEAV?$basic_string@DU?$char_traits@D@std@@V?$allocator@D@2@@0@0@Z 0000000180031e30 f i ModuleManager.obj
 0001:00030e90       ??$?0V?$basic_string@DU?$char_traits@D@std@@V?$allocator@D@2@@std@@PEAVPlugInFactory@@@?$pair@V?$basic_string@DU?$char_traits@D@std@@V?$allocator@D@2@@std@@PEAVPlugInFactory@@@std@@QEAA@$$QEAU01@@Z 0000000180031e90 f i ModuleManager.obj
 0001:00030ed0       ??$_Destroy_range@V?$allocator@U?$pair@V?$basic_string@DU?$char_traits@D@std@@V?$allocator@D@2@@std@@PEAVPlugInFactory@@@std@@@std@@@std@@YAXPEAU?$pair@V?$basic_string@DU?$char_traits@D@std@@V?$allocator@D@2@@std@@PEAVPlugInFactory@@@0@0AEAV?$allocator@U?$pair@V?$basic_string@DU?$char_traits@D@std@@V?$allocator@D@2@@std@@PEAVPlugInFactory@@@std@@@0@U_Nonscalar_ptr_iterator_tag@0@@Z 0000000180031ed0 f i ModuleManager.obj
 0001:00030f30       ??$_Make_heap@PEAU?$pair@V?$basic_string@DU?$char_traits@D@std@@V?$allocator@D@2@@std@@PEAVPlugInFactory@@@std@@_JU12@UFactoryPtrComparator@@@std@@YAXPEAU?$pair@V?$basic_string@DU?$char_traits@D@std@@V?$allocator@D@2@@std@@PEAVPlugInFactory@@@0@0UFactoryPtrComparator@@PEA_J0@Z 0000000180031f30 f i ModuleManager.obj
 0001:00031080       ??$_Insertion_sort1@PEAU?$pair@V?$basic_string@DU?$char_traits@D@std@@V?$allocator@D@2@@std@@PEAVPlugInFactory@@@std@@UFactoryPtrComparator@@U12@@std@@YAXPEAU?$pair@V?$basic_string@DU?$char_traits@D@std@@V?$allocator@D@2@@std@@PEAVPlugInFactory@@@0@0UFactoryPtrComparator@@0@Z 0000000180032080 f i ModuleManager.obj
 0001:00031400       ??$_Pop_heap_0@PEAU?$pair@V?$basic_string@DU?$char_traits@D@std@@V?$allocator@D@2@@std@@PEAVPlugInFactory@@@std@@U12@UFactoryPtrComparator@@@std@@YAXPEAU?$pair@V?$basic_string@DU?$char_traits@D@std@@V?$allocator@D@2@@std@@PEAVPlugInFactory@@@0@0UFactoryPtrComparator@@0@Z 0000000180032400 f i ModuleManager.obj
 0001:00031520       ??$_Swap_adl@V?$basic_string@DU?$char_traits@D@std@@V?$allocator@D@2@@std@@@std@@YAXAEAV?$basic_string@DU?$char_traits@D@std@@V?$allocator@D@2@@0@0@Z 0000000180032520 f i ModuleManager.obj
 0001:00031580       ??$_Destroy_range@V?$allocator@U?$pair@V?$basic_string@DU?$char_traits@D@std@@V?$allocator@D@2@@std@@PEAVPlugInFactory@@@std@@@std@@@std@@YAXPEAU?$pair@V?$basic_string@DU?$char_traits@D@std@@V?$allocator@D@2@@std@@PEAVPlugInFactory@@@0@0AEAV?$allocator@U?$pair@V?$basic_string@DU?$char_traits@D@std@@V?$allocator@D@2@@std@@PEAVPlugInFactory@@@std@@@0@@Z 0000000180032580 f i ModuleManager.obj
 0001:000315e0       ?construct@?$allocator@U?$pair@V?$basic_string@DU?$char_traits@D@std@@V?$allocator@D@2@@std@@PEAVPlugInFactory@@@std@@@std@@QEAAXPEAU?$pair@V?$basic_string@DU?$char_traits@D@std@@V?$allocator@D@2@@std@@PEAVPlugInFactory@@@2@$$QEAU32@@Z 00000001800325e0 f i ModuleManager.obj
 0001:00031640       ??$make_heap@PEAU?$pair@V?$basic_string@DU?$char_traits@D@std@@V?$allocator@D@2@@std@@PEAVPlugInFactory@@@std@@UFactoryPtrComparator@@@std@@YAXPEAU?$pair@V?$basic_string@DU?$char_traits@D@std@@V?$allocator@D@2@@std@@PEAVPlugInFactory@@@0@0UFactoryPtrComparator@@@Z 0000000180032640 f i ModuleManager.obj
 0001:00031690       ??$_Insertion_sort@PEAU?$pair@V?$basic_string@DU?$char_traits@D@std@@V?$allocator@D@2@@std@@PEAVPlugInFactory@@@std@@UFactoryPtrComparator@@@std@@YAXPEAU?$pair@V?$basic_string@DU?$char_traits@D@std@@V?$allocator@D@2@@std@@PEAVPlugInFactory@@@0@0UFactoryPtrComparator@@@Z 0000000180032690 f i ModuleManager.obj
 0001:000316b0       ??$_Pop_heap@PEAU?$pair@V?$basic_string@DU?$char_traits@D@std@@V?$allocator@D@2@@std@@PEAVPlugInFactory@@@std@@UFactoryPtrComparator@@@std@@YAXPEAU?$pair@V?$basic_string@DU?$char_traits@D@std@@V?$allocator@D@2@@std@@PEAVPlugInFactory@@@0@0UFactoryPtrComparator@@@Z 00000001800326b0 f i ModuleManager.obj
 0001:000316d0       ?swap@?$pair@V?$basic_string@DU?$char_traits@D@std@@V?$allocator@D@2@@std@@PEAVPlugInFactory@@@std@@QEAAXAEAU12@@Z 00000001800326d0 f i ModuleManager.obj
 0001:00031740       ?_Destroy@?$vector@U?$pair@V?$basic_string@DU?$char_traits@D@std@@V?$allocator@D@2@@std@@PEAVPlugInFactory@@@std@@V?$allocator@U?$pair@V?$basic_string@DU?$char_traits@D@std@@V?$allocator@D@2@@std@@PEAVPlugInFactory@@@std@@@2@@std@@IEAAXPEAU?$pair@V?$basic_string@DU?$char_traits@D@std@@V?$allocator@D@2@@std@@PEAVPlugInFactory@@@2@0@Z 0000000180032740 f i ModuleManager.obj
 0001:000317a0       ??$_Cons_val@V?$allocator@U?$pair@V?$basic_string@DU?$char_traits@D@std@@V?$allocator@D@2@@std@@PEAVPlugInFactory@@@std@@@std@@U?$pair@V?$basic_string@DU?$char_traits@D@std@@V?$allocator@D@2@@std@@PEAVPlugInFactory@@@2@U32@@std@@YAXAEAV?$allocator@U?$pair@V?$basic_string@DU?$char_traits@D@std@@V?$allocator@D@2@@std@@PEAVPlugInFactory@@@std@@@0@PEAU?$pair@V?$basic_string@DU?$char_traits@D@std@@V?$allocator@D@2@@std@@PEAVPlugInFactory@@@0@$$QEAU20@@Z 00000001800327a0 f i ModuleManager.obj
 0001:00031800       ??$_Uninit_move@PEAU?$pair@V?$basic_string@DU?$char_traits@D@std@@V?$allocator@D@2@@std@@PEAVPlugInFactory@@@std@@PEAU12@V?$allocator@U?$pair@V?$basic_string@DU?$char_traits@D@std@@V?$allocator@D@2@@std@@PEAVPlugInFactory@@@std@@@2@U12@@std@@YAPEAU?$pair@V?$basic_string@DU?$char_traits@D@std@@V?$allocator@D@2@@std@@PEAVPlugInFactory@@@0@PEAU10@00AEAV?$allocator@U?$pair@V?$basic_string@DU?$char_traits@D@std@@V?$allocator@D@2@@std@@PEAVPlugInFactory@@@std@@@0@0U_Nonscalar_ptr_iterator_tag@0@@Z 0000000180032800 f i ModuleManager.obj
 0001:00031880       ??$_Sort_heap@PEAU?$pair@V?$basic_string@DU?$char_traits@D@std@@V?$allocator@D@2@@std@@PEAVPlugInFactory@@@std@@UFactoryPtrComparator@@@std@@YAXPEAU?$pair@V?$basic_string@DU?$char_traits@D@std@@V?$allocator@D@2@@std@@PEAVPlugInFactory@@@0@0UFactoryPtrComparator@@@Z 0000000180032880 f i ModuleManager.obj
 0001:00031920       ??$swap@V?$basic_string@DU?$char_traits@D@std@@V?$allocator@D@2@@std@@PEAVPlugInFactory@@@std@@YAXAEAU?$pair@V?$basic_string@DU?$char_traits@D@std@@V?$allocator@D@2@@std@@PEAVPlugInFactory@@@0@0@Z 0000000180032920 f i ModuleManager.obj
 0001:00031990       ?_Tidy@?$vector@U?$pair@V?$basic_string@DU?$char_traits@D@std@@V?$allocator@D@2@@std@@PEAVPlugInFactory@@@std@@V?$allocator@U?$pair@V?$basic_string@DU?$char_traits@D@std@@V?$allocator@D@2@@std@@PEAVPlugInFactory@@@std@@@2@@std@@IEAAXXZ 0000000180032990 f i ModuleManager.obj
 0001:00031a10       ??$_Uninitialized_move@PEAU?$pair@V?$basic_string@DU?$char_traits@D@std@@V?$allocator@D@2@@std@@PEAVPlugInFactory@@@std@@PEAU12@V?$allocator@U?$pair@V?$basic_string@DU?$char_traits@D@std@@V?$allocator@D@2@@std@@PEAVPlugInFactory@@@std@@@2@@std@@YAPEAU?$pair@V?$basic_string@DU?$char_traits@D@std@@V?$allocator@D@2@@std@@PEAVPlugInFactory@@@0@PEAU10@00AEAV?$allocator@U?$pair@V?$basic_string@DU?$char_traits@D@std@@V?$allocator@D@2@@std@@PEAVPlugInFactory@@@std@@@0@@Z 0000000180032a10 f i ModuleManager.obj
 0001:00031a30       ??$sort_heap@PEAU?$pair@V?$basic_string@DU?$char_traits@D@std@@V?$allocator@D@2@@std@@PEAVPlugInFactory@@@std@@UFactoryPtrComparator@@@std@@YAXPEAU?$pair@V?$basic_string@DU?$char_traits@D@std@@V?$allocator@D@2@@std@@PEAVPlugInFactory@@@0@0UFactoryPtrComparator@@@Z 0000000180032a30 f i ModuleManager.obj
 0001:00031a40       ??$iter_swap@PEAU?$pair@V?$basic_string@DU?$char_traits@D@std@@V?$allocator@D@2@@std@@PEAVPlugInFactory@@@std@@PEAU12@@std@@YAXPEAU?$pair@V?$basic_string@DU?$char_traits@D@std@@V?$allocator@D@2@@std@@PEAVPlugInFactory@@@0@0@Z 0000000180032a40 f i ModuleManager.obj
 0001:00031ab0       ??$_Med3@PEAU?$pair@V?$basic_string@DU?$char_traits@D@std@@V?$allocator@D@2@@std@@PEAVPlugInFactory@@@std@@UFactoryPtrComparator@@@std@@YAXPEAU?$pair@V?$basic_string@DU?$char_traits@D@std@@V?$allocator@D@2@@std@@PEAVPlugInFactory@@@0@00UFactoryPtrComparator@@@Z 0000000180032ab0 f i ModuleManager.obj
 0001:00031c80       ??1?$vector@U?$pair@V?$basic_string@DU?$char_traits@D@std@@V?$allocator@D@2@@std@@PEAVPlugInFactory@@@std@@V?$allocator@U?$pair@V?$basic_string@DU?$char_traits@D@std@@V?$allocator@D@2@@std@@PEAVPlugInFactory@@@std@@@2@@std@@QEAA@XZ 0000000180032c80 f i ModuleManager.obj
 0001:00031c90       ??$_Umove@PEAU?$pair@V?$basic_string@DU?$char_traits@D@std@@V?$allocator@D@2@@std@@PEAVPlugInFactory@@@std@@@?$vector@U?$pair@V?$basic_string@DU?$char_traits@D@std@@V?$allocator@D@2@@std@@PEAVPlugInFactory@@@std@@V?$allocator@U?$pair@V?$basic_string@DU?$char_traits@D@std@@V?$allocator@D@2@@std@@PEAVPlugInFactory@@@std@@@2@@std@@IEAAPEAU?$pair@V?$basic_string@DU?$char_traits@D@std@@V?$allocator@D@2@@std@@PEAVPlugInFactory@@@1@PEAU21@00@Z 0000000180032c90 f i ModuleManager.obj
 0001:00031cd0       ??$_Median@PEAU?$pair@V?$basic_string@DU?$char_traits@D@std@@V?$allocator@D@2@@std@@PEAVPlugInFactory@@@std@@UFactoryPtrComparator@@@std@@YAXPEAU?$pair@V?$basic_string@DU?$char_traits@D@std@@V?$allocator@D@2@@std@@PEAVPlugInFactory@@@0@00UFactoryPtrComparator@@@Z 0000000180032cd0 f i ModuleManager.obj
 0001:00031dd0       ?reserve@?$vector@U?$pair@V?$basic_string@DU?$char_traits@D@std@@V?$allocator@D@2@@std@@PEAVPlugInFactory@@@std@@V?$allocator@U?$pair@V?$basic_string@DU?$char_traits@D@std@@V?$allocator@D@2@@std@@PEAVPlugInFactory@@@std@@@2@@std@@QEAAX_K@Z 0000000180032dd0 f i ModuleManager.obj
 0001:00031ef0       ??$_Unguarded_partition@PEAU?$pair@V?$basic_string@DU?$char_traits@D@std@@V?$allocator@D@2@@std@@PEAVPlugInFactory@@@std@@UFactoryPtrComparator@@@std@@YA?AU?$pair@PEAU?$pair@V?$basic_string@DU?$char_traits@D@std@@V?$allocator@D@2@@std@@PEAVPlugInFactory@@@std@@PEAU12@@0@PEAU?$pair@V?$basic_string@DU?$char_traits@D@std@@V?$allocator@D@2@@std@@PEAVPlugInFactory@@@0@0UFactoryPtrComparator@@@Z 0000000180032ef0 f i ModuleManager.obj
 0001:000325c0       ?factories@OpticksCDFPlugin@@YAAEAV?$vector@U?$pair@V?$basic_string@DU?$char_traits@D@std@@V?$allocator@D@2@@std@@PEAVPlugInFactory@@@std@@V?$allocator@U?$pair@V?$basic_string@DU?$char_traits@D@std@@V?$allocator@D@2@@std@@PEAVPlugInFactory@@@std@@@2@@std@@XZ 00000001800335c0 f   ModuleManager.obj
 0001:00032610       ?_Reserve@?$vector@U?$pair@V?$basic_string@DU?$char_traits@D@std@@V?$allocator@D@2@@std@@PEAVPlugInFactory@@@std@@V?$allocator@U?$pair@V?$basic_string@DU?$char_traits@D@std@@V?$allocator@D@2@@std@@PEAVPlugInFactory@@@std@@@2@@std@@IEAAX_K@Z 0000000180033610 f i ModuleManager.obj
 0001:000326c0       ??$_Sort@PEAU?$pair@V?$basic_string@DU?$char_traits@D@std@@V?$allocator@D@2@@std@@PEAVPlugInFactory@@@std@@_JUFactoryPtrComparator@@@std@@YAXPEAU?$pair@V?$basic_string@DU?$char_traits@D@std@@V?$allocator@D@2@@std@@PEAVPlugInFactory@@@0@0_JUFactoryPtrComparator@@@Z 00000001800336c0 f i ModuleManager.obj
 0001:00032880       ?push_back@?$vector@U?$pair@V?$basic_string@DU?$char_traits@D@std@@V?$allocator@D@2@@std@@PEAVPlugInFactory@@@std@@V?$allocator@U?$pair@V?$basic_string@DU?$char_traits@D@std@@V?$allocator@D@2@@std@@PEAVPlugInFactory@@@std@@@2@@std@@QEAAX$$QEAU?$pair@V?$basic_string@DU?$char_traits@D@std@@V?$allocator@D@2@@std@@PEAVPlugInFactory@@@2@@Z 0000000180033880 f i ModuleManager.obj
 0001:00032990       ??$sort@V?$_Vector_iterator@V?$_Vector_val@U?$pair@V?$basic_string@DU?$char_traits@D@std@@V?$allocator@D@2@@std@@PEAVPlugInFactory@@@std@@V?$allocator@U?$pair@V?$basic_string@DU?$char_traits@D@std@@V?$allocator@D@2@@std@@PEAVPlugInFactory@@@std@@@2@@std@@@std@@UFactoryPtrComparator@@@std@@YAXV?$_Vector_iterator@V?$_Vector_val@U?$pair@V?$basic_string@DU?$char_traits@D@std@@V?$allocator@D@2@@std@@PEAVPlugInFactory@@@std@@V?$allocator@U?$pair@V?$basic_string@DU?$char_traits@D@std@@V?$allocator@D@2@@std@@PEAVPlugInFactory@@@std@@@2@@std@@@0@0UFactoryPtrComparator@@@Z 0000000180033990 f i ModuleManager.obj
 0001:000329d0       ?addFactory@OpticksCDFPlugin@@YAXPEAVPlugInFactory@@@Z 00000001800339d0 f   ModuleManager.obj
 0001:00032b00       ?getPlugIn@OpticksCDFPlugin@@YAPEAVPlugIn@@I@Z 0000000180033b00 f   ModuleManager.obj
 0001:00032cb0       OpticksCDFPluginInstantiatePlugIn 0000000180033cb0 f   ModuleManager.obj
 0001:00032cf0       ?retranslateUi@Ui_ClassBased@@QEAAXPEAVQWidget@@@Z 0000000180033cf0 f i classbased.obj
 0001:000330b0       ?isSelected@ClassBased@@AEAA_NH@Z 00000001800340b0 f   classbased.obj
 0001:00033140       ?on_checkBox_clicked@ClassBased@@AEAAXXZ 0000000180034140 f   classbased.obj
 0001:00033150       ?on_checkBox_2_clicked@ClassBased@@AEAAXXZ 0000000180034150 f   classbased.obj
 0001:00033160       ?on_checkBox_3_clicked@ClassBased@@AEAAXXZ 0000000180034160 f   classbased.obj
 0001:00033170       ?on_checkBox_4_clicked@ClassBased@@AEAAXXZ 0000000180034170 f   classbased.obj
 0001:00033180       ?on_checkBox_5_clicked@ClassBased@@AEAAXXZ 0000000180034180 f   classbased.obj
 0001:00033190       ?on_checkBox_6_clicked@ClassBased@@AEAAXXZ 0000000180034190 f   classbased.obj
 0001:000331a0       ?on_checkBox_8_clicked@ClassBased@@AEAAXXZ 00000001800341a0 f   classbased.obj
 0001:000331b0       ?on_checkBox_7_clicked@ClassBased@@AEAAXXZ 00000001800341b0 f   classbased.obj
 0001:000331c0       ?on_checkBox_9_clicked@ClassBased@@AEAAXXZ 00000001800341c0 f   classbased.obj
 0001:000331d0       ?setupUi@Ui_ClassBased@@QEAAXPEAVQWidget@@@Z 00000001800341d0 f i classbased.obj
 0001:00035030       ??_EQTextEdit@@UEAAPEAXI@Z 0000000180036030 f i classbased.obj
 0001:00035030       ??_GQTextEdit@@UEAAPEAXI@Z 0000000180036030 f i classbased.obj
 0001:00035060       ??_GQPlainTextEdit@@UEAAPEAXI@Z 0000000180036060 f i classbased.obj
 0001:00035060       ??_EQPlainTextEdit@@UEAAPEAXI@Z 0000000180036060 f i classbased.obj
 0001:00035090       ??_EQTextEdit@@WBA@EAAPEAXI@Z 0000000180036090 f i classbased.obj
 0001:000350a0       ??_EQPlainTextEdit@@WBA@EAAPEAXI@Z 00000001800360a0 f i classbased.obj
 0001:000350b0       ?writePPMImage@ClassBased@@QEAAXPEAPEAPEAHQEAHV?$basic_string@DU?$char_traits@D@std@@V?$allocator@D@2@@std@@@Z 00000001800360b0 f   classbased.obj
 0001:000351f0       ??0ClassBased@@QEAA@HHPEAPEAH00PEAPEAPEAH1HPEAVQWidget@@@Z 00000001800361f0 f   classbased.obj
 0001:00035350       ??_EClassBased@@WBA@EAAPEAXI@Z 0000000180036350 f i classbased.obj
 0001:00035360       ??1ClassBased@@UEAA@XZ     0000000180036360 f   classbased.obj
 0001:000353e0       ??_EClassBased@@UEAAPEAXI@Z 00000001800363e0 f i classbased.obj
 0001:000353e0       ??_GClassBased@@UEAAPEAXI@Z 00000001800363e0 f i classbased.obj
 0001:00035410       ?createImage@ClassBased@@QEAAXV?$basic_string@DU?$char_traits@D@std@@V?$allocator@D@2@@std@@@Z 0000000180036410 f   classbased.obj
 0001:00035870       ?on_pushButton_clicked@ClassBased@@AEAAXXZ 0000000180036870 f   classbased.obj
 0001:00035990       ?on_radioButton_2_clicked@ClassBased@@AEAAXXZ 0000000180036990 f   classbased.obj
 0001:00035c40       ?on_radioButton_clicked@ClassBased@@AEAAXXZ 0000000180036c40 f   classbased.obj
 0001:00035ee0       ?retranslateUi@Ui_selectCDType@@QEAAXPEAVQWidget@@@Z 0000000180036ee0 f i selectcdtype.obj
 0001:00035fe0       ??1selectCDType@@UEAA@XZ   0000000180036fe0 f   selectcdtype.obj
 0001:00036020       ?on_pushButton_clicked@selectCDType@@AEAAXXZ 0000000180037020 f   selectcdtype.obj
 0001:000360a0       ?on_pushButton_2_clicked@selectCDType@@AEAAXXZ 00000001800370a0 f   selectcdtype.obj
 0001:000360b0       ??_EselectCDType@@WBA@EAAPEAXI@Z 00000001800370b0 f i selectcdtype.obj
 0001:000360c0       ?setupUi@Ui_selectCDType@@QEAAXPEAVQWidget@@@Z 00000001800370c0 f i selectcdtype.obj
 0001:000363f0       ??0selectCDType@@QEAA@HHPEAPEAH00PEAPEAPEAH1VImage@@2HPEAVQWidget@@@Z 00000001800373f0 f   selectcdtype.obj
 0001:00036570       ??_GselectCDType@@UEAAPEAXI@Z 0000000180037570 f i selectcdtype.obj
 0001:00036570       ??_EselectCDType@@UEAAPEAXI@Z 0000000180037570 f i selectcdtype.obj
 0001:000365d0       ?paintEvent@paint_box@@MEAAXPEAVQPaintEvent@@@Z 00000001800375d0 f   paint_box.obj
 0001:000365e0       ?mouseReleaseEvent@paint_box@@MEAAXPEAVQMouseEvent@@@Z 00000001800375e0 f   paint_box.obj
 0001:00036690       ?fillsample@paint_box@@QEAAXH@Z 0000000180037690 f   paint_box.obj
 0001:000366c0       ??0paint_box@@QEAA@V?$basic_string@DU?$char_traits@D@std@@V?$allocator@D@2@@std@@HHHPEAPEAHHPEAVMainWindow_fusion@@PEAVQWidget@@@Z 00000001800376c0 f   paint_box.obj
 0001:00036950       ??_Epaint_box@@WBA@EAAPEAXI@Z 0000000180037950 f i paint_box.obj
 0001:00036960       ??1paint_box@@UEAA@XZ      0000000180037960 f i paint_box.obj
 0001:000369a0       ??_Gpaint_box@@UEAAPEAXI@Z 00000001800379a0 f i paint_box.obj
 0001:000369a0       ??_Epaint_box@@UEAAPEAXI@Z 00000001800379a0 f i paint_box.obj
 0001:00036a00       ??0paint_box@@QEAA@V?$basic_string@DU?$char_traits@D@std@@V?$allocator@D@2@@std@@0HHPEAVQWidget@@@Z 0000000180037a00 f   paint_box.obj
 0001:00036c50       ??0?$QFlags@W4AlignmentFlag@Qt@@@@QEAA@W4AlignmentFlag@Qt@@@Z 0000000180037c50 f i scarea.obj
 0001:00036c60       ?node_destruct@?$QList@PEAVQWidget@@@@AEAAXPEAUNode@1@0@Z 0000000180037c60 f i scarea.obj
 0001:00036c70       ?free@?$QList@PEAVQWidget@@@@AEAAXPEAUData@QListData@@@Z 0000000180037c70 f i scarea.obj
 0001:00036c90       ??1?$QList@PEAVQWidget@@@@QEAA@XZ 0000000180037c90 f i scarea.obj
 0001:00036cc0       ??0scarea@@QEAA@PEAVpaint_box@@PEAVMainWindow_fusion@@PEAVQWidget@@@Z 0000000180037cc0 f   scarea.obj
 0001:00036d90       ??1scarea@@UEAA@XZ         0000000180037d90 f i scarea.obj
 0001:00036da0       ??_Escarea@@WBA@EAAPEAXI@Z 0000000180037da0 f i scarea.obj
 0001:00036db0       ??_Escarea@@UEAAPEAXI@Z    0000000180037db0 f i scarea.obj
 0001:00036db0       ??_Gscarea@@UEAAPEAXI@Z    0000000180037db0 f i scarea.obj
 0001:00036de0       ?retranslateUi@Ui_ClassifyAttributes@@QEAAXPEAVQWidget@@@Z 0000000180037de0 f i classifyattributes.obj
 0001:00037540       ??1ClassifyAttributes@@UEAA@XZ 0000000180038540 f   classifyattributes.obj
 0001:00037580       ?on_checkBox_clicked@ClassifyAttributes@@AEAAXXZ 0000000180038580 f   classifyattributes.obj
 0001:00037710       ?on_checkBox_6_clicked@ClassifyAttributes@@AEAAXXZ 0000000180038710 f   classifyattributes.obj
 0001:000378a0       ?on_checkBox_area_clicked@ClassifyAttributes@@AEAAXXZ 00000001800388a0 f   classifyattributes.obj
 0001:000378d0       ?on_checkBox_round_clicked@ClassifyAttributes@@AEAAXXZ 00000001800388d0 f   classifyattributes.obj
 0001:000378e0       ?on_checkBox_round_clicked@ClassifyAttributes@@AEAAX_N@Z 00000001800388e0 f   classifyattributes.obj
 0001:000378f0       ?on_checkBox_peri_clicked@ClassifyAttributes@@AEAAX_N@Z 00000001800388f0 f   classifyattributes.obj
 0001:00037900       ?on_checkBox_compact_clicked@ClassifyAttributes@@AEAAX_N@Z 0000000180038900 f   classifyattributes.obj
 0001:00037910       ?on_checkBox_contrast_clicked@ClassifyAttributes@@AEAAX_N@Z 0000000180038910 f   classifyattributes.obj
 0001:00037920       ?on_checkBox_rough_clicked@ClassifyAttributes@@AEAAX_N@Z 0000000180038920 f   classifyattributes.obj
 0001:00037930       ?on_checkBox_coarse_clicked@ClassifyAttributes@@AEAAX_N@Z 0000000180038930 f   classifyattributes.obj
 0001:00037940       ?on_checkBox_dir_clicked@ClassifyAttributes@@AEAAX_N@Z 0000000180038940 f   classifyattributes.obj
 0001:00037950       ?on_checkBox_mr_clicked@ClassifyAttributes@@AEAAX_N@Z 0000000180038950 f   classifyattributes.obj
 0001:00037960       ?on_checkBox_mg_clicked@ClassifyAttributes@@AEAAX_N@Z 0000000180038960 f   classifyattributes.obj
 0001:00037970       ?on_checkBox_mb_clicked@ClassifyAttributes@@AEAAX_N@Z 0000000180038970 f   classifyattributes.obj
 0001:00037980       ?on_checkBox_sr_clicked@ClassifyAttributes@@AEAAX_N@Z 0000000180038980 f   classifyattributes.obj
 0001:00037990       ?on_checkBox_sg_clicked@ClassifyAttributes@@AEAAX_N@Z 0000000180038990 f   classifyattributes.obj
 0001:000379a0       ?on_checkBox_sb_clicked@ClassifyAttributes@@AEAAX_N@Z 00000001800389a0 f   classifyattributes.obj
 0001:000379b0       ?on_radioButton_mss_clicked@ClassifyAttributes@@AEAAX_N@Z 00000001800389b0 f   classifyattributes.obj
 0001:00037c20       ?on_radioButton_fused_clicked@ClassifyAttributes@@AEAAXXZ 0000000180038c20 f   classifyattributes.obj
 0001:00037e90       ?on_checkBox_mr_2_clicked@ClassifyAttributes@@AEAAX_N@Z 0000000180038e90 f   classifyattributes.obj
 0001:00037ea0       ?on_checkBox_mg_2_clicked@ClassifyAttributes@@AEAAX_N@Z 0000000180038ea0 f   classifyattributes.obj
 0001:00037eb0       ?on_checkBox_mb_2_clicked@ClassifyAttributes@@AEAAX_N@Z 0000000180038eb0 f   classifyattributes.obj
 0001:00037ec0       ?on_checkBox_sr_2_clicked@ClassifyAttributes@@AEAAX_N@Z 0000000180038ec0 f   classifyattributes.obj
 0001:00037ed0       ?on_checkBox_sg_2_clicked@ClassifyAttributes@@AEAAX_N@Z 0000000180038ed0 f   classifyattributes.obj
 0001:00037ee0       ?on_checkBox_sb_2_clicked@ClassifyAttributes@@AEAAX_N@Z 0000000180038ee0 f   classifyattributes.obj
 0001:00037ef0       ??_EClassifyAttributes@@WBA@EAAPEAXI@Z 0000000180038ef0 f i classifyattributes.obj
 0001:00037f00       ?setupUi@Ui_ClassifyAttributes@@QEAAXPEAVQWidget@@@Z 0000000180038f00 f i classifyattributes.obj
 0001:000397b0       ??_EQGridLayout@@UEAAPEAXI@Z 000000018003a7b0 f i classifyattributes.obj
 0001:000397b0       ??_GQGridLayout@@UEAAPEAXI@Z 000000018003a7b0 f i classifyattributes.obj
 0001:000397e0       ??_EQGridLayout@@WBA@EAAPEAXI@Z 000000018003a7e0 f i classifyattributes.obj
 0001:000397f0       ??0ClassifyAttributes@@QEAA@HHPEAPEAHPEAVMainWindow_fusion@@PEAVQWidget@@@Z 000000018003a7f0 f   classifyattributes.obj
 0001:00039910       ??_EClassifyAttributes@@UEAAPEAXI@Z 000000018003a910 f i classifyattributes.obj
 0001:00039910       ??_GClassifyAttributes@@UEAAPEAXI@Z 000000018003a910 f i classifyattributes.obj
 0001:00039970       ?on_pushButton_clicked@ClassifyAttributes@@AEAAXXZ 000000018003a970 f   classifyattributes.obj
 0001:00039a80       ??0QLatin1Char@@QEAA@D@Z   000000018003aa80 f i choosesample.obj
 0001:00039a90       ?retranslateUi@Ui_chooseSample@@QEAAXPEAVQWidget@@@Z 000000018003aa90 f i choosesample.obj
 0001:00039b90       ?on_comboBox_currentIndexChanged@chooseSample@@AEAAXH@Z 000000018003ab90 f   choosesample.obj
 0001:00039ba0       ??0?$QList@VQString@@@@QEAA@XZ 000000018003aba0 f i choosesample.obj
 0001:00039bc0       ?node_construct@?$QList@VQString@@@@AEAAXPEAUNode@1@AEBVQString@@@Z 000000018003abc0 f i choosesample.obj
 0001:00039c00       ?setupUi@Ui_chooseSample@@QEAAXPEAVQWidget@@@Z 000000018003ac00 f i choosesample.obj
 0001:00039fc0       ??_GQComboBox@@UEAAPEAXI@Z 000000018003afc0 f i choosesample.obj
 0001:00039fc0       ??_EQComboBox@@UEAAPEAXI@Z 000000018003afc0 f i choosesample.obj
 0001:00039ff0       ??_EQComboBox@@WBA@EAAPEAXI@Z 000000018003aff0 f i choosesample.obj
 0001:0003a000       ?node_destruct@?$QList@VQString@@@@AEAAXPEAUNode@1@@Z 000000018003b000 f i choosesample.obj
 0001:0003a020       ?on_pushButton_clicked@chooseSample@@AEAAXXZ 000000018003b020 f   choosesample.obj
 0001:0003a0a0       ?detach_helper_grow@?$QList@VQString@@@@AEAAPEAUNode@1@HH@Z 000000018003b0a0 f i choosesample.obj
 0001:0003a170       ??0QStringList@@QEAA@XZ    000000018003b170 f i choosesample.obj
 0001:0003a190       ??1chooseSample@@UEAA@XZ   000000018003b190 f   choosesample.obj
 0001:0003a210       ??_EchooseSample@@WBA@EAAPEAXI@Z 000000018003b210 f i choosesample.obj
 0001:0003a220       ?append@?$QList@VQString@@@@QEAAXAEBVQString@@@Z 000000018003b220 f i choosesample.obj
 0001:0003a2b0       ??6QStringList@@QEAAAEAV0@AEBVQString@@@Z 000000018003b2b0 f i choosesample.obj
 0001:0003a2d0       ??0chooseSample@@QEAA@HHHPEAPEAHHPEAVQWidget@@1@Z 000000018003b2d0 f   choosesample.obj
 0001:0003a510       ??_EchooseSample@@UEAAPEAXI@Z 000000018003b510 f i choosesample.obj
 0001:0003a510       ??_GchooseSample@@UEAAPEAXI@Z 000000018003b510 f i choosesample.obj
 0001:0003a540       ?retranslateUi@Ui_nclasses@@QEAAXPEAVQWidget@@@Z 000000018003b540 f i nclasses.obj
 0001:0003a6d0       ?on_pushButton_3_clicked@nclasses@@AEAAXXZ 000000018003b6d0 f   nclasses.obj
 0001:0003a700       ?on_pushButton_2_clicked@nclasses@@AEAAXXZ 000000018003b700 f   nclasses.obj
 0001:0003a710       ?setupUi@Ui_nclasses@@QEAAXPEAVQWidget@@@Z 000000018003b710 f i nclasses.obj
 0001:0003ace0       ??1nclasses@@UEAA@XZ       000000018003bce0 f   nclasses.obj
 0001:0003ad40       ??_Enclasses@@WBA@EAAPEAXI@Z 000000018003bd40 f i nclasses.obj
 0001:0003ad50       ??_Enclasses@@UEAAPEAXI@Z  000000018003bd50 f i nclasses.obj
 0001:0003ad50       ??_Gnclasses@@UEAAPEAXI@Z  000000018003bd50 f i nclasses.obj
 0001:0003add0       ??0nclasses@@QEAA@V?$basic_string@DU?$char_traits@D@std@@V?$allocator@D@2@@std@@HHPEAPEAHPEAVMainWindow_fusion@@PEAVQWidget@@@Z 000000018003bdd0 f   nclasses.obj
 0001:0003af10       ?on_pushButton_clicked@nclasses@@AEAAXXZ 000000018003bf10 f   nclasses.obj
 0001:0003b090       ?qt_metacast@selectCDType@@UEAAPEAXPEBD@Z 000000018003c090 f   moc_selectcdtype.obj
 0001:0003b0e0       ?qt_metacall@selectCDType@@UEAAHW4Call@QMetaObject@@HPEAPEAX@Z 000000018003c0e0 f   moc_selectcdtype.obj
 0001:0003b140       ??C?$QScopedPointer@VQObjectData@@U?$QScopedPointerDeleter@VQObjectData@@@@@@QEBAPEAVQObjectData@@XZ 000000018003c140 f i moc_selectcdtype.obj
 0001:0003b180       ?metaObject@selectCDType@@UEBAPEBUQMetaObject@@XZ 000000018003c180 f   moc_selectcdtype.obj
 0001:0003b1f0       ?qt_metacast@MainWindow_cd@@UEAAPEAXPEBD@Z 000000018003c1f0 f   moc_mainwindow_cd.obj
 0001:0003b240       ?qt_metacall@MainWindow_cd@@UEAAHW4Call@QMetaObject@@HPEAPEAX@Z 000000018003c240 f   moc_mainwindow_cd.obj
 0001:0003b300       ?metaObject@MainWindow_cd@@UEBAPEBUQMetaObject@@XZ 000000018003c300 f   moc_mainwindow_cd.obj
 0001:0003b370       ?qt_metacast@MainWindow_fusion@@UEAAPEAXPEBD@Z 000000018003c370 f   moc_mainwindow_fusion.obj
 0001:0003b3c0       ?qt_metacall@MainWindow_fusion@@UEAAHW4Call@QMetaObject@@HPEAPEAX@Z 000000018003c3c0 f   moc_mainwindow_fusion.obj
 0001:0003b4d0       ?metaObject@MainWindow_fusion@@UEBAPEBUQMetaObject@@XZ 000000018003c4d0 f   moc_mainwindow_fusion.obj
 0001:0003b540       ?qt_metacast@ClassBased@@UEAAPEAXPEBD@Z 000000018003c540 f   moc_classbased.obj
 0001:0003b590       ?qt_metacall@ClassBased@@UEAAHW4Call@QMetaObject@@HPEAPEAX@Z 000000018003c590 f   moc_classbased.obj
 0001:0003b6c0       ?metaObject@ClassBased@@UEBAPEBUQMetaObject@@XZ 000000018003c6c0 f   moc_classbased.obj
 0001:0003b730       ?qt_metacast@paintbox@@UEAAPEAXPEBD@Z 000000018003c730 f   moc_paintbox.obj
 0001:0003b780       ?qt_metacall@paintbox@@UEAAHW4Call@QMetaObject@@HPEAPEAX@Z 000000018003c780 f   moc_paintbox.obj
 0001:0003b790       ?metaObject@paintbox@@UEBAPEBUQMetaObject@@XZ 000000018003c790 f   moc_paintbox.obj
 0001:0003b800       ?qt_metacast@Paintbox2@@UEAAPEAXPEBD@Z 000000018003c800 f   moc_paintbox2.obj
 0001:0003b850       ?qt_metacall@Paintbox2@@UEAAHW4Call@QMetaObject@@HPEAPEAX@Z 000000018003c850 f   moc_paintbox2.obj
 0001:0003b860       ?metaObject@Paintbox2@@UEBAPEBUQMetaObject@@XZ 000000018003c860 f   moc_paintbox2.obj
 0001:0003b8d0       ?qt_metacast@AttributeBased_cd@@UEAAPEAXPEBD@Z 000000018003c8d0 f   moc_attributebased_cd.obj
 0001:0003b920       ?qt_metacall@AttributeBased_cd@@UEAAHW4Call@QMetaObject@@HPEAPEAX@Z 000000018003c920 f   moc_attributebased_cd.obj
 0001:0003bd60       ?metaObject@AttributeBased_cd@@UEBAPEBUQMetaObject@@XZ 000000018003cd60 f   moc_attributebased_cd.obj
 0001:0003bdd0       ?qt_metacast@pain2img@@UEAAPEAXPEBD@Z 000000018003cdd0 f   moc_pain2img.obj
 0001:0003be20       ?qt_metacall@pain2img@@UEAAHW4Call@QMetaObject@@HPEAPEAX@Z 000000018003ce20 f   moc_pain2img.obj
 0001:0003be30       ?metaObject@pain2img@@UEBAPEBUQMetaObject@@XZ 000000018003ce30 f   moc_pain2img.obj
 0001:0003bea0       ?qt_metacast@changeDetection@@UEAAPEAXPEBD@Z 000000018003cea0 f   moc_changeDetection.obj
 0001:0003bf50       ?qt_metacall@changeDetection@@UEAAHW4Call@QMetaObject@@HPEAPEAX@Z 000000018003cf50 f   moc_changeDetection.obj
 0001:0003bfa0       ?metaObject@changeDetection@@UEBAPEBUQMetaObject@@XZ 000000018003cfa0 f   moc_changeDetection.obj
 0001:0003c010       ?qt_metacast@Fusion@@UEAAPEAXPEBD@Z 000000018003d010 f   moc_Fusion.obj
 0001:0003c0c0       ?qt_metacall@Fusion@@UEAAHW4Call@QMetaObject@@HPEAPEAX@Z 000000018003d0c0 f   moc_Fusion.obj
 0001:0003c110       ?metaObject@Fusion@@UEBAPEBUQMetaObject@@XZ 000000018003d110 f   moc_Fusion.obj
 0001:0003c180       ?qt_metacast@paint_box@@UEAAPEAXPEBD@Z 000000018003d180 f   moc_paint_box.obj
 0001:0003c1d0       ?qt_metacall@paint_box@@UEAAHW4Call@QMetaObject@@HPEAPEAX@Z 000000018003d1d0 f   moc_paint_box.obj
 0001:0003c1e0       ?metaObject@paint_box@@UEBAPEBUQMetaObject@@XZ 000000018003d1e0 f   moc_paint_box.obj
 0001:0003c250       ?qt_metacast@scarea@@UEAAPEAXPEBD@Z 000000018003d250 f   moc_scarea.obj
 0001:0003c2a0       ?qt_metacall@scarea@@UEAAHW4Call@QMetaObject@@HPEAPEAX@Z 000000018003d2a0 f   moc_scarea.obj
 0001:0003c2b0       ?metaObject@scarea@@UEBAPEBUQMetaObject@@XZ 000000018003d2b0 f   moc_scarea.obj
 0001:0003c320       ?qt_metacast@ClassifyAttributes@@UEAAPEAXPEBD@Z 000000018003d320 f   moc_classifyattributes.obj
 0001:0003c370       ?qt_metacall@ClassifyAttributes@@UEAAHW4Call@QMetaObject@@HPEAPEAX@Z 000000018003d370 f   moc_classifyattributes.obj
 0001:0003c610       ?metaObject@ClassifyAttributes@@UEBAPEBUQMetaObject@@XZ 000000018003d610 f   moc_classifyattributes.obj
 0001:0003c680       ?qt_metacast@chooseSample@@UEAAPEAXPEBD@Z 000000018003d680 f   moc_choosesample.obj
 0001:0003c6d0       ?qt_metacall@chooseSample@@UEAAHW4Call@QMetaObject@@HPEAPEAX@Z 000000018003d6d0 f   moc_choosesample.obj
 0001:0003c740       ?metaObject@chooseSample@@UEBAPEBUQMetaObject@@XZ 000000018003d740 f   moc_choosesample.obj
 0001:0003c7b0       ?qt_metacast@nclasses@@UEAAPEAXPEBD@Z 000000018003d7b0 f   moc_nclasses.obj
 0001:0003c800       ?qt_metacall@nclasses@@UEAAHW4Call@QMetaObject@@HPEAPEAX@Z 000000018003d800 f   moc_nclasses.obj
 0001:0003c870       ?metaObject@nclasses@@UEBAPEBUQMetaObject@@XZ 000000018003d870 f   moc_nclasses.obj
 0001:0003c8de       ??1QString@@QEAA@XZ        000000018003d8de f   QtCore4:QtCore4.dll
 0001:0003c8e4       ?free@QString@@CAXPEAUData@1@@Z 000000018003d8e4 f   QtCore4:QtCore4.dll
 0001:0003c8ea       ?translate@QCoreApplication@@SA?AVQString@@PEBD00W4Encoding@1@@Z 000000018003d8ea f   QtCore4:QtCore4.dll
 0001:0003c8f0       ?toInt@QString@@QEBAHPEA_NH@Z 000000018003d8f0 f   QtCore4:QtCore4.dll
 0001:0003c8f6       ?toFloat@QString@@QEBAMPEA_N@Z 000000018003d8f6 f   QtCore4:QtCore4.dll
 0001:0003c8fc       ??4QString@@QEAAAEAV0@AEBV0@@Z 000000018003d8fc f   QtCore4:QtCore4.dll
 0001:0003c902       ?setNum@QString@@QEAAAEAV1@NDH@Z 000000018003d902 f   QtCore4:QtCore4.dll
 0001:0003c908       ?setNum@QString@@QEAAAEAV1@_JH@Z 000000018003d908 f   QtCore4:QtCore4.dll
 0001:0003c90e       ?connectSlotsByName@QMetaObject@@SAXPEAVQObject@@@Z 000000018003d90e f   QtCore4:QtCore4.dll
 0001:0003c914       ?setObjectName@QObject@@QEAAXAEBVQString@@@Z 000000018003d914 f   QtCore4:QtCore4.dll
 0001:0003c91a       ?fromUtf8@QString@@SA?AV1@PEBDH@Z 000000018003d91a f   QtCore4:QtCore4.dll
 0001:0003c920       ?objectName@QObject@@QEBA?AVQString@@XZ 000000018003d920 f   QtCore4:QtCore4.dll
 0001:0003c926       ?eventFilter@QObject@@UEAA_NPEAV1@PEAVQEvent@@@Z 000000018003d926 f   QtCore4:QtCore4.dll
 0001:0003c92c       ?timerEvent@QObject@@MEAAXPEAVQTimerEvent@@@Z 000000018003d92c f   QtCore4:QtCore4.dll
 0001:0003c932       ?childEvent@QObject@@MEAAXPEAVQChildEvent@@@Z 000000018003d932 f   QtCore4:QtCore4.dll
 0001:0003c938       ?customEvent@QObject@@MEAAXPEAVQEvent@@@Z 000000018003d938 f   QtCore4:QtCore4.dll
 0001:0003c93e       ?connectNotify@QObject@@MEAAXPEBD@Z 000000018003d93e f   QtCore4:QtCore4.dll
 0001:0003c944       ?disconnectNotify@QObject@@MEAAXPEBD@Z 000000018003d944 f   QtCore4:QtCore4.dll
 0001:0003c94a       ?event@QObject@@UEAA_NPEAVQEvent@@@Z 000000018003d94a f   QtCore4:QtCore4.dll
 0001:0003c950       ?fromAscii_helper@QString@@CAPEAUData@1@PEBDH@Z 000000018003d950 f   QtCore4:QtCore4.dll
 0001:0003c956       ??1QByteArray@@QEAA@XZ     000000018003d956 f   QtCore4:QtCore4.dll
 0001:0003c95c       ?qFree@@YAXPEAX@Z          000000018003d95c f   QtCore4:QtCore4.dll
 0001:0003c962       ?detach@QByteArray@@QEAAXXZ 000000018003d962 f   QtCore4:QtCore4.dll
 0001:0003c968       ?toUtf8@QString@@QEBA?AVQByteArray@@XZ 000000018003d968 f   QtCore4:QtCore4.dll
 0001:0003c96e       ?number@QString@@SA?AV1@HH@Z 000000018003d96e f   QtCore4:QtCore4.dll
 0001:0003c974       ?number@QString@@SA?AV1@NDH@Z 000000018003d974 f   QtCore4:QtCore4.dll
 0001:0003c97a       ??1QObject@@UEAA@XZ        000000018003d97a f   QtCore4:QtCore4.dll
 0001:0003c980       ?connect@QObject@@SA_NPEBV1@PEBD01W4ConnectionType@Qt@@@Z 000000018003d980 f   QtCore4:QtCore4.dll
 0001:0003c986       ?qFlagLocation@@YAPEBDPEBD@Z 000000018003d986 f   QtCore4:QtCore4.dll
 0001:0003c98c       ??0QObject@@QEAA@PEAV0@@Z  000000018003d98c f   QtCore4:QtCore4.dll
 0001:0003c992       ??0QFutureInterfaceBase@@QEAA@W4State@0@@Z 000000018003d992 f   QtCore4:QtCore4.dll
 0001:0003c998       ??1QFutureInterfaceBase@@UEAA@XZ 000000018003d998 f   QtCore4:QtCore4.dll
 0001:0003c99e       ??0QFutureInterfaceBase@@QEAA@AEBV0@@Z 000000018003d99e f   QtCore4:QtCore4.dll
 0001:0003c9a4       ?waitForFinished@QFutureInterfaceBase@@QEAAXXZ 000000018003d9a4 f   QtCore4:QtCore4.dll
 0001:0003c9aa       ??4QFutureInterfaceBase@@QEAAAEAV0@AEBV0@@Z 000000018003d9aa f   QtCore4:QtCore4.dll
 0001:0003c9b0       ?start@QThreadPool@@QEAAXPEAVQRunnable@@H@Z 000000018003d9b0 f   QtCore4:QtCore4.dll
 0001:0003c9b6       ?globalInstance@QThreadPool@@SAPEAV1@XZ 000000018003d9b6 f   QtCore4:QtCore4.dll
 0001:0003c9bc       ?reportStarted@QFutureInterfaceBase@@QEAAXXZ 000000018003d9bc f   QtCore4:QtCore4.dll
 0001:0003c9c2       ?setRunnable@QFutureInterfaceBase@@QEAAXPEAVQRunnable@@@Z 000000018003d9c2 f   QtCore4:QtCore4.dll
 0001:0003c9c8       ?reportFinished@QFutureInterfaceBase@@QEAAXXZ 000000018003d9c8 f   QtCore4:QtCore4.dll
 0001:0003c9ce       ?isCanceled@QFutureInterfaceBase@@QEBA_NXZ 000000018003d9ce f   QtCore4:QtCore4.dll
 0001:0003c9d4       ?tr@QMetaObject@@QEBA?AVQString@@PEBD0@Z 000000018003d9d4 f   QtCore4:QtCore4.dll
 0001:0003c9da       ?append@QString@@QEAAAEAV1@PEBD@Z 000000018003d9da f   QtCore4:QtCore4.dll
 0001:0003c9e0       ??0QString@@QEAA@AEBV0@@Z  000000018003d9e0 f   QtCore4:QtCore4.dll
 0001:0003c9e6       ?detach@QListData@@QEAAPEAUData@1@H@Z 000000018003d9e6 f   QtCore4:QtCore4.dll
 0001:0003c9ec       ?qt_assert@@YAXPEBD0H@Z    000000018003d9ec f   QtCore4:QtCore4.dll
 0001:0003c9f2       ??1QFile@@UEAA@XZ          000000018003d9f2 f   QtCore4:QtCore4.dll
 0001:0003c9f8       ??1QTextStream@@UEAA@XZ    000000018003d9f8 f   QtCore4:QtCore4.dll
 0001:0003c9fe       ?append@QString@@QEAAAEAV1@AEBV1@@Z 000000018003d9fe f   QtCore4:QtCore4.dll
 0001:0003ca04       ?close@QFile@@UEAAXXZ      000000018003da04 f   QtCore4:QtCore4.dll
 0001:0003ca0a       ??6QTextStream@@QEAAAEAV0@AEBVQString@@@Z 000000018003da0a f   QtCore4:QtCore4.dll
 0001:0003ca10       ??6QTextStream@@QEAAAEAV0@PEBD@Z 000000018003da10 f   QtCore4:QtCore4.dll
 0001:0003ca16       ?atEnd@QTextStream@@QEBA_NXZ 000000018003da16 f   QtCore4:QtCore4.dll
 0001:0003ca1c       ?readLine@QTextStream@@QEAA?AVQString@@_J@Z 000000018003da1c f   QtCore4:QtCore4.dll
 0001:0003ca22       ??0QTextStream@@QEAA@PEAVQIODevice@@@Z 000000018003da22 f   QtCore4:QtCore4.dll
 0001:0003ca28       ?open@QFile@@UEAA_NV?$QFlags@W4OpenModeFlag@QIODevice@@@@@Z 000000018003da28 f   QtCore4:QtCore4.dll
 0001:0003ca2e       ??0QFile@@QEAA@AEBVQString@@@Z 000000018003da2e f   QtCore4:QtCore4.dll
 0001:0003ca34       ??1QRegExp@@QEAA@XZ        000000018003da34 f   QtCore4:QtCore4.dll
 0001:0003ca3a       ?split@QString@@QEBA?AVQStringList@@AEBVQRegExp@@W4SplitBehavior@1@@Z 000000018003da3a f   QtCore4:QtCore4.dll
 0001:0003ca40       ??0QRegExp@@QEAA@AEBVQString@@W4CaseSensitivity@Qt@@W4PatternSyntax@0@@Z 000000018003da40 f   QtCore4:QtCore4.dll
 0001:0003ca46       ??0QString@@QEAA@PEBD@Z    000000018003da46 f   QtCore4:QtCore4.dll
 0001:0003ca4c       ??8QBasicAtomicInt@@QEBA_NH@Z 000000018003da4c f   QtCore4:QtCore4.dll
 0001:0003ca52       ?deref@QBasicAtomicInt@@QEAA_NXZ 000000018003da52 f   QtCore4:QtCore4.dll
 0001:0003ca58       ?detach_grow@QListData@@QEAAPEAUData@1@PEAHH@Z 000000018003da58 f   QtCore4:QtCore4.dll
 0001:0003ca5e       ?append@QListData@@QEAAPEAPEAXXZ 000000018003da5e f   QtCore4:QtCore4.dll
 0001:0003ca64       ?arg@QString@@QEBA?AV1@HHHAEBVQChar@@@Z 000000018003da64 f   QtCore4:QtCore4.dll
 0001:0003ca6a       ??0QChar@@QEAA@UQLatin1Char@@@Z 000000018003da6a f   QtCore4:QtCore4.dll
 0001:0003ca70       ??4QString@@QEAAAEAV0@PEBD@Z 000000018003da70 f   QtCore4:QtCore4.dll
 0001:0003ca76       ?qt_metacast@QObject@@UEAAPEAXPEBD@Z 000000018003da76 f   QtCore4:QtCore4.dll
 0001:0003ca7c       ?qt_metacall@QObject@@UEAAHW4Call@QMetaObject@@HPEAPEAX@Z 000000018003da7c f   QtCore4:QtCore4.dll
 0001:0003ca82       ?setText@QAbstractButton@@QEAAXAEBVQString@@@Z 000000018003da82 f   QtGui4:QtGui4.dll
 0001:0003ca88       ?setText@QLabel@@QEAAXAEBVQString@@@Z 000000018003da88 f   QtGui4:QtGui4.dll
 0001:0003ca8e       ?setWindowTitle@QWidget@@QEAAXAEBVQString@@@Z 000000018003da8e f   QtGui4:QtGui4.dll
 0001:0003ca94       ?text@QLineEdit@@QEBA?AVQString@@XZ 000000018003da94 f   QtGui4:QtGui4.dll
 0001:0003ca9a       ?setText@QLineEdit@@QEAAXAEBVQString@@@Z 000000018003da9a f   QtGui4:QtGui4.dll
 0001:0003caa0       ?raise@QWidget@@QEAAXXZ    000000018003daa0 f   QtGui4:QtGui4.dll
 0001:0003caa6       ??0QTextBrowser@@QEAA@PEAVQWidget@@@Z 000000018003daa6 f   QtGui4:QtGui4.dll
 0001:0003caac       ??0QHBoxLayout@@QEAA@PEAVQWidget@@@Z 000000018003daac f   QtGui4:QtGui4.dll
 0001:0003cab2       ?addWidget@QSplitter@@QEAAXPEAVQWidget@@@Z 000000018003dab2 f   QtGui4:QtGui4.dll
 0001:0003cab8       ?setOrientation@QSplitter@@QEAAXW4Orientation@Qt@@@Z 000000018003dab8 f   QtGui4:QtGui4.dll
 0001:0003cabe       ??0QSplitter@@QEAA@PEAVQWidget@@@Z 000000018003dabe f   QtGui4:QtGui4.dll
 0001:0003cac4       ?addLayout@QBoxLayout@@QEAAXPEAVQLayout@@H@Z 000000018003dac4 f   QtGui4:QtGui4.dll
 0001:0003caca       ??0QPushButton@@QEAA@PEAVQWidget@@@Z 000000018003daca f   QtGui4:QtGui4.dll
 0001:0003cad0       ??0QLineEdit@@QEAA@PEAVQWidget@@@Z 000000018003dad0 f   QtGui4:QtGui4.dll
 0001:0003cad6       ?addWidget@QBoxLayout@@QEAAXPEAVQWidget@@HV?$QFlags@W4AlignmentFlag@Qt@@@@@Z 000000018003dad6 f   QtGui4:QtGui4.dll
 0001:0003cadc       ??0QRadioButton@@QEAA@PEAVQWidget@@@Z 000000018003dadc f   QtGui4:QtGui4.dll
 0001:0003cae2       ??0QHBoxLayout@@QEAA@XZ    000000018003dae2 f   QtGui4:QtGui4.dll
 0001:0003cae8       ??0QVBoxLayout@@QEAA@XZ    000000018003dae8 f   QtGui4:QtGui4.dll
 0001:0003caee       ?setContentsMargins@QLayout@@QEAAXHHHH@Z 000000018003daee f   QtGui4:QtGui4.dll
 0001:0003caf4       ??0QVBoxLayout@@QEAA@PEAVQWidget@@@Z 000000018003daf4 f   QtGui4:QtGui4.dll
 0001:0003cafa       ??0QWidget@@QEAA@PEAV0@V?$QFlags@W4WindowType@Qt@@@@@Z 000000018003dafa f   QtGui4:QtGui4.dll
 0001:0003cb00       ?setGeometry@QWidget@@QEAAXAEBVQRect@@@Z 000000018003db00 f   QtGui4:QtGui4.dll
 0001:0003cb06       ??0QLabel@@QEAA@PEAVQWidget@@V?$QFlags@W4WindowType@Qt@@@@@Z 000000018003db06 f   QtGui4:QtGui4.dll
 0001:0003cb0c       ?resize@QWidget@@QEAAXAEBVQSize@@@Z 000000018003db0c f   QtGui4:QtGui4.dll
 0001:0003cb12       ?metaObject@QLabel@@UEBAPEBUQMetaObject@@XZ 000000018003db12 f   QtGui4:QtGui4.dll
 0001:0003cb18       ?qt_metacast@QLabel@@UEAAPEAXPEBD@Z 000000018003db18 f   QtGui4:QtGui4.dll
 0001:0003cb1e       ?qt_metacall@QLabel@@UEAAHW4Call@QMetaObject@@HPEAPEAX@Z 000000018003db1e f   QtGui4:QtGui4.dll
 0001:0003cb24       ?event@QLabel@@MEAA_NPEAVQEvent@@@Z 000000018003db24 f   QtGui4:QtGui4.dll
 0001:0003cb2a       ?setVisible@QWidget@@UEAAX_N@Z 000000018003db2a f   QtGui4:QtGui4.dll
 0001:0003cb30       ?sizeHint@QLabel@@UEBA?AVQSize@@XZ 000000018003db30 f   QtGui4:QtGui4.dll
 0001:0003cb36       ?minimumSizeHint@QLabel@@UEBA?AVQSize@@XZ 000000018003db36 f   QtGui4:QtGui4.dll
 0001:0003cb3c       ?heightForWidth@QLabel@@UEBAHH@Z 000000018003db3c f   QtGui4:QtGui4.dll
 0001:0003cb42       ?mousePressEvent@QLabel@@MEAAXPEAVQMouseEvent@@@Z 000000018003db42 f   QtGui4:QtGui4.dll
 0001:0003cb48       ?mouseReleaseEvent@QLabel@@MEAAXPEAVQMouseEvent@@@Z 000000018003db48 f   QtGui4:QtGui4.dll
 0001:0003cb4e       ?mouseDoubleClickEvent@QWidget@@MEAAXPEAVQMouseEvent@@@Z 000000018003db4e f   QtGui4:QtGui4.dll
 0001:0003cb54       ?mouseMoveEvent@QLabel@@MEAAXPEAVQMouseEvent@@@Z 000000018003db54 f   QtGui4:QtGui4.dll
 0001:0003cb5a       ?wheelEvent@QWidget@@MEAAXPEAVQWheelEvent@@@Z 000000018003db5a f   QtGui4:QtGui4.dll
 0001:0003cb60       ?keyPressEvent@QLabel@@MEAAXPEAVQKeyEvent@@@Z 000000018003db60 f   QtGui4:QtGui4.dll
 0001:0003cb66       ?keyReleaseEvent@QWidget@@MEAAXPEAVQKeyEvent@@@Z 000000018003db66 f   QtGui4:QtGui4.dll
 0001:0003cb6c       ?focusInEvent@QLabel@@MEAAXPEAVQFocusEvent@@@Z 000000018003db6c f   QtGui4:QtGui4.dll
 0001:0003cb72       ?focusOutEvent@QLabel@@MEAAXPEAVQFocusEvent@@@Z 000000018003db72 f   QtGui4:QtGui4.dll
 0001:0003cb78       ?enterEvent@QWidget@@MEAAXPEAVQEvent@@@Z 000000018003db78 f   QtGui4:QtGui4.dll
 0001:0003cb7e       ?leaveEvent@QWidget@@MEAAXPEAVQEvent@@@Z 000000018003db7e f   QtGui4:QtGui4.dll
 0001:0003cb84       ?paintEvent@QLabel@@MEAAXPEAVQPaintEvent@@@Z 000000018003db84 f   QtGui4:QtGui4.dll
 0001:0003cb8a       ?moveEvent@QWidget@@MEAAXPEAVQMoveEvent@@@Z 000000018003db8a f   QtGui4:QtGui4.dll
 0001:0003cb90       ?resizeEvent@QWidget@@MEAAXPEAVQResizeEvent@@@Z 000000018003db90 f   QtGui4:QtGui4.dll
 0001:0003cb96       ?closeEvent@QWidget@@MEAAXPEAVQCloseEvent@@@Z 000000018003db96 f   QtGui4:QtGui4.dll
 0001:0003cb9c       ?contextMenuEvent@QLabel@@MEAAXPEAVQContextMenuEvent@@@Z 000000018003db9c f   QtGui4:QtGui4.dll
 0001:0003cba2       ?tabletEvent@QWidget@@MEAAXPEAVQTabletEvent@@@Z 000000018003dba2 f   QtGui4:QtGui4.dll
 0001:0003cba8       ?actionEvent@QWidget@@MEAAXPEAVQActionEvent@@@Z 000000018003dba8 f   QtGui4:QtGui4.dll
 0001:0003cbae       ?dragEnterEvent@QWidget@@MEAAXPEAVQDragEnterEvent@@@Z 000000018003dbae f   QtGui4:QtGui4.dll
 0001:0003cbb4       ?dragMoveEvent@QWidget@@MEAAXPEAVQDragMoveEvent@@@Z 000000018003dbb4 f   QtGui4:QtGui4.dll
 0001:0003cbba       ?dragLeaveEvent@QWidget@@MEAAXPEAVQDragLeaveEvent@@@Z 000000018003dbba f   QtGui4:QtGui4.dll
 0001:0003cbc0       ?dropEvent@QWidget@@MEAAXPEAVQDropEvent@@@Z 000000018003dbc0 f   QtGui4:QtGui4.dll
 0001:0003cbc6       ?showEvent@QWidget@@MEAAXPEAVQShowEvent@@@Z 000000018003dbc6 f   QtGui4:QtGui4.dll
 0001:0003cbcc       ?hideEvent@QWidget@@MEAAXPEAVQHideEvent@@@Z 000000018003dbcc f   QtGui4:QtGui4.dll
 0001:0003cbd2       ?winEvent@QWidget@@MEAA_NPEAUtagMSG@@PEAJ@Z 000000018003dbd2 f   QtGui4:QtGui4.dll
 0001:0003cbd8       ?changeEvent@QLabel@@MEAAXPEAVQEvent@@@Z 000000018003dbd8 f   QtGui4:QtGui4.dll
 0001:0003cbde       ?inputMethodEvent@QWidget@@MEAAXPEAVQInputMethodEvent@@@Z 000000018003dbde f   QtGui4:QtGui4.dll
 0001:0003cbe4       ?inputMethodQuery@QWidget@@UEBA?AVQVariant@@W4InputMethodQuery@Qt@@@Z 000000018003dbe4 f   QtGui4:QtGui4.dll
 0001:0003cbea       ?focusNextPrevChild@QLabel@@MEAA_N_N@Z 000000018003dbea f   QtGui4:QtGui4.dll
 0001:0003cbf0       ?styleChange@QWidget@@MEAAXAEAVQStyle@@@Z 000000018003dbf0 f   QtGui4:QtGui4.dll
 0001:0003cbf6       ?enabledChange@QWidget@@MEAAX_N@Z 000000018003dbf6 f   QtGui4:QtGui4.dll
 0001:0003cbfc       ?paletteChange@QWidget@@MEAAXAEBVQPalette@@@Z 000000018003dbfc f   QtGui4:QtGui4.dll
 0001:0003cc02       ?fontChange@QWidget@@MEAAXAEBVQFont@@@Z 000000018003dc02 f   QtGui4:QtGui4.dll
 0001:0003cc08       ?windowActivationChange@QWidget@@MEAAX_N@Z 000000018003dc08 f   QtGui4:QtGui4.dll
 0001:0003cc0e       ?languageChange@QWidget@@MEAAXXZ 000000018003dc0e f   QtGui4:QtGui4.dll
 0001:0003cc14       ?devType@QWidget@@UEBAHXZ  000000018003dc14 f   QtGui4:QtGui4.dll
 0001:0003cc1a       ?paintEngine@QWidget@@UEBAPEAVQPaintEngine@@XZ 000000018003dc1a f   QtGui4:QtGui4.dll
 0001:0003cc20       ?getDC@QWidget@@UEBAPEAUHDC__@@XZ 000000018003dc20 f   QtGui4:QtGui4.dll
 0001:0003cc26       ?releaseDC@QWidget@@UEBAXPEAUHDC__@@@Z 000000018003dc26 f   QtGui4:QtGui4.dll
 0001:0003cc2c       ?metric@QWidget@@MEBAHW4PaintDeviceMetric@QPaintDevice@@@Z 000000018003dc2c f   QtGui4:QtGui4.dll
 0001:0003cc32       ?metaObject@QWidget@@UEBAPEBUQMetaObject@@XZ 000000018003dc32 f   QtGui4:QtGui4.dll
 0001:0003cc38       ?qt_metacast@QWidget@@UEAAPEAXPEBD@Z 000000018003dc38 f   QtGui4:QtGui4.dll
 0001:0003cc3e       ?qt_metacall@QWidget@@UEAAHW4Call@QMetaObject@@HPEAPEAX@Z 000000018003dc3e f   QtGui4:QtGui4.dll
 0001:0003cc44       ?event@QWidget@@MEAA_NPEAVQEvent@@@Z 000000018003dc44 f   QtGui4:QtGui4.dll
 0001:0003cc4a       ?sizeHint@QWidget@@UEBA?AVQSize@@XZ 000000018003dc4a f   QtGui4:QtGui4.dll
 0001:0003cc50       ?minimumSizeHint@QWidget@@UEBA?AVQSize@@XZ 000000018003dc50 f   QtGui4:QtGui4.dll
 0001:0003cc56       ?heightForWidth@QWidget@@UEBAHH@Z 000000018003dc56 f   QtGui4:QtGui4.dll
 0001:0003cc5c       ?mousePressEvent@QWidget@@MEAAXPEAVQMouseEvent@@@Z 000000018003dc5c f   QtGui4:QtGui4.dll
 0001:0003cc62       ?mouseReleaseEvent@QWidget@@MEAAXPEAVQMouseEvent@@@Z 000000018003dc62 f   QtGui4:QtGui4.dll
 0001:0003cc68       ?mouseMoveEvent@QWidget@@MEAAXPEAVQMouseEvent@@@Z 000000018003dc68 f   QtGui4:QtGui4.dll
 0001:0003cc6e       ?keyPressEvent@QWidget@@MEAAXPEAVQKeyEvent@@@Z 000000018003dc6e f   QtGui4:QtGui4.dll
 0001:0003cc74       ?focusInEvent@QWidget@@MEAAXPEAVQFocusEvent@@@Z 000000018003dc74 f   QtGui4:QtGui4.dll
 0001:0003cc7a       ?focusOutEvent@QWidget@@MEAAXPEAVQFocusEvent@@@Z 000000018003dc7a f   QtGui4:QtGui4.dll
 0001:0003cc80       ?paintEvent@QWidget@@MEAAXPEAVQPaintEvent@@@Z 000000018003dc80 f   QtGui4:QtGui4.dll
 0001:0003cc86       ?contextMenuEvent@QWidget@@MEAAXPEAVQContextMenuEvent@@@Z 000000018003dc86 f   QtGui4:QtGui4.dll
 0001:0003cc8c       ?changeEvent@QWidget@@MEAAXPEAVQEvent@@@Z 000000018003dc8c f   QtGui4:QtGui4.dll
 0001:0003cc92       ?focusNextPrevChild@QWidget@@MEAA_N_N@Z 000000018003dc92 f   QtGui4:QtGui4.dll
 0001:0003cc98       ?metaObject@QVBoxLayout@@UEBAPEBUQMetaObject@@XZ 000000018003dc98 f   QtGui4:QtGui4.dll
 0001:0003cc9e       ?qt_metacast@QVBoxLayout@@UEAAPEAXPEBD@Z 000000018003dc9e f   QtGui4:QtGui4.dll
 0001:0003cca4       ?qt_metacall@QVBoxLayout@@UEAAHW4Call@QMetaObject@@HPEAPEAX@Z 000000018003dca4 f   QtGui4:QtGui4.dll
 0001:0003ccaa       ?childEvent@QLayout@@MEAAXPEAVQChildEvent@@@Z 000000018003dcaa f   QtGui4:QtGui4.dll
 0001:0003ccb0       ?addItem@QBoxLayout@@UEAAXPEAVQLayoutItem@@@Z 000000018003dcb0 f   QtGui4:QtGui4.dll
 0001:0003ccb6       ?itemAt@QBoxLayout@@UEBAPEAVQLayoutItem@@H@Z 000000018003dcb6 f   QtGui4:QtGui4.dll
 0001:0003ccbc       ?takeAt@QBoxLayout@@UEAAPEAVQLayoutItem@@H@Z 000000018003dcbc f   QtGui4:QtGui4.dll
 0001:0003ccc2       ?indexOf@QLayout@@UEBAHPEAVQWidget@@@Z 000000018003dcc2 f   QtGui4:QtGui4.dll
 0001:0003ccc8       ?count@QBoxLayout@@UEBAHXZ 000000018003dcc8 f   QtGui4:QtGui4.dll
 0001:0003ccce       ?sizeHint@QBoxLayout@@UEBA?AVQSize@@XZ 000000018003dcce f   QtGui4:QtGui4.dll
 0001:0003ccd4       ?minimumSize@QBoxLayout@@UEBA?AVQSize@@XZ 000000018003dcd4 f   QtGui4:QtGui4.dll
 0001:0003ccda       ?maximumSize@QBoxLayout@@UEBA?AVQSize@@XZ 000000018003dcda f   QtGui4:QtGui4.dll
 0001:0003cce0       ?expandingDirections@QBoxLayout@@UEBA?AV?$QFlags@W4Orientation@Qt@@@@XZ 000000018003dce0 f   QtGui4:QtGui4.dll
 0001:0003cce6       ?setGeometry@QBoxLayout@@UEAAXAEBVQRect@@@Z 000000018003dce6 f   QtGui4:QtGui4.dll
 0001:0003ccec       ?geometry@QLayout@@UEBA?AVQRect@@XZ 000000018003dcec f   QtGui4:QtGui4.dll
 0001:0003ccf2       ?isEmpty@QLayout@@UEBA_NXZ 000000018003dcf2 f   QtGui4:QtGui4.dll
 0001:0003ccf8       ?hasHeightForWidth@QBoxLayout@@UEBA_NXZ 000000018003dcf8 f   QtGui4:QtGui4.dll
 0001:0003ccfe       ?heightForWidth@QBoxLayout@@UEBAHH@Z 000000018003dcfe f   QtGui4:QtGui4.dll
 0001:0003cd04       ?minimumHeightForWidth@QBoxLayout@@UEBAHH@Z 000000018003dd04 f   QtGui4:QtGui4.dll
 0001:0003cd0a       ?invalidate@QBoxLayout@@UEAAXXZ 000000018003dd0a f   QtGui4:QtGui4.dll
 0001:0003cd10       ?widget@QLayoutItem@@UEAAPEAVQWidget@@XZ 000000018003dd10 f   QtGui4:QtGui4.dll
 0001:0003cd16       ?layout@QLayout@@UEAAPEAV1@XZ 000000018003dd16 f   QtGui4:QtGui4.dll
 0001:0003cd1c       ?spacerItem@QLayoutItem@@UEAAPEAVQSpacerItem@@XZ 000000018003dd1c f   QtGui4:QtGui4.dll
 0001:0003cd22       ?metaObject@QHBoxLayout@@UEBAPEBUQMetaObject@@XZ 000000018003dd22 f   QtGui4:QtGui4.dll
 0001:0003cd28       ?qt_metacast@QHBoxLayout@@UEAAPEAXPEBD@Z 000000018003dd28 f   QtGui4:QtGui4.dll
 0001:0003cd2e       ?qt_metacall@QHBoxLayout@@UEAAHW4Call@QMetaObject@@HPEAPEAX@Z 000000018003dd2e f   QtGui4:QtGui4.dll
 0001:0003cd34       ?metaObject@QRadioButton@@UEBAPEBUQMetaObject@@XZ 000000018003dd34 f   QtGui4:QtGui4.dll
 0001:0003cd3a       ?qt_metacast@QRadioButton@@UEAAPEAXPEBD@Z 000000018003dd3a f   QtGui4:QtGui4.dll
 0001:0003cd40       ?qt_metacall@QRadioButton@@UEAAHW4Call@QMetaObject@@HPEAPEAX@Z 000000018003dd40 f   QtGui4:QtGui4.dll
 0001:0003cd46       ?event@QRadioButton@@MEAA_NPEAVQEvent@@@Z 000000018003dd46 f   QtGui4:QtGui4.dll
 0001:0003cd4c       ?timerEvent@QAbstractButton@@MEAAXPEAVQTimerEvent@@@Z 000000018003dd4c f   QtGui4:QtGui4.dll
 0001:0003cd52       ?sizeHint@QRadioButton@@UEBA?AVQSize@@XZ 000000018003dd52 f   QtGui4:QtGui4.dll
 0001:0003cd58       ?mousePressEvent@QAbstractButton@@MEAAXPEAVQMouseEvent@@@Z 000000018003dd58 f   QtGui4:QtGui4.dll
 0001:0003cd5e       ?mouseReleaseEvent@QAbstractButton@@MEAAXPEAVQMouseEvent@@@Z 000000018003dd5e f   QtGui4:QtGui4.dll
 0001:0003cd64       ?mouseMoveEvent@QRadioButton@@MEAAXPEAVQMouseEvent@@@Z 000000018003dd64 f   QtGui4:QtGui4.dll
 0001:0003cd6a       ?keyPressEvent@QAbstractButton@@MEAAXPEAVQKeyEvent@@@Z 000000018003dd6a f   QtGui4:QtGui4.dll
 0001:0003cd70       ?keyReleaseEvent@QAbstractButton@@MEAAXPEAVQKeyEvent@@@Z 000000018003dd70 f   QtGui4:QtGui4.dll
 0001:0003cd76       ?focusInEvent@QAbstractButton@@MEAAXPEAVQFocusEvent@@@Z 000000018003dd76 f   QtGui4:QtGui4.dll
 0001:0003cd7c       ?focusOutEvent@QAbstractButton@@MEAAXPEAVQFocusEvent@@@Z 000000018003dd7c f   QtGui4:QtGui4.dll
 0001:0003cd82       ?paintEvent@QRadioButton@@MEAAXPEAVQPaintEvent@@@Z 000000018003dd82 f   QtGui4:QtGui4.dll
 0001:0003cd88       ?changeEvent@QAbstractButton@@MEAAXPEAVQEvent@@@Z 000000018003dd88 f   QtGui4:QtGui4.dll
 0001:0003cd8e       ?hitButton@QRadioButton@@MEBA_NAEBVQPoint@@@Z 000000018003dd8e f   QtGui4:QtGui4.dll
 0001:0003cd94       ?checkStateSet@QAbstractButton@@MEAAXXZ 000000018003dd94 f   QtGui4:QtGui4.dll
 0001:0003cd9a       ?nextCheckState@QAbstractButton@@MEAAXXZ 000000018003dd9a f   QtGui4:QtGui4.dll
 0001:0003cda0       ?metaObject@QLineEdit@@UEBAPEBUQMetaObject@@XZ 000000018003dda0 f   QtGui4:QtGui4.dll
 0001:0003cda6       ?qt_metacast@QLineEdit@@UEAAPEAXPEBD@Z 000000018003dda6 f   QtGui4:QtGui4.dll
 0001:0003cdac       ?qt_metacall@QLineEdit@@UEAAHW4Call@QMetaObject@@HPEAPEAX@Z 000000018003ddac f   QtGui4:QtGui4.dll
 0001:0003cdb2       ?event@QLineEdit@@UEAA_NPEAVQEvent@@@Z 000000018003ddb2 f   QtGui4:QtGui4.dll
 0001:0003cdb8       ?sizeHint@QLineEdit@@UEBA?AVQSize@@XZ 000000018003ddb8 f   QtGui4:QtGui4.dll
 0001:0003cdbe       ?minimumSizeHint@QLineEdit@@UEBA?AVQSize@@XZ 000000018003ddbe f   QtGui4:QtGui4.dll
 0001:0003cdc4       ?mousePressEvent@QLineEdit@@MEAAXPEAVQMouseEvent@@@Z 000000018003ddc4 f   QtGui4:QtGui4.dll
 0001:0003cdca       ?mouseReleaseEvent@QLineEdit@@MEAAXPEAVQMouseEvent@@@Z 000000018003ddca f   QtGui4:QtGui4.dll
 0001:0003cdd0       ?mouseDoubleClickEvent@QLineEdit@@MEAAXPEAVQMouseEvent@@@Z 000000018003ddd0 f   QtGui4:QtGui4.dll
 0001:0003cdd6       ?mouseMoveEvent@QLineEdit@@MEAAXPEAVQMouseEvent@@@Z 000000018003ddd6 f   QtGui4:QtGui4.dll
 0001:0003cddc       ?keyPressEvent@QLineEdit@@MEAAXPEAVQKeyEvent@@@Z 000000018003dddc f   QtGui4:QtGui4.dll
 0001:0003cde2       ?focusInEvent@QLineEdit@@MEAAXPEAVQFocusEvent@@@Z 000000018003dde2 f   QtGui4:QtGui4.dll
 0001:0003cde8       ?focusOutEvent@QLineEdit@@MEAAXPEAVQFocusEvent@@@Z 000000018003dde8 f   QtGui4:QtGui4.dll
 0001:0003cdee       ?paintEvent@QLineEdit@@MEAAXPEAVQPaintEvent@@@Z 000000018003ddee f   QtGui4:QtGui4.dll
 0001:0003cdf4       ?contextMenuEvent@QLineEdit@@MEAAXPEAVQContextMenuEvent@@@Z 000000018003ddf4 f   QtGui4:QtGui4.dll
 0001:0003cdfa       ?dragEnterEvent@QLineEdit@@MEAAXPEAVQDragEnterEvent@@@Z 000000018003ddfa f   QtGui4:QtGui4.dll
 0001:0003ce00       ?dragMoveEvent@QLineEdit@@MEAAXPEAVQDragMoveEvent@@@Z 000000018003de00 f   QtGui4:QtGui4.dll
 0001:0003ce06       ?dragLeaveEvent@QLineEdit@@MEAAXPEAVQDragLeaveEvent@@@Z 000000018003de06 f   QtGui4:QtGui4.dll
 0001:0003ce0c       ?dropEvent@QLineEdit@@MEAAXPEAVQDropEvent@@@Z 000000018003de0c f   QtGui4:QtGui4.dll
 0001:0003ce12       ?changeEvent@QLineEdit@@MEAAXPEAVQEvent@@@Z 000000018003de12 f   QtGui4:QtGui4.dll
 0001:0003ce18       ?inputMethodEvent@QLineEdit@@MEAAXPEAVQInputMethodEvent@@@Z 000000018003de18 f   QtGui4:QtGui4.dll
 0001:0003ce1e       ?inputMethodQuery@QLineEdit@@UEBA?AVQVariant@@W4InputMethodQuery@Qt@@@Z 000000018003de1e f   QtGui4:QtGui4.dll
 0001:0003ce24       ?metaObject@QPushButton@@UEBAPEBUQMetaObject@@XZ 000000018003de24 f   QtGui4:QtGui4.dll
 0001:0003ce2a       ?qt_metacast@QPushButton@@UEAAPEAXPEBD@Z 000000018003de2a f   QtGui4:QtGui4.dll
 0001:0003ce30       ?qt_metacall@QPushButton@@UEAAHW4Call@QMetaObject@@HPEAPEAX@Z 000000018003de30 f   QtGui4:QtGui4.dll
 0001:0003ce36       ?event@QPushButton@@MEAA_NPEAVQEvent@@@Z 000000018003de36 f   QtGui4:QtGui4.dll
 0001:0003ce3c       ?sizeHint@QPushButton@@UEBA?AVQSize@@XZ 000000018003de3c f   QtGui4:QtGui4.dll
 0001:0003ce42       ?minimumSizeHint@QPushButton@@UEBA?AVQSize@@XZ 000000018003de42 f   QtGui4:QtGui4.dll
 0001:0003ce48       ?mouseMoveEvent@QAbstractButton@@MEAAXPEAVQMouseEvent@@@Z 000000018003de48 f   QtGui4:QtGui4.dll
 0001:0003ce4e       ?keyPressEvent@QPushButton@@MEAAXPEAVQKeyEvent@@@Z 000000018003de4e f   QtGui4:QtGui4.dll
 0001:0003ce54       ?focusInEvent@QPushButton@@MEAAXPEAVQFocusEvent@@@Z 000000018003de54 f   QtGui4:QtGui4.dll
 0001:0003ce5a       ?focusOutEvent@QPushButton@@MEAAXPEAVQFocusEvent@@@Z 000000018003de5a f   QtGui4:QtGui4.dll
 0001:0003ce60       ?paintEvent@QPushButton@@MEAAXPEAVQPaintEvent@@@Z 000000018003de60 f   QtGui4:QtGui4.dll
 0001:0003ce66       ?hitButton@QAbstractButton@@MEBA_NAEBVQPoint@@@Z 000000018003de66 f   QtGui4:QtGui4.dll
 0001:0003ce6c       ?metaObject@QSplitter@@UEBAPEBUQMetaObject@@XZ 000000018003de6c f   QtGui4:QtGui4.dll
 0001:0003ce72       ?qt_metacast@QSplitter@@UEAAPEAXPEBD@Z 000000018003de72 f   QtGui4:QtGui4.dll
 0001:0003ce78       ?qt_metacall@QSplitter@@UEAAHW4Call@QMetaObject@@HPEAPEAX@Z 000000018003de78 f   QtGui4:QtGui4.dll
 0001:0003ce7e       ?event@QSplitter@@MEAA_NPEAVQEvent@@@Z 000000018003de7e f   QtGui4:QtGui4.dll
 0001:0003ce84       ?childEvent@QSplitter@@MEAAXPEAVQChildEvent@@@Z 000000018003de84 f   QtGui4:QtGui4.dll
 0001:0003ce8a       ?sizeHint@QSplitter@@UEBA?AVQSize@@XZ 000000018003de8a f   QtGui4:QtGui4.dll
 0001:0003ce90       ?minimumSizeHint@QSplitter@@UEBA?AVQSize@@XZ 000000018003de90 f   QtGui4:QtGui4.dll
 0001:0003ce96       ?paintEvent@QFrame@@MEAAXPEAVQPaintEvent@@@Z 000000018003de96 f   QtGui4:QtGui4.dll
 0001:0003ce9c       ?resizeEvent@QSplitter@@MEAAXPEAVQResizeEvent@@@Z 000000018003de9c f   QtGui4:QtGui4.dll
 0001:0003cea2       ?changeEvent@QSplitter@@MEAAXPEAVQEvent@@@Z 000000018003dea2 f   QtGui4:QtGui4.dll
 0001:0003cea8       ?createHandle@QSplitter@@MEAAPEAVQSplitterHandle@@XZ 000000018003dea8 f   QtGui4:QtGui4.dll
 0001:0003ceae       ?metaObject@QTextBrowser@@UEBAPEBUQMetaObject@@XZ 000000018003deae f   QtGui4:QtGui4.dll
 0001:0003ceb4       ?qt_metacast@QTextBrowser@@UEAAPEAXPEBD@Z 000000018003deb4 f   QtGui4:QtGui4.dll
 0001:0003ceba       ?qt_metacall@QTextBrowser@@UEAAHW4Call@QMetaObject@@HPEAPEAX@Z 000000018003deba f   QtGui4:QtGui4.dll
 0001:0003cec0       ?event@QTextBrowser@@MEAA_NPEAVQEvent@@@Z 000000018003dec0 f   QtGui4:QtGui4.dll
 0001:0003cec6       ?timerEvent@QTextEdit@@MEAAXPEAVQTimerEvent@@@Z 000000018003dec6 f   QtGui4:QtGui4.dll
 0001:0003cecc       ?sizeHint@QAbstractScrollArea@@UEBA?AVQSize@@XZ 000000018003decc f   QtGui4:QtGui4.dll
 0001:0003ced2       ?minimumSizeHint@QAbstractScrollArea@@UEBA?AVQSize@@XZ 000000018003ded2 f   QtGui4:QtGui4.dll
 0001:0003ced8       ?mousePressEvent@QTextBrowser@@MEAAXPEAVQMouseEvent@@@Z 000000018003ded8 f   QtGui4:QtGui4.dll
 0001:0003cede       ?mouseReleaseEvent@QTextBrowser@@MEAAXPEAVQMouseEvent@@@Z 000000018003dede f   QtGui4:QtGui4.dll
 0001:0003cee4       ?mouseDoubleClickEvent@QTextEdit@@MEAAXPEAVQMouseEvent@@@Z 000000018003dee4 f   QtGui4:QtGui4.dll
 0001:0003ceea       ?mouseMoveEvent@QTextBrowser@@MEAAXPEAVQMouseEvent@@@Z 000000018003deea f   QtGui4:QtGui4.dll
 0001:0003cef0       ?wheelEvent@QTextEdit@@MEAAXPEAVQWheelEvent@@@Z 000000018003def0 f   QtGui4:QtGui4.dll
 0001:0003cef6       ?keyPressEvent@QTextBrowser@@MEAAXPEAVQKeyEvent@@@Z 000000018003def6 f   QtGui4:QtGui4.dll
 0001:0003cefc       ?keyReleaseEvent@QTextEdit@@MEAAXPEAVQKeyEvent@@@Z 000000018003defc f   QtGui4:QtGui4.dll
 0001:0003cf02       ?focusInEvent@QTextEdit@@MEAAXPEAVQFocusEvent@@@Z 000000018003df02 f   QtGui4:QtGui4.dll
 0001:0003cf08       ?focusOutEvent@QTextBrowser@@MEAAXPEAVQFocusEvent@@@Z 000000018003df08 f   QtGui4:QtGui4.dll
 0001:0003cf0e       ?paintEvent@QTextBrowser@@MEAAXPEAVQPaintEvent@@@Z 000000018003df0e f   QtGui4:QtGui4.dll
 0001:0003cf14       ?resizeEvent@QTextEdit@@MEAAXPEAVQResizeEvent@@@Z 000000018003df14 f   QtGui4:QtGui4.dll
 0001:0003cf1a       ?contextMenuEvent@QTextEdit@@MEAAXPEAVQContextMenuEvent@@@Z 000000018003df1a f   QtGui4:QtGui4.dll
 0001:0003cf20       ?dragEnterEvent@QTextEdit@@MEAAXPEAVQDragEnterEvent@@@Z 000000018003df20 f   QtGui4:QtGui4.dll
 0001:0003cf26       ?dragMoveEvent@QTextEdit@@MEAAXPEAVQDragMoveEvent@@@Z 000000018003df26 f   QtGui4:QtGui4.dll
 0001:0003cf2c       ?dragLeaveEvent@QTextEdit@@MEAAXPEAVQDragLeaveEvent@@@Z 000000018003df2c f   QtGui4:QtGui4.dll
 0001:0003cf32       ?dropEvent@QTextEdit@@MEAAXPEAVQDropEvent@@@Z 000000018003df32 f   QtGui4:QtGui4.dll
 0001:0003cf38       ?showEvent@QTextEdit@@MEAAXPEAVQShowEvent@@@Z 000000018003df38 f   QtGui4:QtGui4.dll
 0001:0003cf3e       ?changeEvent@QTextEdit@@MEAAXPEAVQEvent@@@Z 000000018003df3e f   QtGui4:QtGui4.dll
 0001:0003cf44       ?inputMethodEvent@QTextEdit@@MEAAXPEAVQInputMethodEvent@@@Z 000000018003df44 f   QtGui4:QtGui4.dll
 0001:0003cf4a       ?inputMethodQuery@QTextEdit@@MEBA?AVQVariant@@W4InputMethodQuery@Qt@@@Z 000000018003df4a f   QtGui4:QtGui4.dll
 0001:0003cf50       ?focusNextPrevChild@QTextBrowser@@MEAA_N_N@Z 000000018003df50 f   QtGui4:QtGui4.dll
 0001:0003cf56       ?viewportEvent@QAbstractScrollArea@@MEAA_NPEAVQEvent@@@Z 000000018003df56 f   QtGui4:QtGui4.dll
 0001:0003cf5c       ?scrollContentsBy@QTextEdit@@MEAAXHH@Z 000000018003df5c f   QtGui4:QtGui4.dll
 0001:0003cf62       ?loadResource@QTextBrowser@@UEAA?AVQVariant@@HAEBVQUrl@@@Z 000000018003df62 f   QtGui4:QtGui4.dll
 0001:0003cf68       ?createMimeDataFromSelection@QTextEdit@@MEBAPEAVQMimeData@@XZ 000000018003df68 f   QtGui4:QtGui4.dll
 0001:0003cf6e       ?canInsertFromMimeData@QTextEdit@@MEBA_NPEBVQMimeData@@@Z 000000018003df6e f   QtGui4:QtGui4.dll
 0001:0003cf74       ?insertFromMimeData@QTextEdit@@MEAAXPEBVQMimeData@@@Z 000000018003df74 f   QtGui4:QtGui4.dll
 0001:0003cf7a       ?setSource@QTextBrowser@@UEAAXAEBVQUrl@@@Z 000000018003df7a f   QtGui4:QtGui4.dll
 0001:0003cf80       ?backward@QTextBrowser@@UEAAXXZ 000000018003df80 f   QtGui4:QtGui4.dll
 0001:0003cf86       ?forward@QTextBrowser@@UEAAXXZ 000000018003df86 f   QtGui4:QtGui4.dll
 0001:0003cf8c       ?home@QTextBrowser@@UEAAXXZ 000000018003df8c f   QtGui4:QtGui4.dll
 0001:0003cf92       ?reload@QTextBrowser@@UEAAXXZ 000000018003df92 f   QtGui4:QtGui4.dll
 0001:0003cf98       ??1QLabel@@UEAA@XZ         000000018003df98 f   QtGui4:QtGui4.dll
 0001:0003cf9e       ??1QWidget@@UEAA@XZ        000000018003df9e f   QtGui4:QtGui4.dll
 0001:0003cfa4       ??1QVBoxLayout@@UEAA@XZ    000000018003dfa4 f   QtGui4:QtGui4.dll
 0001:0003cfaa       ??1QHBoxLayout@@UEAA@XZ    000000018003dfaa f   QtGui4:QtGui4.dll
 0001:0003cfb0       ??1QAbstractButton@@UEAA@XZ 000000018003dfb0 f   QtGui4:QtGui4.dll
 0001:0003cfb6       ??1QLineEdit@@UEAA@XZ      000000018003dfb6 f   QtGui4:QtGui4.dll
 0001:0003cfbc       ??1QPushButton@@UEAA@XZ    000000018003dfbc f   QtGui4:QtGui4.dll
 0001:0003cfc2       ??1QSplitter@@UEAA@XZ      000000018003dfc2 f   QtGui4:QtGui4.dll
 0001:0003cfc8       ??1QTextBrowser@@UEAA@XZ   000000018003dfc8 f   QtGui4:QtGui4.dll
 0001:0003cfce       ?setText@QTextEdit@@QEAAXAEBVQString@@@Z 000000018003dfce f   QtGui4:QtGui4.dll
 0001:0003cfd4       ?show@QWidget@@QEAAXXZ     000000018003dfd4 f   QtGui4:QtGui4.dll
 0001:0003cfda       ?setSpacing@QBoxLayout@@QEAAXH@Z 000000018003dfda f   QtGui4:QtGui4.dll
 0001:0003cfe0       ?getExistingDirectory@QFileDialog@@SA?AVQString@@PEAVQWidget@@AEBV2@1V?$QFlags@W4Option@QFileDialog@@@@@Z 000000018003dfe0 f   QtGui4:QtGui4.dll
 0001:0003cfe6       ?text@QLabel@@QEBA?AVQString@@XZ 000000018003dfe6 f   QtGui4:QtGui4.dll
 0001:0003cfec       ?getOpenFileName@QFileDialog@@SA?AVQString@@PEAVQWidget@@AEBV2@11PEAV2@V?$QFlags@W4Option@QFileDialog@@@@@Z 000000018003dfec f   QtGui4:QtGui4.dll
 0001:0003cff2       ?append@QTextEdit@@QEAAXAEBVQString@@@Z 000000018003dff2 f   QtGui4:QtGui4.dll
 0001:0003cff8       ?information@QMessageBox@@SA?AW4StandardButton@1@PEAVQWidget@@AEBVQString@@1V?$QFlags@W4StandardButton@QMessageBox@@@@W421@@Z 000000018003dff8 f   QtGui4:QtGui4.dll
 0001:0003cffe       ??1QDialog@@UEAA@XZ        000000018003dffe f   QtGui4:QtGui4.dll
 0001:0003d004       ??0QDialog@@QEAA@PEAVQWidget@@V?$QFlags@W4WindowType@Qt@@@@@Z 000000018003e004 f   QtGui4:QtGui4.dll
 0001:0003d00a       ?eventFilter@QDialog@@MEAA_NPEAVQObject@@PEAVQEvent@@@Z 000000018003e00a f   QtGui4:QtGui4.dll
 0001:0003d010       ?setVisible@QDialog@@UEAAX_N@Z 000000018003e010 f   QtGui4:QtGui4.dll
 0001:0003d016       ?sizeHint@QDialog@@UEBA?AVQSize@@XZ 000000018003e016 f   QtGui4:QtGui4.dll
 0001:0003d01c       ?minimumSizeHint@QDialog@@UEBA?AVQSize@@XZ 000000018003e01c f   QtGui4:QtGui4.dll
 0001:0003d022       ?keyPressEvent@QDialog@@MEAAXPEAVQKeyEvent@@@Z 000000018003e022 f   QtGui4:QtGui4.dll
 0001:0003d028       ?resizeEvent@QDialog@@MEAAXPEAVQResizeEvent@@@Z 000000018003e028 f   QtGui4:QtGui4.dll
 0001:0003d02e       ?closeEvent@QDialog@@MEAAXPEAVQCloseEvent@@@Z 000000018003e02e f   QtGui4:QtGui4.dll
 0001:0003d034       ?contextMenuEvent@QDialog@@MEAAXPEAVQContextMenuEvent@@@Z 000000018003e034 f   QtGui4:QtGui4.dll
 0001:0003d03a       ?showEvent@QDialog@@MEAAXPEAVQShowEvent@@@Z 000000018003e03a f   QtGui4:QtGui4.dll
 0001:0003d040       ?done@QDialog@@UEAAXH@Z    000000018003e040 f   QtGui4:QtGui4.dll
 0001:0003d046       ?accept@QDialog@@UEAAXXZ   000000018003e046 f   QtGui4:QtGui4.dll
 0001:0003d04c       ?reject@QDialog@@UEAAXXZ   000000018003e04c f   QtGui4:QtGui4.dll
 0001:0003d052       ?update@QWidget@@QEAAXXZ   000000018003e052 f   QtGui4:QtGui4.dll
 0001:0003d058       ??0QStatusBar@@QEAA@PEAVQWidget@@@Z 000000018003e058 f   QtGui4:QtGui4.dll
 0001:0003d05e       ??0QToolBar@@QEAA@PEAVQWidget@@@Z 000000018003e05e f   QtGui4:QtGui4.dll
 0001:0003d064       ??0QMenuBar@@QEAA@PEAVQWidget@@@Z 000000018003e064 f   QtGui4:QtGui4.dll
 0001:0003d06a       ??0QCheckBox@@QEAA@PEAVQWidget@@@Z 000000018003e06a f   QtGui4:QtGui4.dll
 0001:0003d070       ?setFlat@QPushButton@@QEAAX_N@Z 000000018003e070 f   QtGui4:QtGui4.dll
 0001:0003d076       ?setDefault@QPushButton@@QEAAX_N@Z 000000018003e076 f   QtGui4:QtGui4.dll
 0001:0003d07c       ?setAutoDefault@QPushButton@@QEAAX_N@Z 000000018003e07c f   QtGui4:QtGui4.dll
 0001:0003d082       ?setInputMethodHints@QWidget@@QEAAXV?$QFlags@W4InputMethodHint@Qt@@@@@Z 000000018003e082 f   QtGui4:QtGui4.dll
 0001:0003d088       ?setAutoFillBackground@QWidget@@QEAAX_N@Z 000000018003e088 f   QtGui4:QtGui4.dll
 0001:0003d08e       ?setEnabled@QWidget@@QEAAX_N@Z 000000018003e08e f   QtGui4:QtGui4.dll
 0001:0003d094       ?metaObject@QCheckBox@@UEBAPEBUQMetaObject@@XZ 000000018003e094 f   QtGui4:QtGui4.dll
 0001:0003d09a       ?qt_metacast@QCheckBox@@UEAAPEAXPEBD@Z 000000018003e09a f   QtGui4:QtGui4.dll
 0001:0003d0a0       ?qt_metacall@QCheckBox@@UEAAHW4Call@QMetaObject@@HPEAPEAX@Z 000000018003e0a0 f   QtGui4:QtGui4.dll
 0001:0003d0a6       ?event@QCheckBox@@MEAA_NPEAVQEvent@@@Z 000000018003e0a6 f   QtGui4:QtGui4.dll
 0001:0003d0ac       ?sizeHint@QCheckBox@@UEBA?AVQSize@@XZ 000000018003e0ac f   QtGui4:QtGui4.dll
 0001:0003d0b2       ?mouseMoveEvent@QCheckBox@@MEAAXPEAVQMouseEvent@@@Z 000000018003e0b2 f   QtGui4:QtGui4.dll
 0001:0003d0b8       ?paintEvent@QCheckBox@@MEAAXPEAVQPaintEvent@@@Z 000000018003e0b8 f   QtGui4:QtGui4.dll
 0001:0003d0be       ?hitButton@QCheckBox@@MEBA_NAEBVQPoint@@@Z 000000018003e0be f   QtGui4:QtGui4.dll
 0001:0003d0c4       ?checkStateSet@QCheckBox@@MEAAXXZ 000000018003e0c4 f   QtGui4:QtGui4.dll
 0001:0003d0ca       ?nextCheckState@QCheckBox@@MEAAXXZ 000000018003e0ca f   QtGui4:QtGui4.dll
 0001:0003d0d0       ?metaObject@QMenuBar@@UEBAPEBUQMetaObject@@XZ 000000018003e0d0 f   QtGui4:QtGui4.dll
 0001:0003d0d6       ?qt_metacast@QMenuBar@@UEAAPEAXPEBD@Z 000000018003e0d6 f   QtGui4:QtGui4.dll
 0001:0003d0dc       ?qt_metacall@QMenuBar@@UEAAHW4Call@QMetaObject@@HPEAPEAX@Z 000000018003e0dc f   QtGui4:QtGui4.dll
 0001:0003d0e2       ?event@QMenuBar@@MEAA_NPEAVQEvent@@@Z 000000018003e0e2 f   QtGui4:QtGui4.dll
 0001:0003d0e8       ?eventFilter@QMenuBar@@MEAA_NPEAVQObject@@PEAVQEvent@@@Z 000000018003e0e8 f   QtGui4:QtGui4.dll
 0001:0003d0ee       ?timerEvent@QMenuBar@@MEAAXPEAVQTimerEvent@@@Z 000000018003e0ee f   QtGui4:QtGui4.dll
 0001:0003d0f4       ?setVisible@QMenuBar@@UEAAX_N@Z 000000018003e0f4 f   QtGui4:QtGui4.dll
 0001:0003d0fa       ?sizeHint@QMenuBar@@UEBA?AVQSize@@XZ 000000018003e0fa f   QtGui4:QtGui4.dll
 0001:0003d100       ?minimumSizeHint@QMenuBar@@UEBA?AVQSize@@XZ 000000018003e100 f   QtGui4:QtGui4.dll
 0001:0003d106       ?heightForWidth@QMenuBar@@UEBAHH@Z 000000018003e106 f   QtGui4:QtGui4.dll
 0001:0003d10c       ?mousePressEvent@QMenuBar@@MEAAXPEAVQMouseEvent@@@Z 000000018003e10c f   QtGui4:QtGui4.dll
 0001:0003d112       ?mouseReleaseEvent@QMenuBar@@MEAAXPEAVQMouseEvent@@@Z 000000018003e112 f   QtGui4:QtGui4.dll
 0001:0003d118       ?mouseMoveEvent@QMenuBar@@MEAAXPEAVQMouseEvent@@@Z 000000018003e118 f   QtGui4:QtGui4.dll
 0001:0003d11e       ?keyPressEvent@QMenuBar@@MEAAXPEAVQKeyEvent@@@Z 000000018003e11e f   QtGui4:QtGui4.dll
 0001:0003d124       ?focusInEvent@QMenuBar@@MEAAXPEAVQFocusEvent@@@Z 000000018003e124 f   QtGui4:QtGui4.dll
 0001:0003d12a       ?focusOutEvent@QMenuBar@@MEAAXPEAVQFocusEvent@@@Z 000000018003e12a f   QtGui4:QtGui4.dll
 0001:0003d130       ?leaveEvent@QMenuBar@@MEAAXPEAVQEvent@@@Z 000000018003e130 f   QtGui4:QtGui4.dll
 0001:0003d136       ?paintEvent@QMenuBar@@MEAAXPEAVQPaintEvent@@@Z 000000018003e136 f   QtGui4:QtGui4.dll
 0001:0003d13c       ?resizeEvent@QMenuBar@@MEAAXPEAVQResizeEvent@@@Z 000000018003e13c f   QtGui4:QtGui4.dll
 0001:0003d142       ?actionEvent@QMenuBar@@MEAAXPEAVQActionEvent@@@Z 000000018003e142 f   QtGui4:QtGui4.dll
 0001:0003d148       ?changeEvent@QMenuBar@@MEAAXPEAVQEvent@@@Z 000000018003e148 f   QtGui4:QtGui4.dll
 0001:0003d14e       ?metaObject@QToolBar@@UEBAPEBUQMetaObject@@XZ 000000018003e14e f   QtGui4:QtGui4.dll
 0001:0003d154       ?qt_metacast@QToolBar@@UEAAPEAXPEBD@Z 000000018003e154 f   QtGui4:QtGui4.dll
 0001:0003d15a       ?qt_metacall@QToolBar@@UEAAHW4Call@QMetaObject@@HPEAPEAX@Z 000000018003e15a f   QtGui4:QtGui4.dll
 0001:0003d160       ?event@QToolBar@@MEAA_NPEAVQEvent@@@Z 000000018003e160 f   QtGui4:QtGui4.dll
 0001:0003d166       ?childEvent@QToolBar@@MEAAXPEAVQChildEvent@@@Z 000000018003e166 f   QtGui4:QtGui4.dll
 0001:0003d16c       ?paintEvent@QToolBar@@MEAAXPEAVQPaintEvent@@@Z 000000018003e16c f   QtGui4:QtGui4.dll
 0001:0003d172       ?resizeEvent@QToolBar@@MEAAXPEAVQResizeEvent@@@Z 000000018003e172 f   QtGui4:QtGui4.dll
 0001:0003d178       ?actionEvent@QToolBar@@MEAAXPEAVQActionEvent@@@Z 000000018003e178 f   QtGui4:QtGui4.dll
 0001:0003d17e       ?changeEvent@QToolBar@@MEAAXPEAVQEvent@@@Z 000000018003e17e f   QtGui4:QtGui4.dll
 0001:0003d184       ?metaObject@QStatusBar@@UEBAPEBUQMetaObject@@XZ 000000018003e184 f   QtGui4:QtGui4.dll
 0001:0003d18a       ?qt_metacast@QStatusBar@@UEAAPEAXPEBD@Z 000000018003e18a f   QtGui4:QtGui4.dll
 0001:0003d190       ?qt_metacall@QStatusBar@@UEAAHW4Call@QMetaObject@@HPEAPEAX@Z 000000018003e190 f   QtGui4:QtGui4.dll
 0001:0003d196       ?event@QStatusBar@@MEAA_NPEAVQEvent@@@Z 000000018003e196 f   QtGui4:QtGui4.dll
 0001:0003d19c       ?paintEvent@QStatusBar@@MEAAXPEAVQPaintEvent@@@Z 000000018003e19c f   QtGui4:QtGui4.dll
 0001:0003d1a2       ?resizeEvent@QStatusBar@@MEAAXPEAVQResizeEvent@@@Z 000000018003e1a2 f   QtGui4:QtGui4.dll
 0001:0003d1a8       ?showEvent@QStatusBar@@MEAAXPEAVQShowEvent@@@Z 000000018003e1a8 f   QtGui4:QtGui4.dll
 0001:0003d1ae       ??1QMenuBar@@UEAA@XZ       000000018003e1ae f   QtGui4:QtGui4.dll
 0001:0003d1b4       ??1QToolBar@@UEAA@XZ       000000018003e1b4 f   QtGui4:QtGui4.dll
 0001:0003d1ba       ??1QStatusBar@@UEAA@XZ     000000018003e1ba f   QtGui4:QtGui4.dll
 0001:0003d1c0       ??1QPainter@@QEAA@XZ       000000018003e1c0 f   QtGui4:QtGui4.dll
 0001:0003d1c6       ?drawImage@QPainter@@QEAAXHHAEBVQImage@@HHHHV?$QFlags@W4ImageConversionFlag@Qt@@@@@Z 000000018003e1c6 f   QtGui4:QtGui4.dll
 0001:0003d1cc       ?setColor@QImage@@QEAAXHI@Z 000000018003e1cc f   QtGui4:QtGui4.dll
 0001:0003d1d2       ?setPixel@QImage@@QEAAXHHI@Z 000000018003e1d2 f   QtGui4:QtGui4.dll
 0001:0003d1d8       ??0QImage@@QEAA@HHW4Format@0@@Z 000000018003e1d8 f   QtGui4:QtGui4.dll
 0001:0003d1de       ??0QPainter@@QEAA@PEAVQPaintDevice@@@Z 000000018003e1de f   QtGui4:QtGui4.dll
 0001:0003d1e4       ?devType@QImage@@UEBAHXZ   000000018003e1e4 f   QtGui4:QtGui4.dll
 0001:0003d1ea       ?paintEngine@QImage@@UEBAPEAVQPaintEngine@@XZ 000000018003e1ea f   QtGui4:QtGui4.dll
 0001:0003d1f0       ?getDC@QPaintDevice@@UEBAPEAUHDC__@@XZ 000000018003e1f0 f   QtGui4:QtGui4.dll
 0001:0003d1f6       ?releaseDC@QPaintDevice@@UEBAXPEAUHDC__@@@Z 000000018003e1f6 f   QtGui4:QtGui4.dll
 0001:0003d1fc       ?metric@QImage@@MEBAHW4PaintDeviceMetric@QPaintDevice@@@Z 000000018003e1fc f   QtGui4:QtGui4.dll
 0001:0003d202       ??1QImage@@UEAA@XZ         000000018003e202 f   QtGui4:QtGui4.dll
 0001:0003d208       ??0QImage@@QEAA@PEBD0@Z    000000018003e208 f   QtGui4:QtGui4.dll
 0001:0003d20e       ??1QPalette@@QEAA@XZ       000000018003e20e f   QtGui4:QtGui4.dll
 0001:0003d214       ??1QBrush@@QEAA@XZ         000000018003e214 f   QtGui4:QtGui4.dll
 0001:0003d21a       ??0QPlainTextEdit@@QEAA@PEAVQWidget@@@Z 000000018003e21a f   QtGui4:QtGui4.dll
 0001:0003d220       ?setPalette@QWidget@@QEAAXAEBVQPalette@@@Z 000000018003e220 f   QtGui4:QtGui4.dll
 0001:0003d226       ?setBrush@QPalette@@QEAAXW4ColorGroup@1@W4ColorRole@1@AEBVQBrush@@@Z 000000018003e226 f   QtGui4:QtGui4.dll
 0001:0003d22c       ?setStyle@QBrush@@QEAAXW4BrushStyle@Qt@@@Z 000000018003e22c f   QtGui4:QtGui4.dll
 0001:0003d232       ??0QBrush@@QEAA@AEBVQColor@@W4BrushStyle@Qt@@@Z 000000018003e232 f   QtGui4:QtGui4.dll
 0001:0003d238       ?setRgb@QColor@@QEAAXHHHH@Z 000000018003e238 f   QtGui4:QtGui4.dll
 0001:0003d23e       ??0QPalette@@QEAA@XZ       000000018003e23e f   QtGui4:QtGui4.dll
 0001:0003d244       ??0QTextEdit@@QEAA@PEAVQWidget@@@Z 000000018003e244 f   QtGui4:QtGui4.dll
 0001:0003d24a       ?setChecked@QAbstractButton@@QEAAX_N@Z 000000018003e24a f   QtGui4:QtGui4.dll
 0001:0003d250       ?metaObject@QTextEdit@@UEBAPEBUQMetaObject@@XZ 000000018003e250 f   QtGui4:QtGui4.dll
 0001:0003d256       ?qt_metacast@QTextEdit@@UEAAPEAXPEBD@Z 000000018003e256 f   QtGui4:QtGui4.dll
 0001:0003d25c       ?qt_metacall@QTextEdit@@UEAAHW4Call@QMetaObject@@HPEAPEAX@Z 000000018003e25c f   QtGui4:QtGui4.dll
 0001:0003d262       ?event@QTextEdit@@MEAA_NPEAVQEvent@@@Z 000000018003e262 f   QtGui4:QtGui4.dll
 0001:0003d268       ?mousePressEvent@QTextEdit@@MEAAXPEAVQMouseEvent@@@Z 000000018003e268 f   QtGui4:QtGui4.dll
 0001:0003d26e       ?mouseReleaseEvent@QTextEdit@@MEAAXPEAVQMouseEvent@@@Z 000000018003e26e f   QtGui4:QtGui4.dll
 0001:0003d274       ?mouseMoveEvent@QTextEdit@@MEAAXPEAVQMouseEvent@@@Z 000000018003e274 f   QtGui4:QtGui4.dll
 0001:0003d27a       ?keyPressEvent@QTextEdit@@MEAAXPEAVQKeyEvent@@@Z 000000018003e27a f   QtGui4:QtGui4.dll
 0001:0003d280       ?focusOutEvent@QTextEdit@@MEAAXPEAVQFocusEvent@@@Z 000000018003e280 f   QtGui4:QtGui4.dll
 0001:0003d286       ?paintEvent@QTextEdit@@MEAAXPEAVQPaintEvent@@@Z 000000018003e286 f   QtGui4:QtGui4.dll
 0001:0003d28c       ?focusNextPrevChild@QTextEdit@@MEAA_N_N@Z 000000018003e28c f   QtGui4:QtGui4.dll
 0001:0003d292       ?loadResource@QTextEdit@@UEAA?AVQVariant@@HAEBVQUrl@@@Z 000000018003e292 f   QtGui4:QtGui4.dll
 0001:0003d298       ?metaObject@QPlainTextEdit@@UEBAPEBUQMetaObject@@XZ 000000018003e298 f   QtGui4:QtGui4.dll
 0001:0003d29e       ?qt_metacast@QPlainTextEdit@@UEAAPEAXPEBD@Z 000000018003e29e f   QtGui4:QtGui4.dll
 0001:0003d2a4       ?qt_metacall@QPlainTextEdit@@UEAAHW4Call@QMetaObject@@HPEAPEAX@Z 000000018003e2a4 f   QtGui4:QtGui4.dll
 0001:0003d2aa       ?event@QPlainTextEdit@@MEAA_NPEAVQEvent@@@Z 000000018003e2aa f   QtGui4:QtGui4.dll
 0001:0003d2b0       ?timerEvent@QPlainTextEdit@@MEAAXPEAVQTimerEvent@@@Z 000000018003e2b0 f   QtGui4:QtGui4.dll
 0001:0003d2b6       ?mousePressEvent@QPlainTextEdit@@MEAAXPEAVQMouseEvent@@@Z 000000018003e2b6 f   QtGui4:QtGui4.dll
 0001:0003d2bc       ?mouseReleaseEvent@QPlainTextEdit@@MEAAXPEAVQMouseEvent@@@Z 000000018003e2bc f   QtGui4:QtGui4.dll
 0001:0003d2c2       ?mouseDoubleClickEvent@QPlainTextEdit@@MEAAXPEAVQMouseEvent@@@Z 000000018003e2c2 f   QtGui4:QtGui4.dll
 0001:0003d2c8       ?mouseMoveEvent@QPlainTextEdit@@MEAAXPEAVQMouseEvent@@@Z 000000018003e2c8 f   QtGui4:QtGui4.dll
 0001:0003d2ce       ?wheelEvent@QPlainTextEdit@@MEAAXPEAVQWheelEvent@@@Z 000000018003e2ce f   QtGui4:QtGui4.dll
 0001:0003d2d4       ?keyPressEvent@QPlainTextEdit@@MEAAXPEAVQKeyEvent@@@Z 000000018003e2d4 f   QtGui4:QtGui4.dll
 0001:0003d2da       ?keyReleaseEvent@QPlainTextEdit@@MEAAXPEAVQKeyEvent@@@Z 000000018003e2da f   QtGui4:QtGui4.dll
 0001:0003d2e0       ?focusInEvent@QPlainTextEdit@@MEAAXPEAVQFocusEvent@@@Z 000000018003e2e0 f   QtGui4:QtGui4.dll
 0001:0003d2e6       ?focusOutEvent@QPlainTextEdit@@MEAAXPEAVQFocusEvent@@@Z 000000018003e2e6 f   QtGui4:QtGui4.dll
 0001:0003d2ec       ?paintEvent@QPlainTextEdit@@MEAAXPEAVQPaintEvent@@@Z 000000018003e2ec f   QtGui4:QtGui4.dll
 0001:0003d2f2       ?resizeEvent@QPlainTextEdit@@MEAAXPEAVQResizeEvent@@@Z 000000018003e2f2 f   QtGui4:QtGui4.dll
 0001:0003d2f8       ?contextMenuEvent@QPlainTextEdit@@MEAAXPEAVQContextMenuEvent@@@Z 000000018003e2f8 f   QtGui4:QtGui4.dll
 0001:0003d2fe       ?dragEnterEvent@QPlainTextEdit@@MEAAXPEAVQDragEnterEvent@@@Z 000000018003e2fe f   QtGui4:QtGui4.dll
 0001:0003d304       ?dragMoveEvent@QPlainTextEdit@@MEAAXPEAVQDragMoveEvent@@@Z 000000018003e304 f   QtGui4:QtGui4.dll
 0001:0003d30a       ?dragLeaveEvent@QPlainTextEdit@@MEAAXPEAVQDragLeaveEvent@@@Z 000000018003e30a f   QtGui4:QtGui4.dll
 0001:0003d310       ?dropEvent@QPlainTextEdit@@MEAAXPEAVQDropEvent@@@Z 000000018003e310 f   QtGui4:QtGui4.dll
 0001:0003d316       ?showEvent@QPlainTextEdit@@MEAAXPEAVQShowEvent@@@Z 000000018003e316 f   QtGui4:QtGui4.dll
 0001:0003d31c       ?changeEvent@QPlainTextEdit@@MEAAXPEAVQEvent@@@Z 000000018003e31c f   QtGui4:QtGui4.dll
 0001:0003d322       ?inputMethodEvent@QPlainTextEdit@@MEAAXPEAVQInputMethodEvent@@@Z 000000018003e322 f   QtGui4:QtGui4.dll
 0001:0003d328       ?inputMethodQuery@QPlainTextEdit@@MEBA?AVQVariant@@W4InputMethodQuery@Qt@@@Z 000000018003e328 f   QtGui4:QtGui4.dll
 0001:0003d32e       ?focusNextPrevChild@QPlainTextEdit@@MEAA_N_N@Z 000000018003e32e f   QtGui4:QtGui4.dll
 0001:0003d334       ?scrollContentsBy@QPlainTextEdit@@MEAAXHH@Z 000000018003e334 f   QtGui4:QtGui4.dll
 0001:0003d33a       ?loadResource@QPlainTextEdit@@UEAA?AVQVariant@@HAEBVQUrl@@@Z 000000018003e33a f   QtGui4:QtGui4.dll
 0001:0003d340       ?createMimeDataFromSelection@QPlainTextEdit@@MEBAPEAVQMimeData@@XZ 000000018003e340 f   QtGui4:QtGui4.dll
 0001:0003d346       ?canInsertFromMimeData@QPlainTextEdit@@MEBA_NPEBVQMimeData@@@Z 000000018003e346 f   QtGui4:QtGui4.dll
 0001:0003d34c       ?insertFromMimeData@QPlainTextEdit@@MEAAXPEBVQMimeData@@@Z 000000018003e34c f   QtGui4:QtGui4.dll
 0001:0003d352       ??1QTextEdit@@UEAA@XZ      000000018003e352 f   QtGui4:QtGui4.dll
 0001:0003d358       ??1QPlainTextEdit@@UEAA@XZ 000000018003e358 f   QtGui4:QtGui4.dll
 0001:0003d35e       ??1QPixmap@@UEAA@XZ        000000018003e35e f   QtGui4:QtGui4.dll
 0001:0003d364       ?setPixmap@QLabel@@QEAAXAEBVQPixmap@@@Z 000000018003e364 f   QtGui4:QtGui4.dll
 0001:0003d36a       ?fromImage@QPixmap@@SA?AV1@AEBVQImage@@V?$QFlags@W4ImageConversionFlag@Qt@@@@@Z 000000018003e36a f   QtGui4:QtGui4.dll
 0001:0003d370       ??0QLabel@@QEAA@AEBVQString@@PEAVQWidget@@V?$QFlags@W4WindowType@Qt@@@@@Z 000000018003e370 f   QtGui4:QtGui4.dll
 0001:0003d376       ??1QScrollArea@@UEAA@XZ    000000018003e376 f   QtGui4:QtGui4.dll
 0001:0003d37c       ?scrollBarWidgets@QAbstractScrollArea@@QEAA?AV?$QList@PEAVQWidget@@@@V?$QFlags@W4AlignmentFlag@Qt@@@@@Z 000000018003e37c f   QtGui4:QtGui4.dll
 0001:0003d382       ?setWidget@QScrollArea@@QEAAXPEAVQWidget@@@Z 000000018003e382 f   QtGui4:QtGui4.dll
 0001:0003d388       ??0QScrollArea@@QEAA@PEAVQWidget@@@Z 000000018003e388 f   QtGui4:QtGui4.dll
 0001:0003d38e       ?event@QScrollArea@@MEAA_NPEAVQEvent@@@Z 000000018003e38e f   QtGui4:QtGui4.dll
 0001:0003d394       ?eventFilter@QScrollArea@@MEAA_NPEAVQObject@@PEAVQEvent@@@Z 000000018003e394 f   QtGui4:QtGui4.dll
 0001:0003d39a       ?sizeHint@QScrollArea@@UEBA?AVQSize@@XZ 000000018003e39a f   QtGui4:QtGui4.dll
 0001:0003d3a0       ?mousePressEvent@QAbstractScrollArea@@MEAAXPEAVQMouseEvent@@@Z 000000018003e3a0 f   QtGui4:QtGui4.dll
 0001:0003d3a6       ?mouseReleaseEvent@QAbstractScrollArea@@MEAAXPEAVQMouseEvent@@@Z 000000018003e3a6 f   QtGui4:QtGui4.dll
 0001:0003d3ac       ?mouseDoubleClickEvent@QAbstractScrollArea@@MEAAXPEAVQMouseEvent@@@Z 000000018003e3ac f   QtGui4:QtGui4.dll
 0001:0003d3b2       ?mouseMoveEvent@QAbstractScrollArea@@MEAAXPEAVQMouseEvent@@@Z 000000018003e3b2 f   QtGui4:QtGui4.dll
 0001:0003d3b8       ?wheelEvent@QAbstractScrollArea@@MEAAXPEAVQWheelEvent@@@Z 000000018003e3b8 f   QtGui4:QtGui4.dll
 0001:0003d3be       ?keyPressEvent@QAbstractScrollArea@@MEAAXPEAVQKeyEvent@@@Z 000000018003e3be f   QtGui4:QtGui4.dll
 0001:0003d3c4       ?paintEvent@QAbstractScrollArea@@MEAAXPEAVQPaintEvent@@@Z 000000018003e3c4 f   QtGui4:QtGui4.dll
 0001:0003d3ca       ?resizeEvent@QScrollArea@@MEAAXPEAVQResizeEvent@@@Z 000000018003e3ca f   QtGui4:QtGui4.dll
 0001:0003d3d0       ?contextMenuEvent@QAbstractScrollArea@@MEAAXPEAVQContextMenuEvent@@@Z 000000018003e3d0 f   QtGui4:QtGui4.dll
 0001:0003d3d6       ?dragEnterEvent@QAbstractScrollArea@@MEAAXPEAVQDragEnterEvent@@@Z 000000018003e3d6 f   QtGui4:QtGui4.dll
 0001:0003d3dc       ?dragMoveEvent@QAbstractScrollArea@@MEAAXPEAVQDragMoveEvent@@@Z 000000018003e3dc f   QtGui4:QtGui4.dll
 0001:0003d3e2       ?dragLeaveEvent@QAbstractScrollArea@@MEAAXPEAVQDragLeaveEvent@@@Z 000000018003e3e2 f   QtGui4:QtGui4.dll
 0001:0003d3e8       ?dropEvent@QAbstractScrollArea@@MEAAXPEAVQDropEvent@@@Z 000000018003e3e8 f   QtGui4:QtGui4.dll
 0001:0003d3ee       ?changeEvent@QFrame@@MEAAXPEAVQEvent@@@Z 000000018003e3ee f   QtGui4:QtGui4.dll
 0001:0003d3f4       ?focusNextPrevChild@QScrollArea@@UEAA_N_N@Z 000000018003e3f4 f   QtGui4:QtGui4.dll
 0001:0003d3fa       ?scrollContentsBy@QScrollArea@@MEAAXHH@Z 000000018003e3fa f   QtGui4:QtGui4.dll
 0001:0003d400       ?setDisabled@QWidget@@QEAAX_N@Z 000000018003e400 f   QtGui4:QtGui4.dll
 0001:0003d406       ?isChecked@QAbstractButton@@QEBA_NXZ 000000018003e406 f   QtGui4:QtGui4.dll
 0001:0003d40c       ?addWidget@QGridLayout@@QEAAXPEAVQWidget@@HHHHV?$QFlags@W4AlignmentFlag@Qt@@@@@Z 000000018003e40c f   QtGui4:QtGui4.dll
 0001:0003d412       ??0QGridLayout@@QEAA@PEAVQWidget@@@Z 000000018003e412 f   QtGui4:QtGui4.dll
 0001:0003d418       ?metaObject@QGridLayout@@UEBAPEBUQMetaObject@@XZ 000000018003e418 f   QtGui4:QtGui4.dll
 0001:0003d41e       ?qt_metacast@QGridLayout@@UEAAPEAXPEBD@Z 000000018003e41e f   QtGui4:QtGui4.dll
 0001:0003d424       ?qt_metacall@QGridLayout@@UEAAHW4Call@QMetaObject@@HPEAPEAX@Z 000000018003e424 f   QtGui4:QtGui4.dll
 0001:0003d42a       ?addItem@QGridLayout@@MEAAXPEAVQLayoutItem@@@Z 000000018003e42a f   QtGui4:QtGui4.dll
 0001:0003d430       ?itemAt@QGridLayout@@UEBAPEAVQLayoutItem@@H@Z 000000018003e430 f   QtGui4:QtGui4.dll
 0001:0003d436       ?takeAt@QGridLayout@@UEAAPEAVQLayoutItem@@H@Z 000000018003e436 f   QtGui4:QtGui4.dll
 0001:0003d43c       ?count@QGridLayout@@UEBAHXZ 000000018003e43c f   QtGui4:QtGui4.dll
 0001:0003d442       ?sizeHint@QGridLayout@@UEBA?AVQSize@@XZ 000000018003e442 f   QtGui4:QtGui4.dll
 0001:0003d448       ?minimumSize@QGridLayout@@UEBA?AVQSize@@XZ 000000018003e448 f   QtGui4:QtGui4.dll
 0001:0003d44e       ?maximumSize@QGridLayout@@UEBA?AVQSize@@XZ 000000018003e44e f   QtGui4:QtGui4.dll
 0001:0003d454       ?expandingDirections@QGridLayout@@UEBA?AV?$QFlags@W4Orientation@Qt@@@@XZ 000000018003e454 f   QtGui4:QtGui4.dll
 0001:0003d45a       ?setGeometry@QGridLayout@@UEAAXAEBVQRect@@@Z 000000018003e45a f   QtGui4:QtGui4.dll
 0001:0003d460       ?hasHeightForWidth@QGridLayout@@UEBA_NXZ 000000018003e460 f   QtGui4:QtGui4.dll
 0001:0003d466       ?heightForWidth@QGridLayout@@UEBAHH@Z 000000018003e466 f   QtGui4:QtGui4.dll
 0001:0003d46c       ?minimumHeightForWidth@QGridLayout@@UEBAHH@Z 000000018003e46c f   QtGui4:QtGui4.dll
 0001:0003d472       ?invalidate@QGridLayout@@UEAAXXZ 000000018003e472 f   QtGui4:QtGui4.dll
 0001:0003d478       ??1QGridLayout@@UEAA@XZ    000000018003e478 f   QtGui4:QtGui4.dll
 0001:0003d47e       ?close@QWidget@@QEAA_NXZ   000000018003e47e f   QtGui4:QtGui4.dll
 0001:0003d484       ??0QComboBox@@QEAA@PEAVQWidget@@@Z 000000018003e484 f   QtGui4:QtGui4.dll
 0001:0003d48a       ?metaObject@QComboBox@@UEBAPEBUQMetaObject@@XZ 000000018003e48a f   QtGui4:QtGui4.dll
 0001:0003d490       ?qt_metacast@QComboBox@@UEAAPEAXPEBD@Z 000000018003e490 f   QtGui4:QtGui4.dll
 0001:0003d496       ?qt_metacall@QComboBox@@UEAAHW4Call@QMetaObject@@HPEAPEAX@Z 000000018003e496 f   QtGui4:QtGui4.dll
 0001:0003d49c       ?event@QComboBox@@UEAA_NPEAVQEvent@@@Z 000000018003e49c f   QtGui4:QtGui4.dll
 0001:0003d4a2       ?sizeHint@QComboBox@@UEBA?AVQSize@@XZ 000000018003e4a2 f   QtGui4:QtGui4.dll
 0001:0003d4a8       ?minimumSizeHint@QComboBox@@UEBA?AVQSize@@XZ 000000018003e4a8 f   QtGui4:QtGui4.dll
 0001:0003d4ae       ?mousePressEvent@QComboBox@@MEAAXPEAVQMouseEvent@@@Z 000000018003e4ae f   QtGui4:QtGui4.dll
 0001:0003d4b4       ?mouseReleaseEvent@QComboBox@@MEAAXPEAVQMouseEvent@@@Z 000000018003e4b4 f   QtGui4:QtGui4.dll
 0001:0003d4ba       ?wheelEvent@QComboBox@@MEAAXPEAVQWheelEvent@@@Z 000000018003e4ba f   QtGui4:QtGui4.dll
 0001:0003d4c0       ?keyPressEvent@QComboBox@@MEAAXPEAVQKeyEvent@@@Z 000000018003e4c0 f   QtGui4:QtGui4.dll
 0001:0003d4c6       ?keyReleaseEvent@QComboBox@@MEAAXPEAVQKeyEvent@@@Z 000000018003e4c6 f   QtGui4:QtGui4.dll
 0001:0003d4cc       ?focusInEvent@QComboBox@@MEAAXPEAVQFocusEvent@@@Z 000000018003e4cc f   QtGui4:QtGui4.dll
 0001:0003d4d2       ?focusOutEvent@QComboBox@@MEAAXPEAVQFocusEvent@@@Z 000000018003e4d2 f   QtGui4:QtGui4.dll
 0001:0003d4d8       ?paintEvent@QComboBox@@MEAAXPEAVQPaintEvent@@@Z 000000018003e4d8 f   QtGui4:QtGui4.dll
 0001:0003d4de       ?resizeEvent@QComboBox@@MEAAXPEAVQResizeEvent@@@Z 000000018003e4de f   QtGui4:QtGui4.dll
 0001:0003d4e4       ?contextMenuEvent@QComboBox@@MEAAXPEAVQContextMenuEvent@@@Z 000000018003e4e4 f   QtGui4:QtGui4.dll
 0001:0003d4ea       ?showEvent@QComboBox@@MEAAXPEAVQShowEvent@@@Z 000000018003e4ea f   QtGui4:QtGui4.dll
 0001:0003d4f0       ?hideEvent@QComboBox@@MEAAXPEAVQHideEvent@@@Z 000000018003e4f0 f   QtGui4:QtGui4.dll
 0001:0003d4f6       ?changeEvent@QComboBox@@MEAAXPEAVQEvent@@@Z 000000018003e4f6 f   QtGui4:QtGui4.dll
 0001:0003d4fc       ?inputMethodEvent@QComboBox@@MEAAXPEAVQInputMethodEvent@@@Z 000000018003e4fc f   QtGui4:QtGui4.dll
 0001:0003d502       ?inputMethodQuery@QComboBox@@MEBA?AVQVariant@@W4InputMethodQuery@Qt@@@Z 000000018003e502 f   QtGui4:QtGui4.dll
 0001:0003d508       ?showPopup@QComboBox@@UEAAXXZ 000000018003e508 f   QtGui4:QtGui4.dll
 0001:0003d50e       ?hidePopup@QComboBox@@UEAAXXZ 000000018003e50e f   QtGui4:QtGui4.dll
 0001:0003d514       ??1QComboBox@@UEAA@XZ      000000018003e514 f   QtGui4:QtGui4.dll
 0001:0003d51a       ?insertItems@QComboBox@@QEAAXHAEBVQStringList@@@Z 000000018003e51a f   QtGui4:QtGui4.dll
 0001:0003d520       ?count@QComboBox@@QEBAHXZ  000000018003e520 f   QtGui4:QtGui4.dll
 0001:0003d526       ?qt_metacast@QDialog@@UEAAPEAXPEBD@Z 000000018003e526 f   QtGui4:QtGui4.dll
 0001:0003d52c       ?qt_metacall@QDialog@@UEAAHW4Call@QMetaObject@@HPEAPEAX@Z 000000018003e52c f   QtGui4:QtGui4.dll
 0001:0003d532       ?qt_metacast@QScrollArea@@UEAAPEAXPEBD@Z 000000018003e532 f   QtGui4:QtGui4.dll
 0001:0003d538       ?qt_metacall@QScrollArea@@UEAAHW4Call@QMetaObject@@HPEAPEAX@Z 000000018003e538 f   QtGui4:QtGui4.dll
 0001:0003d540       ?isValid@Slot@@QEBA_NXZ    000000018003e540 f i PlugInLib:ViewerShell.obj
 0001:0003d550       ??1Slot@@QEAA@XZ           000000018003e550 f i PlugInLib:ViewerShell.obj
 0001:0003d580       ??0SlotWrapper@Slot@@QEAA@XZ 000000018003e580 f i PlugInLib:ViewerShell.obj
 0001:0003d590       ??1PlugInCallback@@UEAA@XZ 000000018003e590 f i PlugInLib:ViewerShell.obj
 0001:0003d5a0       ??_GPlugInCallback@@UEAAPEAXI@Z 000000018003e5a0 f i PlugInLib:ViewerShell.obj
 0001:0003d5a0       ??_EPlugInCallback@@UEAAPEAXI@Z 000000018003e5a0 f i PlugInLib:ViewerShell.obj
 0001:0003d5d0       ?getInputSpecification@ViewerShell@@UEAA_NAEAPEAVPlugInArgList@@@Z 000000018003e5d0 f   PlugInLib:ViewerShell.obj
 0001:0003d5e0       ?getOutputSpecification@ViewerShell@@UEAA_NAEAPEAVPlugInArgList@@@Z 000000018003e5e0 f   PlugInLib:ViewerShell.obj
 0001:0003d5f0       ??0PlugInCallback@@QEAA@XZ 000000018003e5f0 f i PlugInLib:ViewerShell.obj
 0001:0003d600       ?cleanupWidget@ViewerShell@@QEAAXAEAVSubject@@AEBV?$basic_string@DU?$char_traits@D@std@@V?$allocator@D@2@@std@@AEBVany@boost@@@Z 000000018003e600 f   PlugInLib:ViewerShell.obj
 0001:0003d640       ??0?$EnumWrapper@W4PlugInCallbackTypeEnum@@@@QEAA@AEBW4PlugInCallbackTypeEnum@@@Z 000000018003e640 f i PlugInLib:ViewerShell.obj
 0001:0003d650       ??1?$EnumWrapper@W4PlugInCallbackTypeEnum@@@@QEAA@XZ 000000018003e650 f i PlugInLib:ViewerShell.obj
 0001:0003d660       ?get@?$SafePtr@VApplicationServices@@@@QEAAPEAVApplicationServices@@XZ 000000018003e660 f i PlugInLib:ViewerShell.obj
 0001:0003d670       ?attach@?$SafePtr@VApplicationServices@@@@IEAAXAEBV?$basic_string@DU?$char_traits@D@std@@V?$allocator@D@2@@std@@AEBVSlot@@@Z 000000018003e670 f i PlugInLib:ViewerShell.obj
 0001:0003d690       ?detach@?$SafePtr@VApplicationServices@@@@IEAAXAEBV?$basic_string@DU?$char_traits@D@std@@V?$allocator@D@2@@std@@AEBVSlot@@@Z 000000018003e690 f i PlugInLib:ViewerShell.obj
 0001:0003d6b0       ??E?$_Vector_const_iterator@V?$_Vector_val@U?$pair@V?$basic_string@DU?$char_traits@D@std@@V?$allocator@D@2@@std@@VSlot@@@std@@V?$allocator@U?$pair@V?$basic_string@DU?$char_traits@D@std@@V?$allocator@D@2@@std@@VSlot@@@std@@@2@@std@@@std@@QEAAAEAV01@XZ 000000018003e6b0 f i PlugInLib:ViewerShell.obj
 0001:0003d6c0       ?_Inside@?$vector@U?$pair@V?$basic_string@DU?$char_traits@D@std@@V?$allocator@D@2@@std@@VSlot@@@std@@V?$allocator@U?$pair@V?$basic_string@DU?$char_traits@D@std@@V?$allocator@D@2@@std@@VSlot@@@std@@@2@@std@@IEBA_NPEBU?$pair@V?$basic_string@DU?$char_traits@D@std@@V?$allocator@D@2@@std@@VSlot@@@2@@Z 000000018003e6c0 f i PlugInLib:ViewerShell.obj
 0001:0003d6e0       ?_Orphan_range@?$vector@U?$pair@V?$basic_string@DU?$char_traits@D@std@@V?$allocator@D@2@@std@@VSlot@@@std@@V?$allocator@U?$pair@V?$basic_string@DU?$char_traits@D@std@@V?$allocator@D@2@@std@@VSlot@@@std@@@2@@std@@IEBAXPEAU?$pair@V?$basic_string@DU?$char_traits@D@std@@V?$allocator@D@2@@std@@VSlot@@@2@0@Z 000000018003e6e0 f i PlugInLib:ViewerShell.obj
 0001:0003d6f0       ??1?$_Vector_val@U?$pair@V?$basic_string@DU?$char_traits@D@std@@V?$allocator@D@2@@std@@VSlot@@@std@@V?$allocator@U?$pair@V?$basic_string@DU?$char_traits@D@std@@V?$allocator@D@2@@std@@VSlot@@@std@@@2@@std@@QEAA@XZ 000000018003e6f0 f i PlugInLib:ViewerShell.obj
 0001:0003d700       ??0?$allocator@U?$pair@V?$basic_string@DU?$char_traits@D@std@@V?$allocator@D@2@@std@@VSlot@@@std@@@std@@QEAA@XZ 000000018003e700 f i PlugInLib:ViewerShell.obj
 0001:0003d710       ?subjectDeleted@?$SafePtr@VApplicationServices@@@@AEAAXAEAVSubject@@AEBV?$basic_string@DU?$char_traits@D@std@@V?$allocator@D@2@@std@@AEBVany@boost@@@Z 000000018003e710 f i PlugInLib:ViewerShell.obj
 0001:0003d730       ??D?$_Vector_const_iterator@V?$_Vector_val@U?$pair@V?$basic_string@DU?$char_traits@D@std@@V?$allocator@D@2@@std@@VSlot@@@std@@V?$allocator@U?$pair@V?$basic_string@DU?$char_traits@D@std@@V?$allocator@D@2@@std@@VSlot@@@std@@@2@@std@@@std@@QEBAAEBU?$pair@V?$basic_string@DU?$char_traits@D@std@@V?$allocator@D@2@@std@@VSlot@@@1@XZ 000000018003e730 f i PlugInLib:ViewerShell.obj
 0001:0003d740       ?capacity@?$vector@U?$pair@V?$basic_string@DU?$char_traits@D@std@@V?$allocator@D@2@@std@@VSlot@@@std@@V?$allocator@U?$pair@V?$basic_string@DU?$char_traits@D@std@@V?$allocator@D@2@@std@@VSlot@@@std@@@2@@std@@QEBA_KXZ 000000018003e740 f i PlugInLib:ViewerShell.obj
 0001:0003d770       ?size@?$vector@U?$pair@V?$basic_string@DU?$char_traits@D@std@@V?$allocator@D@2@@std@@VSlot@@@std@@V?$allocator@U?$pair@V?$basic_string@DU?$char_traits@D@std@@V?$allocator@D@2@@std@@VSlot@@@std@@@2@@std@@QEBA_KXZ 000000018003e770 f i PlugInLib:ViewerShell.obj
 0001:0003d7a0       ?_Xlen@?$vector@U?$pair@V?$basic_string@DU?$char_traits@D@std@@V?$allocator@D@2@@std@@VSlot@@@std@@V?$allocator@U?$pair@V?$basic_string@DU?$char_traits@D@std@@V?$allocator@D@2@@std@@VSlot@@@std@@@2@@std@@IEBAXXZ 000000018003e7a0 f i PlugInLib:ViewerShell.obj
 0001:0003d7c0       ??0?$allocator@U?$pair@V?$basic_string@DU?$char_traits@D@std@@V?$allocator@D@2@@std@@VSlot@@@std@@@std@@QEAA@AEBV01@@Z 000000018003e7c0 f i PlugInLib:ViewerShell.obj
 0001:0003d7d0       ?deallocate@?$allocator@U?$pair@V?$basic_string@DU?$char_traits@D@std@@V?$allocator@D@2@@std@@VSlot@@@std@@@std@@QEAAXPEAU?$pair@V?$basic_string@DU?$char_traits@D@std@@V?$allocator@D@2@@std@@VSlot@@@2@_K@Z 000000018003e7d0 f i PlugInLib:ViewerShell.obj
 0001:0003d7e0       ??0?$_Vector_const_iterator@V?$_Vector_val@U?$pair@V?$basic_string@DU?$char_traits@D@std@@V?$allocator@D@2@@std@@VSlot@@@std@@V?$allocator@U?$pair@V?$basic_string@DU?$char_traits@D@std@@V?$allocator@D@2@@std@@VSlot@@@std@@@2@@std@@@std@@QEAA@PEAU?$pair@V?$basic_string@DU?$char_traits@D@std@@V?$allocator@D@2@@std@@VSlot@@@1@PEBU_Container_base0@1@@Z 000000018003e7e0 f i PlugInLib:ViewerShell.obj
 0001:0003d7f0       ?_Compat@?$_Vector_const_iterator@V?$_Vector_val@U?$pair@V?$basic_string@DU?$char_traits@D@std@@V?$allocator@D@2@@std@@VSlot@@@std@@V?$allocator@U?$pair@V?$basic_string@DU?$char_traits@D@std@@V?$allocator@D@2@@std@@VSlot@@@std@@@2@@std@@@std@@QEBAXAEBV12@@Z 000000018003e7f0 f i PlugInLib:ViewerShell.obj
 0001:0003d800       ?max_size@?$allocator@U?$pair@V?$basic_string@DU?$char_traits@D@std@@V?$allocator@D@2@@std@@VSlot@@@std@@@std@@QEBA_KXZ 000000018003e800 f i PlugInLib:ViewerShell.obj
 0001:0003d810       ??$addressof@U?$pair@V?$basic_string@DU?$char_traits@D@std@@V?$allocator@D@2@@std@@VSlot@@@std@@@std@@YAPEAU?$pair@V?$basic_string@DU?$char_traits@D@std@@V?$allocator@D@2@@std@@VSlot@@@0@AEAU10@@Z 000000018003e810 f i PlugInLib:ViewerShell.obj
 0001:0003d820       ??$forward@U?$pair@V?$basic_string@DU?$char_traits@D@std@@V?$allocator@D@2@@std@@VSlot@@@std@@@std@@YA$$QEAU?$pair@V?$basic_string@DU?$char_traits@D@std@@V?$allocator@D@2@@std@@VSlot@@@0@AEAU10@@Z 000000018003e820 f i PlugInLib:ViewerShell.obj
 0001:0003d830       ??$_Allocate@U?$pair@V?$basic_string@DU?$char_traits@D@std@@V?$allocator@D@2@@std@@VSlot@@@std@@@std@@YAPEAU?$pair@V?$basic_string@DU?$char_traits@D@std@@V?$allocator@D@2@@std@@VSlot@@@0@_KPEAU10@@Z 000000018003e830 f i PlugInLib:ViewerShell.obj
 0001:0003d8a0       ??0?$SlotValue@VViewerShell@@@Slot@@QEAA@PEAVViewerShell@@P82@EAAXAEAVSubject@@AEBV?$basic_string@DU?$char_traits@D@std@@V?$allocator@D@2@@std@@AEBVany@boost@@@Z@Z 000000018003e8a0 f i PlugInLib:ViewerShell.obj
 0001:0003d8d0       ??1?$SlotValue@VViewerShell@@@Slot@@UEAA@XZ 000000018003e8d0 f i PlugInLib:ViewerShell.obj
 0001:0003d8e0       ?callAttachMethod@?$SlotValue@VViewerShell@@@Slot@@UEAAXAEAVSubject@@AEBV?$basic_string@DU?$char_traits@D@std@@V?$allocator@D@2@@std@@AEBV2@@Z 000000018003e8e0 f i PlugInLib:ViewerShell.obj
 0001:0003d940       ?callDetachMethod@?$SlotValue@VViewerShell@@@Slot@@UEAAXAEAVSubject@@AEBV?$basic_string@DU?$char_traits@D@std@@V?$allocator@D@2@@std@@AEBV2@@Z 000000018003e940 f i PlugInLib:ViewerShell.obj
 0001:0003d9b0       ?clone@?$SlotValue@VViewerShell@@@Slot@@UEBAPEAVSlotWrapper@2@XZ 000000018003e9b0 f i PlugInLib:ViewerShell.obj
 0001:0003d9f0       ?getType@?$SlotValue@VViewerShell@@@Slot@@UEBAAEBVtype_info@@XZ 000000018003e9f0 f i PlugInLib:ViewerShell.obj
 0001:0003da00       ?matches@?$SlotValue@VViewerShell@@@Slot@@UEBA_NAEBVSlotWrapper@2@@Z 000000018003ea00 f i PlugInLib:ViewerShell.obj
 0001:0003daa0       ??0?$SlotValue@V?$SafePtr@VApplicationServices@@@@@Slot@@QEAA@PEAV?$SafePtr@VApplicationServices@@@@P82@EAAXAEAVSubject@@AEBV?$basic_string@DU?$char_traits@D@std@@V?$allocator@D@2@@std@@AEBVany@boost@@@Z@Z 000000018003eaa0 f i PlugInLib:ViewerShell.obj
 0001:0003dac0       ??1?$SlotValue@V?$SafePtr@VApplicationServices@@@@@Slot@@UEAA@XZ 000000018003eac0 f i PlugInLib:ViewerShell.obj
 0001:0003dad0       ?callAttachMethod@?$SlotValue@V?$SafePtr@VApplicationServices@@@@@Slot@@UEAAXAEAVSubject@@AEBV?$basic_string@DU?$char_traits@D@std@@V?$allocator@D@2@@std@@AEBV2@@Z 000000018003ead0 f i PlugInLib:ViewerShell.obj
 0001:0003db30       ?callDetachMethod@?$SlotValue@V?$SafePtr@VApplicationServices@@@@@Slot@@UEAAXAEAVSubject@@AEBV?$basic_string@DU?$char_traits@D@std@@V?$allocator@D@2@@std@@AEBV2@@Z 000000018003eb30 f i PlugInLib:ViewerShell.obj
 0001:0003dba0       ?clone@?$SlotValue@V?$SafePtr@VApplicationServices@@@@@Slot@@UEBAPEAVSlotWrapper@2@XZ 000000018003eba0 f i PlugInLib:ViewerShell.obj
 0001:0003dbe0       ?getType@?$SlotValue@V?$SafePtr@VApplicationServices@@@@@Slot@@UEBAAEBVtype_info@@XZ 000000018003ebe0 f i PlugInLib:ViewerShell.obj
 0001:0003dbf0       ?matches@?$SlotValue@V?$SafePtr@VApplicationServices@@@@@Slot@@UEBA_NAEBVSlotWrapper@2@@Z 000000018003ebf0 f i PlugInLib:ViewerShell.obj
 0001:0003dc80       ??_E?$SlotValue@VViewerShell@@@Slot@@UEAAPEAXI@Z 000000018003ec80 f i PlugInLib:ViewerShell.obj
 0001:0003dc80       ??_G?$SlotValue@VViewerShell@@@Slot@@UEAAPEAXI@Z 000000018003ec80 f i PlugInLib:ViewerShell.obj
 0001:0003dcb0       ??_E?$SlotValue@V?$SafePtr@VApplicationServices@@@@@Slot@@UEAAPEAXI@Z 000000018003ecb0 f i PlugInLib:ViewerShell.obj
 0001:0003dcb0       ??_G?$SlotValue@V?$SafePtr@VApplicationServices@@@@@Slot@@UEAAPEAXI@Z 000000018003ecb0 f i PlugInLib:ViewerShell.obj
 0001:0003dce0       ??$_Ptr_cat@U?$pair@V?$basic_string@DU?$char_traits@D@std@@V?$allocator@D@2@@std@@VSlot@@@std@@U12@@std@@YA?AU_Nonscalar_ptr_iterator_tag@0@PEAU?$pair@V?$basic_string@DU?$char_traits@D@std@@V?$allocator@D@2@@std@@VSlot@@@0@0@Z 000000018003ece0 f i PlugInLib:ViewerShell.obj
 0001:0003dcf0       ??$move@AEAVSlot@@@std@@YA$$QEAVSlot@@AEAV1@@Z 000000018003ecf0 f i PlugInLib:ViewerShell.obj
 0001:0003dd00       ??$forward@VSlot@@@std@@YA$$QEAVSlot@@AEAV1@@Z 000000018003ed00 f i PlugInLib:ViewerShell.obj
 0001:0003dd10       ??$_Val_type@PEAU?$pair@V?$basic_string@DU?$char_traits@D@std@@V?$allocator@D@2@@std@@VSlot@@@std@@@std@@YAPEAU?$pair@V?$basic_string@DU?$char_traits@D@std@@V?$allocator@D@2@@std@@VSlot@@@0@PEAU10@@Z 000000018003ed10 f i PlugInLib:ViewerShell.obj
 0001:0003dd20       ??0Slot@@QEAA@AEBV0@@Z     000000018003ed20 f i PlugInLib:ViewerShell.obj
 0001:0003dd50       ??0ViewerCallback@@QEAA@PEAVPlugIn@@PEAVQWidget@@@Z 000000018003ed50 f i PlugInLib:ViewerShell.obj
 0001:0003dd70       ??1ViewerCallback@@UEAA@XZ 000000018003ed70 f i PlugInLib:ViewerShell.obj
 0001:0003dd80       ??RViewerCallback@@UEAAXXZ 000000018003ed80 f i PlugInLib:ViewerShell.obj
 0001:0003ddc0       ?finish@ViewerCallback@@UEAA_NXZ 000000018003edc0 f i PlugInLib:ViewerShell.obj
 0001:0003ddd0       ?getPlugIn@ViewerCallback@@UEBAPEAVPlugIn@@XZ 000000018003edd0 f i PlugInLib:ViewerShell.obj
 0001:0003dde0       ?progress@ViewerCallback@@UEBAPEAVProgress@@XZ 000000018003ede0 f i PlugInLib:ViewerShell.obj
 0001:0003ddf0       ??_GViewerCallback@@UEAAPEAXI@Z 000000018003edf0 f i PlugInLib:ViewerShell.obj
 0001:0003ddf0       ??_EViewerCallback@@UEAAPEAXI@Z 000000018003edf0 f i PlugInLib:ViewerShell.obj
 0001:0003de20       ?abort@ViewerShell@@UEAA_NXZ 000000018003ee20 f   PlugInLib:ViewerShell.obj
 0001:0003dee0       ??C?$_Vector_const_iterator@V?$_Vector_val@U?$pair@V?$basic_string@DU?$char_traits@D@std@@V?$allocator@D@2@@std@@VSlot@@@std@@V?$allocator@U?$pair@V?$basic_string@DU?$char_traits@D@std@@V?$allocator@D@2@@std@@VSlot@@@std@@@2@@std@@@std@@QEBAPEBU?$pair@V?$basic_string@DU?$char_traits@D@std@@V?$allocator@D@2@@std@@VSlot@@@1@XZ 000000018003eee0 f i PlugInLib:ViewerShell.obj
 0001:0003def0       ??0?$_Vector_val@U?$pair@V?$basic_string@DU?$char_traits@D@std@@V?$allocator@D@2@@std@@VSlot@@@std@@V?$allocator@U?$pair@V?$basic_string@DU?$char_traits@D@std@@V?$allocator@D@2@@std@@VSlot@@@std@@@2@@std@@QEAA@V?$allocator@U?$pair@V?$basic_string@DU?$char_traits@D@std@@V?$allocator@D@2@@std@@VSlot@@@std@@@1@@Z 000000018003eef0 f i PlugInLib:ViewerShell.obj
 0001:0003df10       ??8?$_Vector_const_iterator@V?$_Vector_val@U?$pair@V?$basic_string@DU?$char_traits@D@std@@V?$allocator@D@2@@std@@VSlot@@@std@@V?$allocator@U?$pair@V?$basic_string@DU?$char_traits@D@std@@V?$allocator@D@2@@std@@VSlot@@@std@@@2@@std@@@std@@QEBA_NAEBV01@@Z 000000018003ef10 f i PlugInLib:ViewerShell.obj
 0001:0003df20       ??0?$_Vector_iterator@V?$_Vector_val@U?$pair@V?$basic_string@DU?$char_traits@D@std@@V?$allocator@D@2@@std@@VSlot@@@std@@V?$allocator@U?$pair@V?$basic_string@DU?$char_traits@D@std@@V?$allocator@D@2@@std@@VSlot@@@std@@@2@@std@@@std@@QEAA@PEAU?$pair@V?$basic_string@DU?$char_traits@D@std@@V?$allocator@D@2@@std@@VSlot@@@1@PEBU_Container_base0@1@@Z 000000018003ef20 f i PlugInLib:ViewerShell.obj
 0001:0003df30       ?max_size@?$vector@U?$pair@V?$basic_string@DU?$char_traits@D@std@@V?$allocator@D@2@@std@@VSlot@@@std@@V?$allocator@U?$pair@V?$basic_string@DU?$char_traits@D@std@@V?$allocator@D@2@@std@@VSlot@@@std@@@2@@std@@QEBA_KXZ 000000018003ef30 f i PlugInLib:ViewerShell.obj
 0001:0003df40       ?_Grow_to@?$vector@U?$pair@V?$basic_string@DU?$char_traits@D@std@@V?$allocator@D@2@@std@@VSlot@@@std@@V?$allocator@U?$pair@V?$basic_string@DU?$char_traits@D@std@@V?$allocator@D@2@@std@@VSlot@@@std@@@2@@std@@IEBA_K_K@Z 000000018003ef40 f i PlugInLib:ViewerShell.obj
 0001:0003dfa0       ?allocate@?$allocator@U?$pair@V?$basic_string@DU?$char_traits@D@std@@V?$allocator@D@2@@std@@VSlot@@@std@@@std@@QEAAPEAU?$pair@V?$basic_string@DU?$char_traits@D@std@@V?$allocator@D@2@@std@@VSlot@@@2@_K@Z 000000018003efa0 f i PlugInLib:ViewerShell.obj
 0001:0003e010       ??$?0VViewerShell@@P80@EAAXAEAVSubject@@AEBV?$basic_string@DU?$char_traits@D@std@@V?$allocator@D@2@@std@@AEBVany@boost@@@Z@Slot@@QEAA@PEAVViewerShell@@P81@EAAXAEAVSubject@@AEBV?$basic_string@DU?$char_traits@D@std@@V?$allocator@D@2@@std@@AEBVany@boost@@@Z@Z 000000018003f010 f i PlugInLib:ViewerShell.obj
 0001:0003e0c0       ??$?0V?$SafePtr@VApplicationServices@@@@P80@EAAXAEAVSubject@@AEBV?$basic_string@DU?$char_traits@D@std@@V?$allocator@D@2@@std@@AEBVany@boost@@@Z@Slot@@QEAA@PEAV?$SafePtr@VApplicationServices@@@@P81@EAAXAEAVSubject@@AEBV?$basic_string@DU?$char_traits@D@std@@V?$allocator@D@2@@std@@AEBVany@boost@@@Z@Z 000000018003f0c0 f i PlugInLib:ViewerShell.obj
 0001:0003e170       ??0?$vector@U?$pair@V?$basic_string@DU?$char_traits@D@std@@V?$allocator@D@2@@std@@VSlot@@@std@@V?$allocator@U?$pair@V?$basic_string@DU?$char_traits@D@std@@V?$allocator@D@2@@std@@VSlot@@@std@@@2@@std@@QEAA@XZ 000000018003f170 f i PlugInLib:ViewerShell.obj
 0001:0003e190       ?begin@?$vector@U?$pair@V?$basic_string@DU?$char_traits@D@std@@V?$allocator@D@2@@std@@VSlot@@@std@@V?$allocator@U?$pair@V?$basic_string@DU?$char_traits@D@std@@V?$allocator@D@2@@std@@VSlot@@@std@@@2@@std@@QEAA?AV?$_Vector_iterator@V?$_Vector_val@U?$pair@V?$basic_string@DU?$char_traits@D@std@@V?$allocator@D@2@@std@@VSlot@@@std@@V?$allocator@U?$pair@V?$basic_string@DU?$char_traits@D@std@@V?$allocator@D@2@@std@@VSlot@@@std@@@2@@std@@@2@XZ 000000018003f190 f i PlugInLib:ViewerShell.obj
 0001:0003e1a0       ?end@?$vector@U?$pair@V?$basic_string@DU?$char_traits@D@std@@V?$allocator@D@2@@std@@VSlot@@@std@@V?$allocator@U?$pair@V?$basic_string@DU?$char_traits@D@std@@V?$allocator@D@2@@std@@VSlot@@@std@@@2@@std@@QEAA?AV?$_Vector_iterator@V?$_Vector_val@U?$pair@V?$basic_string@DU?$char_traits@D@std@@V?$allocator@D@2@@std@@VSlot@@@std@@V?$allocator@U?$pair@V?$basic_string@DU?$char_traits@D@std@@V?$allocator@D@2@@std@@VSlot@@@std@@@2@@std@@@2@XZ 000000018003f1a0 f i PlugInLib:ViewerShell.obj
 0001:0003e1b0       ??9?$_Vector_const_iterator@V?$_Vector_val@U?$pair@V?$basic_string@DU?$char_traits@D@std@@V?$allocator@D@2@@std@@VSlot@@@std@@V?$allocator@U?$pair@V?$basic_string@DU?$char_traits@D@std@@V?$allocator@D@2@@std@@VSlot@@@std@@@2@@std@@@std@@QEBA_NAEBV01@@Z 000000018003f1b0 f i PlugInLib:ViewerShell.obj
 0001:0003e1c0       ??1?$_Pair_base@V?$basic_string@DU?$char_traits@D@std@@V?$allocator@D@2@@std@@VSlot@@@std@@QEAA@XZ 000000018003f1c0 f i PlugInLib:ViewerShell.obj
 0001:0003e210       ??1?$pair@V?$basic_string@DU?$char_traits@D@std@@V?$allocator@D@2@@std@@VSlot@@@std@@QEAA@XZ 000000018003f210 f i PlugInLib:ViewerShell.obj
 0001:0003e260       ??_G?$pair@V?$basic_string@DU?$char_traits@D@std@@V?$allocator@D@2@@std@@VSlot@@@std@@QEAAPEAXI@Z 000000018003f260 f i PlugInLib:ViewerShell.obj
 0001:0003e2d0       ?update@?$SlotValue@VViewerShell@@@Slot@@UEBAXAEAVSubject@@AEBV?$basic_string@DU?$char_traits@D@std@@V?$allocator@D@2@@std@@AEBVany@boost@@@Z 000000018003f2d0 f i PlugInLib:ViewerShell.obj
 0001:0003e380       ?update@?$SlotValue@V?$SafePtr@VApplicationServices@@@@@Slot@@UEBAXAEAVSubject@@AEBV?$basic_string@DU?$char_traits@D@std@@V?$allocator@D@2@@std@@AEBVany@boost@@@Z 000000018003f380 f i PlugInLib:ViewerShell.obj
 0001:0003e430       ??$_Destroy@U?$pair@V?$basic_string@DU?$char_traits@D@std@@V?$allocator@D@2@@std@@VSlot@@@std@@@std@@YAXPEAU?$pair@V?$basic_string@DU?$char_traits@D@std@@V?$allocator@D@2@@std@@VSlot@@@0@@Z 000000018003f430 f i PlugInLib:ViewerShell.obj
 0001:0003e480       ?signalDeleted@Subject@@SAAEBV?$basic_string@DU?$char_traits@D@std@@V?$allocator@D@2@@std@@XZ 000000018003f480 f i PlugInLib:ViewerShell.obj
 0001:0003e500       ?signalSessionClosed@ApplicationServices@@SAAEBV?$basic_string@DU?$char_traits@D@std@@V?$allocator@D@2@@std@@XZ 000000018003f500 f i PlugInLib:ViewerShell.obj
 0001:0003e580       ?ViewerType@PlugInManagerServices@@SA?AV?$basic_string@DU?$char_traits@D@std@@V?$allocator@D@2@@std@@XZ 000000018003f580 f i PlugInLib:ViewerShell.obj
 0001:0003e5c0       ?detachFromDeleted@?$SafePtr@VApplicationServices@@@@AEAAXXZ 000000018003f5c0 f i PlugInLib:ViewerShell.obj
 0001:0003e670       ?attachToDeleted@?$SafePtr@VApplicationServices@@@@AEAAXXZ 000000018003f670 f i PlugInLib:ViewerShell.obj
 0001:0003e720       ?destroy@?$allocator@U?$pair@V?$basic_string@DU?$char_traits@D@std@@V?$allocator@D@2@@std@@VSlot@@@std@@@std@@QEAAXPEAU?$pair@V?$basic_string@DU?$char_traits@D@std@@V?$allocator@D@2@@std@@VSlot@@@2@@Z 000000018003f720 f i PlugInLib:ViewerShell.obj
 0001:0003e770       ??1?$SafePtr@VApplicationServices@@@@UEAA@XZ 000000018003f770 f i PlugInLib:ViewerShell.obj
 0001:0003e7a0       ??_E?$SafePtr@VApplicationServices@@@@UEAAPEAXI@Z 000000018003f7a0 f i PlugInLib:ViewerShell.obj
 0001:0003e7a0       ??_G?$SafePtr@VApplicationServices@@@@UEAAPEAXI@Z 000000018003f7a0 f i PlugInLib:ViewerShell.obj
 0001:0003e7f0       ??0?$SafePtr@VApplicationServices@@@@QEAA@PEAVApplicationServices@@@Z 000000018003f7f0 f i PlugInLib:ViewerShell.obj
 0001:0003e820       ?reset@?$SafePtr@VApplicationServices@@@@QEAAXPEAVApplicationServices@@@Z 000000018003f820 f i PlugInLib:ViewerShell.obj
 0001:0003e860       ??0?$_Pair_base@V?$basic_string@DU?$char_traits@D@std@@V?$allocator@D@2@@std@@VSlot@@@std@@QEAA@$$QEAV?$basic_string@DU?$char_traits@D@std@@V?$allocator@D@2@@1@$$QEAVSlot@@@Z 000000018003f860 f i PlugInLib:ViewerShell.obj
 0001:0003e8d0       ??$?0V?$basic_string@DU?$char_traits@D@std@@V?$allocator@D@2@@std@@VSlot@@@?$pair@V?$basic_string@DU?$char_traits@D@std@@V?$allocator@D@2@@std@@VSlot@@@std@@QEAA@$$QEAU01@@Z 000000018003f8d0 f i PlugInLib:ViewerShell.obj
 0001:0003e940       ??$_Dest_val@V?$allocator@U?$pair@V?$basic_string@DU?$char_traits@D@std@@V?$allocator@D@2@@std@@VSlot@@@std@@@std@@U?$pair@V?$basic_string@DU?$char_traits@D@std@@V?$allocator@D@2@@std@@VSlot@@@2@@std@@YAXAEAV?$allocator@U?$pair@V?$basic_string@DU?$char_traits@D@std@@V?$allocator@D@2@@std@@VSlot@@@std@@@0@PEAU?$pair@V?$basic_string@DU?$char_traits@D@std@@V?$allocator@D@2@@std@@VSlot@@@0@@Z 000000018003f940 f i PlugInLib:ViewerShell.obj
 0001:0003e990       ?reset@?$AttachmentPtr@VApplicationServices@@@@QEAAXPEAVApplicationServices@@@Z 000000018003f990 f i PlugInLib:ViewerShell.obj
 0001:0003ea30       ?construct@?$allocator@U?$pair@V?$basic_string@DU?$char_traits@D@std@@V?$allocator@D@2@@std@@VSlot@@@std@@@std@@QEAAXPEAU?$pair@V?$basic_string@DU?$char_traits@D@std@@V?$allocator@D@2@@std@@VSlot@@@2@$$QEAU32@@Z 000000018003fa30 f i PlugInLib:ViewerShell.obj
 0001:0003eaa0       ??0?$pair@V?$basic_string@DU?$char_traits@D@std@@V?$allocator@D@2@@std@@VSlot@@@std@@QEAA@$$QEAV?$basic_string@DU?$char_traits@D@std@@V?$allocator@D@2@@1@$$QEAVSlot@@@Z 000000018003faa0 f i PlugInLib:ViewerShell.obj
 0001:0003eb10       ??$_Destroy_range@V?$allocator@U?$pair@V?$basic_string@DU?$char_traits@D@std@@V?$allocator@D@2@@std@@VSlot@@@std@@@std@@@std@@YAXPEAU?$pair@V?$basic_string@DU?$char_traits@D@std@@V?$allocator@D@2@@std@@VSlot@@@0@0AEAV?$allocator@U?$pair@V?$basic_string@DU?$char_traits@D@std@@V?$allocator@D@2@@std@@VSlot@@@std@@@0@U_Nonscalar_ptr_iterator_tag@0@@Z 000000018003fb10 f i PlugInLib:ViewerShell.obj
 0001:0003eb80       ??$make_pair@V?$basic_string@DU?$char_traits@D@std@@V?$allocator@D@2@@std@@VSlot@@@std@@YA?AU?$pair@V?$basic_string@DU?$char_traits@D@std@@V?$allocator@D@2@@std@@VSlot@@@0@AEBV?$basic_string@DU?$char_traits@D@std@@V?$allocator@D@2@@0@AEBVSlot@@@Z 000000018003fb80 f i PlugInLib:ViewerShell.obj
 0001:0003ec70       ??$_Cons_val@V?$allocator@U?$pair@V?$basic_string@DU?$char_traits@D@std@@V?$allocator@D@2@@std@@VSlot@@@std@@@std@@U?$pair@V?$basic_string@DU?$char_traits@D@std@@V?$allocator@D@2@@std@@VSlot@@@2@U32@@std@@YAXAEAV?$allocator@U?$pair@V?$basic_string@DU?$char_traits@D@std@@V?$allocator@D@2@@std@@VSlot@@@std@@@0@PEAU?$pair@V?$basic_string@DU?$char_traits@D@std@@V?$allocator@D@2@@std@@VSlot@@@0@$$QEAU20@@Z 000000018003fc70 f i PlugInLib:ViewerShell.obj
 0001:0003ece0       ??$_Destroy_range@V?$allocator@U?$pair@V?$basic_string@DU?$char_traits@D@std@@V?$allocator@D@2@@std@@VSlot@@@std@@@std@@@std@@YAXPEAU?$pair@V?$basic_string@DU?$char_traits@D@std@@V?$allocator@D@2@@std@@VSlot@@@0@0AEAV?$allocator@U?$pair@V?$basic_string@DU?$char_traits@D@std@@V?$allocator@D@2@@std@@VSlot@@@std@@@0@@Z 000000018003fce0 f i PlugInLib:ViewerShell.obj
 0001:0003ed50       ??$_Uninit_move@PEAU?$pair@V?$basic_string@DU?$char_traits@D@std@@V?$allocator@D@2@@std@@VSlot@@@std@@PEAU12@V?$allocator@U?$pair@V?$basic_string@DU?$char_traits@D@std@@V?$allocator@D@2@@std@@VSlot@@@std@@@2@U12@@std@@YAPEAU?$pair@V?$basic_string@DU?$char_traits@D@std@@V?$allocator@D@2@@std@@VSlot@@@0@PEAU10@00AEAV?$allocator@U?$pair@V?$basic_string@DU?$char_traits@D@std@@V?$allocator@D@2@@std@@VSlot@@@std@@@0@0U_Nonscalar_ptr_iterator_tag@0@@Z 000000018003fd50 f i PlugInLib:ViewerShell.obj
 0001:0003ede0       ?_Destroy@?$vector@U?$pair@V?$basic_string@DU?$char_traits@D@std@@V?$allocator@D@2@@std@@VSlot@@@std@@V?$allocator@U?$pair@V?$basic_string@DU?$char_traits@D@std@@V?$allocator@D@2@@std@@VSlot@@@std@@@2@@std@@IEAAXPEAU?$pair@V?$basic_string@DU?$char_traits@D@std@@V?$allocator@D@2@@std@@VSlot@@@2@0@Z 000000018003fde0 f i PlugInLib:ViewerShell.obj
 0001:0003ee00       ??$_Uninitialized_move@PEAU?$pair@V?$basic_string@DU?$char_traits@D@std@@V?$allocator@D@2@@std@@VSlot@@@std@@PEAU12@V?$allocator@U?$pair@V?$basic_string@DU?$char_traits@D@std@@V?$allocator@D@2@@std@@VSlot@@@std@@@2@@std@@YAPEAU?$pair@V?$basic_string@DU?$char_traits@D@std@@V?$allocator@D@2@@std@@VSlot@@@0@PEAU10@00AEAV?$allocator@U?$pair@V?$basic_string@DU?$char_traits@D@std@@V?$allocator@D@2@@std@@VSlot@@@std@@@0@@Z 000000018003fe00 f i PlugInLib:ViewerShell.obj
 0001:0003ee20       ?_Tidy@?$vector@U?$pair@V?$basic_string@DU?$char_traits@D@std@@V?$allocator@D@2@@std@@VSlot@@@std@@V?$allocator@U?$pair@V?$basic_string@DU?$char_traits@D@std@@V?$allocator@D@2@@std@@VSlot@@@std@@@2@@std@@IEAAXXZ 000000018003fe20 f i PlugInLib:ViewerShell.obj
 0001:0003ee60       ??$_Umove@PEAU?$pair@V?$basic_string@DU?$char_traits@D@std@@V?$allocator@D@2@@std@@VSlot@@@std@@@?$vector@U?$pair@V?$basic_string@DU?$char_traits@D@std@@V?$allocator@D@2@@std@@VSlot@@@std@@V?$allocator@U?$pair@V?$basic_string@DU?$char_traits@D@std@@V?$allocator@D@2@@std@@VSlot@@@std@@@2@@std@@IEAAPEAU?$pair@V?$basic_string@DU?$char_traits@D@std@@V?$allocator@D@2@@std@@VSlot@@@1@PEAU21@00@Z 000000018003fe60 f i PlugInLib:ViewerShell.obj
 0001:0003eea0       ??1?$vector@U?$pair@V?$basic_string@DU?$char_traits@D@std@@V?$allocator@D@2@@std@@VSlot@@@std@@V?$allocator@U?$pair@V?$basic_string@DU?$char_traits@D@std@@V?$allocator@D@2@@std@@VSlot@@@std@@@2@@std@@QEAA@XZ 000000018003fea0 f i PlugInLib:ViewerShell.obj
 0001:0003eee0       ?reserve@?$vector@U?$pair@V?$basic_string@DU?$char_traits@D@std@@V?$allocator@D@2@@std@@VSlot@@@std@@V?$allocator@U?$pair@V?$basic_string@DU?$char_traits@D@std@@V?$allocator@D@2@@std@@VSlot@@@std@@@2@@std@@QEAAX_K@Z 000000018003fee0 f i PlugInLib:ViewerShell.obj
 0001:0003f000       ??0?$AttachmentPtr@VApplicationServices@@@@QEAA@XZ 0000000180040000 f i PlugInLib:ViewerShell.obj
 0001:0003f050       ??1?$AttachmentPtr@VApplicationServices@@@@UEAA@XZ 0000000180040050 f i PlugInLib:ViewerShell.obj
 0001:0003f0d0       ??_G?$AttachmentPtr@VApplicationServices@@@@UEAAPEAXI@Z 00000001800400d0 f i PlugInLib:ViewerShell.obj
 0001:0003f0d0       ??_E?$AttachmentPtr@VApplicationServices@@@@UEAAPEAXI@Z 00000001800400d0 f i PlugInLib:ViewerShell.obj
 0001:0003f100       ?_Reserve@?$vector@U?$pair@V?$basic_string@DU?$char_traits@D@std@@V?$allocator@D@2@@std@@VSlot@@@std@@V?$allocator@U?$pair@V?$basic_string@DU?$char_traits@D@std@@V?$allocator@D@2@@std@@VSlot@@@std@@@2@@std@@IEAAX_K@Z 0000000180040100 f i PlugInLib:ViewerShell.obj
 0001:0003f1b0       ??1ViewerShell@@UEAA@XZ    00000001800401b0 f   PlugInLib:ViewerShell.obj
 0001:0003f200       ??_EViewerShell@@W7EAAPEAXI@Z 0000000180040200 f i PlugInLib:ViewerShell.obj
 0001:0003f210       ?push_back@?$vector@U?$pair@V?$basic_string@DU?$char_traits@D@std@@V?$allocator@D@2@@std@@VSlot@@@std@@V?$allocator@U?$pair@V?$basic_string@DU?$char_traits@D@std@@V?$allocator@D@2@@std@@VSlot@@@std@@@2@@std@@QEAAX$$QEAU?$pair@V?$basic_string@DU?$char_traits@D@std@@V?$allocator@D@2@@std@@VSlot@@@2@@Z 0000000180040210 f i PlugInLib:ViewerShell.obj
 0001:0003f350       ??_GViewerShell@@UEAAPEAXI@Z 0000000180040350 f i PlugInLib:ViewerShell.obj
 0001:0003f350       ??_EViewerShell@@UEAAPEAXI@Z 0000000180040350 f i PlugInLib:ViewerShell.obj
 0001:0003f3c0       ?addSignal@?$AttachmentPtr@VApplicationServices@@@@QEAAXAEBV?$basic_string@DU?$char_traits@D@std@@V?$allocator@D@2@@std@@AEBVSlot@@@Z 00000001800403c0 f i PlugInLib:ViewerShell.obj
 0001:0003f450       ??0ViewerShell@@QEAA@XZ    0000000180040450 f   PlugInLib:ViewerShell.obj
 0001:0003f5e0       ??1Executable@@MEAA@XZ     00000001800405e0 f i PlugInLib:ExecutableShell.obj
 0001:0003f5f0       ??_GExecutable@@MEAAPEAXI@Z 00000001800405f0 f i PlugInLib:ExecutableShell.obj
 0001:0003f5f0       ??_EExecutable@@MEAAPEAXI@Z 00000001800405f0 f i PlugInLib:ExecutableShell.obj
 0001:0003f620       ??0Executable@@QEAA@XZ     0000000180040620 f i PlugInLib:ExecutableShell.obj
 0001:0003f630       ?isExecutedOnStartup@ExecutableShell@@UEBA_NXZ 0000000180040630 f   PlugInLib:ExecutableShell.obj
 0001:0003f640       ?isDestroyedAfterExecute@ExecutableShell@@UEBA_NXZ 0000000180040640 f   PlugInLib:ExecutableShell.obj
 0001:0003f650       ?getMenuLocations@ExecutableShell@@UEBAAEBV?$vector@V?$basic_string@DU?$char_traits@D@std@@V?$allocator@D@2@@std@@V?$allocator@V?$basic_string@DU?$char_traits@D@std@@V?$allocator@D@2@@std@@@2@@std@@XZ 0000000180040650 f   PlugInLib:ExecutableShell.obj
 0001:0003f660       ?setBatch@ExecutableShell@@UEAA_NXZ 0000000180040660 f   PlugInLib:ExecutableShell.obj
 0001:0003f670       ?setInteractive@ExecutableShell@@UEAA_NXZ 0000000180040670 f   PlugInLib:ExecutableShell.obj
 0001:0003f680       ?initialize@ExecutableShell@@UEAA_NXZ 0000000180040680 f   PlugInLib:ExecutableShell.obj
 0001:0003f690       ?abort@ExecutableShell@@UEAA_NXZ 0000000180040690 f   PlugInLib:ExecutableShell.obj
 0001:0003f6b0       ?hasAbort@ExecutableShell@@UEAA_NXZ 00000001800406b0 f   PlugInLib:ExecutableShell.obj
 0001:0003f6c0       ?isBackground@ExecutableShell@@UEBA_NXZ 00000001800406c0 f   PlugInLib:ExecutableShell.obj
 0001:0003f6d0       ?isBatch@ExecutableShell@@QEBA_NXZ 00000001800406d0 f   PlugInLib:ExecutableShell.obj
 0001:0003f6e0       ?isAborted@ExecutableShell@@QEBA_NXZ 00000001800406e0 f   PlugInLib:ExecutableShell.obj
 0001:0003f6f0       ?hasWizardSupport@ExecutableShell@@UEBA_NXZ 00000001800406f0 f   PlugInLib:ExecutableShell.obj
 0001:0003f700       ?executeOnStartup@ExecutableShell@@IEAAX_N@Z 0000000180040700 f   PlugInLib:ExecutableShell.obj
 0001:0003f710       ?destroyAfterExecute@ExecutableShell@@IEAAX_N@Z 0000000180040710 f   PlugInLib:ExecutableShell.obj
 0001:0003f720       ?setAbortSupported@ExecutableShell@@IEAAX_N@Z 0000000180040720 f   PlugInLib:ExecutableShell.obj
 0001:0003f730       ?setBackground@ExecutableShell@@IEAAX_N@Z 0000000180040730 f   PlugInLib:ExecutableShell.obj
 0001:0003f740       ?setWizardSupported@ExecutableShell@@IEAAX_N@Z 0000000180040740 f   PlugInLib:ExecutableShell.obj
 0001:0003f750       ?_Make_iter@?$vector@V?$basic_string@DU?$char_traits@D@std@@V?$allocator@D@2@@std@@V?$allocator@V?$basic_string@DU?$char_traits@D@std@@V?$allocator@D@2@@std@@@2@@std@@QEBA?AV?$_Vector_iterator@V?$_Vector_val@V?$basic_string@DU?$char_traits@D@std@@V?$allocator@D@2@@std@@V?$allocator@V?$basic_string@DU?$char_traits@D@std@@V?$allocator@D@2@@std@@@2@@std@@@2@V?$_Vector_const_iterator@V?$_Vector_val@V?$basic_string@DU?$char_traits@D@std@@V?$allocator@D@2@@std@@V?$allocator@V?$basic_string@DU?$char_traits@D@std@@V?$allocator@D@2@@std@@@2@@std@@@2@@Z 0000000180040750 f i PlugInLib:ExecutableShell.obj
 0001:0003f760       ??$_Move@PEAV?$basic_string@DU?$char_traits@D@std@@V?$allocator@D@2@@std@@PEAV12@@std@@YAPEAV?$basic_string@DU?$char_traits@D@std@@V?$allocator@D@2@@0@PEAV10@00U_Nonscalar_ptr_iterator_tag@0@@Z 0000000180040760 f i PlugInLib:ExecutableShell.obj
 0001:0003f820       ??$_Move@PEAV?$basic_string@DU?$char_traits@D@std@@V?$allocator@D@2@@std@@PEAV12@@std@@YAPEAV?$basic_string@DU?$char_traits@D@std@@V?$allocator@D@2@@0@PEAV10@00@Z 0000000180040820 f i PlugInLib:ExecutableShell.obj
 0001:0003f830       ?erase@?$vector@V?$basic_string@DU?$char_traits@D@std@@V?$allocator@D@2@@std@@V?$allocator@V?$basic_string@DU?$char_traits@D@std@@V?$allocator@D@2@@std@@@2@@std@@QEAA?AV?$_Vector_iterator@V?$_Vector_val@V?$basic_string@DU?$char_traits@D@std@@V?$allocator@D@2@@std@@V?$allocator@V?$basic_string@DU?$char_traits@D@std@@V?$allocator@D@2@@std@@@2@@std@@@2@V?$_Vector_const_iterator@V?$_Vector_val@V?$basic_string@DU?$char_traits@D@std@@V?$allocator@D@2@@std@@V?$allocator@V?$basic_string@DU?$char_traits@D@std@@V?$allocator@D@2@@std@@@2@@std@@@2@0@Z 0000000180040830 f i PlugInLib:ExecutableShell.obj
 0001:0003f8f0       ?clear@?$vector@V?$basic_string@DU?$char_traits@D@std@@V?$allocator@D@2@@std@@V?$allocator@V?$basic_string@DU?$char_traits@D@std@@V?$allocator@D@2@@std@@@2@@std@@QEAAXXZ 00000001800408f0 f i PlugInLib:ExecutableShell.obj
 0001:0003f910       ??0ExecutableShell@@QEAA@XZ 0000000180040910 f   PlugInLib:ExecutableShell.obj
 0001:0003f9a0       ??_EExecutableShell@@W7EAAPEAXI@Z 00000001800409a0 f i PlugInLib:ExecutableShell.obj
 0001:0003f9b0       ??1ExecutableShell@@UEAA@XZ 00000001800409b0 f   PlugInLib:ExecutableShell.obj
 0001:0003fa10       ??_EExecutableShell@@UEAAPEAXI@Z 0000000180040a10 f i PlugInLib:ExecutableShell.obj
 0001:0003fa10       ??_GExecutableShell@@UEAAPEAXI@Z 0000000180040a10 f i PlugInLib:ExecutableShell.obj
 0001:0003fa90       ?addMenuLocation@ExecutableShell@@IEAAXAEBV?$basic_string@DU?$char_traits@D@std@@V?$allocator@D@2@@std@@@Z 0000000180040a90 f   PlugInLib:ExecutableShell.obj
 0001:0003faa0       ?setMenuLocation@ExecutableShell@@IEAAXAEBV?$basic_string@DU?$char_traits@D@std@@V?$allocator@D@2@@std@@@Z 0000000180040aa0 f   PlugInLib:ExecutableShell.obj
 0001:0003fae0       ??1SessionItem@@MEAA@XZ    0000000180040ae0 f i PlugInLib:PlugInShell.obj
 0001:0003faf0       ??_ESessionItem@@MEAAPEAXI@Z 0000000180040af0 f i PlugInLib:PlugInShell.obj
 0001:0003faf0       ??_GSessionItem@@MEAAPEAXI@Z 0000000180040af0 f i PlugInLib:PlugInShell.obj
 0001:0003fb20       ??1PlugIn@@MEAA@XZ         0000000180040b20 f i PlugInLib:PlugInShell.obj
 0001:0003fb30       ??0SessionItem@@QEAA@XZ    0000000180040b30 f i PlugInLib:PlugInShell.obj
 0001:0003fb40       ?serialize@PlugInShell@@UEBA_NAEAVSessionItemSerializer@@@Z 0000000180040b40 f   PlugInLib:PlugInShell.obj
 0001:0003fb50       ?deserialize@PlugInShell@@UEAA_NAEAVSessionItemDeserializer@@@Z 0000000180040b50 f   PlugInLib:PlugInShell.obj
 0001:0003fb60       ?isProduction@PlugInShell@@UEBA_NXZ 0000000180040b60 f   PlugInLib:PlugInShell.obj
 0001:0003fb70       ?areMultipleInstancesAllowed@PlugInShell@@UEBA_NXZ 0000000180040b70 f   PlugInLib:PlugInShell.obj
 0001:0003fb80       ?setProductionStatus@PlugInShell@@IEAAX_N@Z 0000000180040b80 f   PlugInLib:PlugInShell.obj
 0001:0003fb90       ?allowMultipleInstances@PlugInShell@@IEAAX_N@Z 0000000180040b90 f   PlugInLib:PlugInShell.obj
 0001:0003fba0       ?empty@?$basic_string@DU?$char_traits@D@std@@V?$allocator@D@2@@std@@QEBA_NXZ 0000000180040ba0 f i PlugInLib:PlugInShell.obj
 0001:0003fbb0       ??1?$EnumWrapper@W4BuddyTypeEnum@ContextMenuAction@@@@QEAA@XZ 0000000180040bb0 f i PlugInLib:PlugInShell.obj
 0001:0003fbc0       ??C?$Service@VApplicationServices@@@@QEBAPEAVApplicationServices@@XZ 0000000180040bc0 f i PlugInLib:PlugInShell.obj
 0001:0003fbd0       ?get@?$Resource@VSettableSessionItem@@VFactoryObject@@@@QEBAPEBVSettableSessionItem@@XZ 0000000180040bd0 f i PlugInLib:PlugInShell.obj
 0001:0003fbe0       ?get@?$Resource@VSettableSessionItem@@VFactoryObject@@@@QEAAPEAVSettableSessionItem@@XZ 0000000180040be0 f i PlugInLib:PlugInShell.obj
 0001:0003fbf0       ?_Color@?$_Tree_val@V?$_Tmap_traits@V?$basic_string@DU?$char_traits@D@std@@V?$allocator@D@2@@std@@V12@U?$less@V?$basic_string@DU?$char_traits@D@std@@V?$allocator@D@2@@std@@@2@V?$allocator@U?$pair@$$CBV?$basic_string@DU?$char_traits@D@std@@V?$allocator@D@2@@std@@V12@@std@@@2@$0A@@std@@@std@@SAAEADPEAU_Node@?$_Tree_nod@V?$_Tmap_traits@V?$basic_string@DU?$char_traits@D@std@@V?$allocator@D@2@@std@@V12@U?$less@V?$basic_string@DU?$char_traits@D@std@@V?$allocator@D@2@@std@@@2@V?$allocator@U?$pair@$$CBV?$basic_string@DU?$char_traits@D@std@@V?$allocator@D@2@@std@@V12@@std@@@2@$0A@@std@@@2@@Z 0000000180040bf0 f i PlugInLib:PlugInShell.obj
 0001:0003fc00       ?_Isnil@?$_Tree_val@V?$_Tmap_traits@V?$basic_string@DU?$char_traits@D@std@@V?$allocator@D@2@@std@@V12@U?$less@V?$basic_string@DU?$char_traits@D@std@@V?$allocator@D@2@@std@@@2@V?$allocator@U?$pair@$$CBV?$basic_string@DU?$char_traits@D@std@@V?$allocator@D@2@@std@@V12@@std@@@2@$0A@@std@@@std@@SAAEADPEAU_Node@?$_Tree_nod@V?$_Tmap_traits@V?$basic_string@DU?$char_traits@D@std@@V?$allocator@D@2@@std@@V12@U?$less@V?$basic_string@DU?$char_traits@D@std@@V?$allocator@D@2@@std@@@2@V?$allocator@U?$pair@$$CBV?$basic_string@DU?$char_traits@D@std@@V?$allocator@D@2@@std@@V12@@std@@@2@$0A@@std@@@2@@Z 0000000180040c00 f i PlugInLib:PlugInShell.obj
 0001:0003fc10       ?_Left@?$_Tree_val@V?$_Tmap_traits@V?$basic_string@DU?$char_traits@D@std@@V?$allocator@D@2@@std@@V12@U?$less@V?$basic_string@DU?$char_traits@D@std@@V?$allocator@D@2@@std@@@2@V?$allocator@U?$pair@$$CBV?$basic_string@DU?$char_traits@D@std@@V?$allocator@D@2@@std@@V12@@std@@@2@$0A@@std@@@std@@SAAEAPEAU_Node@?$_Tree_nod@V?$_Tmap_traits@V?$basic_string@DU?$char_traits@D@std@@V?$allocator@D@2@@std@@V12@U?$less@V?$basic_string@DU?$char_traits@D@std@@V?$allocator@D@2@@std@@@2@V?$allocator@U?$pair@$$CBV?$basic_string@DU?$char_traits@D@std@@V?$allocator@D@2@@std@@V12@@std@@@2@$0A@@std@@@2@PEAU342@@Z 0000000180040c10 f i PlugInLib:PlugInShell.obj
 0001:0003fc20       ?_Parent@?$_Tree_val@V?$_Tmap_traits@V?$basic_string@DU?$char_traits@D@std@@V?$allocator@D@2@@std@@V12@U?$less@V?$basic_string@DU?$char_traits@D@std@@V?$allocator@D@2@@std@@@2@V?$allocator@U?$pair@$$CBV?$basic_string@DU?$char_traits@D@std@@V?$allocator@D@2@@std@@V12@@std@@@2@$0A@@std@@@std@@SAAEAPEAU_Node@?$_Tree_nod@V?$_Tmap_traits@V?$basic_string@DU?$char_traits@D@std@@V?$allocator@D@2@@std@@V12@U?$less@V?$basic_string@DU?$char_traits@D@std@@V?$allocator@D@2@@std@@@2@V?$allocator@U?$pair@$$CBV?$basic_string@DU?$char_traits@D@std@@V?$allocator@D@2@@std@@V12@@std@@@2@$0A@@std@@@2@PEAU342@@Z 0000000180040c20 f i PlugInLib:PlugInShell.obj
 0001:0003fc30       ?_Right@?$_Tree_val@V?$_Tmap_traits@V?$basic_string@DU?$char_traits@D@std@@V?$allocator@D@2@@std@@V12@U?$less@V?$basic_string@DU?$char_traits@D@std@@V?$allocator@D@2@@std@@@2@V?$allocator@U?$pair@$$CBV?$basic_string@DU?$char_traits@D@std@@V?$allocator@D@2@@std@@V12@@std@@@2@$0A@@std@@@std@@SAAEAPEAU_Node@?$_Tree_nod@V?$_Tmap_traits@V?$basic_string@DU?$char_traits@D@std@@V?$allocator@D@2@@std@@V12@U?$less@V?$basic_string@DU?$char_traits@D@std@@V?$allocator@D@2@@std@@@2@V?$allocator@U?$pair@$$CBV?$basic_string@DU?$char_traits@D@std@@V?$allocator@D@2@@std@@V12@@std@@@2@$0A@@std@@@2@PEAU342@@Z 0000000180040c30 f i PlugInLib:PlugInShell.obj
 0001:0003fc40       ?_Myval@?$_Tree_val@V?$_Tmap_traits@V?$basic_string@DU?$char_traits@D@std@@V?$allocator@D@2@@std@@V12@U?$less@V?$basic_string@DU?$char_traits@D@std@@V?$allocator@D@2@@std@@@2@V?$allocator@U?$pair@$$CBV?$basic_string@DU?$char_traits@D@std@@V?$allocator@D@2@@std@@V12@@std@@@2@$0A@@std@@@std@@SAAEAU?$pair@$$CBV?$basic_string@DU?$char_traits@D@std@@V?$allocator@D@2@@std@@V12@@2@PEAU_Node@?$_Tree_nod@V?$_Tmap_traits@V?$basic_string@DU?$char_traits@D@std@@V?$allocator@D@2@@std@@V12@U?$less@V?$basic_string@DU?$char_traits@D@std@@V?$allocator@D@2@@std@@@2@V?$allocator@U?$pair@$$CBV?$basic_string@DU?$char_traits@D@std@@V?$allocator@D@2@@std@@V12@@std@@@2@$0A@@std@@@2@@Z 0000000180040c40 f i PlugInLib:PlugInShell.obj
 0001:0003fc50       ?_Max@?$_Tree_val@V?$_Tmap_traits@V?$basic_string@DU?$char_traits@D@std@@V?$allocator@D@2@@std@@V12@U?$less@V?$basic_string@DU?$char_traits@D@std@@V?$allocator@D@2@@std@@@2@V?$allocator@U?$pair@$$CBV?$basic_string@DU?$char_traits@D@std@@V?$allocator@D@2@@std@@V12@@std@@@2@$0A@@std@@@std@@SAPEAU_Node@?$_Tree_nod@V?$_Tmap_traits@V?$basic_string@DU?$char_traits@D@std@@V?$allocator@D@2@@std@@V12@U?$less@V?$basic_string@DU?$char_traits@D@std@@V?$allocator@D@2@@std@@@2@V?$allocator@U?$pair@$$CBV?$basic_string@DU?$char_traits@D@std@@V?$allocator@D@2@@std@@V12@@std@@@2@$0A@@std@@@2@PEAU342@@Z 0000000180040c50 f i PlugInLib:PlugInShell.obj
 0001:0003fc80       ?_Min@?$_Tree_val@V?$_Tmap_traits@V?$basic_string@DU?$char_traits@D@std@@V?$allocator@D@2@@std@@V12@U?$less@V?$basic_string@DU?$char_traits@D@std@@V?$allocator@D@2@@std@@@2@V?$allocator@U?$pair@$$CBV?$basic_string@DU?$char_traits@D@std@@V?$allocator@D@2@@std@@V12@@std@@@2@$0A@@std@@@std@@SAPEAU_Node@?$_Tree_nod@V?$_Tmap_traits@V?$basic_string@DU?$char_traits@D@std@@V?$allocator@D@2@@std@@V12@U?$less@V?$basic_string@DU?$char_traits@D@std@@V?$allocator@D@2@@std@@@2@V?$allocator@U?$pair@$$CBV?$basic_string@DU?$char_traits@D@std@@V?$allocator@D@2@@std@@V12@@std@@@2@$0A@@std@@@2@PEAU342@@Z 0000000180040c80 f i PlugInLib:PlugInShell.obj
 0001:0003fca0       ??0?$allocator@U?$pair@$$CBV?$basic_string@DU?$char_traits@D@std@@V?$allocator@D@2@@std@@V12@@std@@@std@@QEAA@XZ 0000000180040ca0 f i PlugInLib:PlugInShell.obj
 0001:0003fcb0       ?deallocate@?$allocator@U_Node@?$_Tree_nod@V?$_Tmap_traits@V?$basic_string@DU?$char_traits@D@std@@V?$allocator@D@2@@std@@V12@U?$less@V?$basic_string@DU?$char_traits@D@std@@V?$allocator@D@2@@std@@@2@V?$allocator@U?$pair@$$CBV?$basic_string@DU?$char_traits@D@std@@V?$allocator@D@2@@std@@V12@@std@@@2@$0A@@std@@@std@@@std@@QEAAXPEAU_Node@?$_Tree_nod@V?$_Tmap_traits@V?$basic_string@DU?$char_traits@D@std@@V?$allocator@D@2@@std@@V12@U?$less@V?$basic_string@DU?$char_traits@D@std@@V?$allocator@D@2@@std@@@2@V?$allocator@U?$pair@$$CBV?$basic_string@DU?$char_traits@D@std@@V?$allocator@D@2@@std@@V12@@std@@@2@$0A@@std@@@2@_K@Z 0000000180040cb0 f i PlugInLib:PlugInShell.obj
 0001:0003fcc0       ??8?$_Tree_const_iterator@V?$_Tree_val@V?$_Tmap_traits@V?$basic_string@DU?$char_traits@D@std@@V?$allocator@D@2@@std@@V12@U?$less@V?$basic_string@DU?$char_traits@D@std@@V?$allocator@D@2@@std@@@2@V?$allocator@U?$pair@$$CBV?$basic_string@DU?$char_traits@D@std@@V?$allocator@D@2@@std@@V12@@std@@@2@$0A@@std@@@std@@@std@@QEBA_NAEBV01@@Z 0000000180040cc0 f i PlugInLib:PlugInShell.obj
 0001:0003fcd0       ?_Mynode@?$_Tree_unchecked_const_iterator@V?$_Tree_val@V?$_Tmap_traits@V?$basic_string@DU?$char_traits@D@std@@V?$allocator@D@2@@std@@V12@U?$less@V?$basic_string@DU?$char_traits@D@std@@V?$allocator@D@2@@std@@@2@V?$allocator@U?$pair@$$CBV?$basic_string@DU?$char_traits@D@std@@V?$allocator@D@2@@std@@V12@@std@@@2@$0A@@std@@@std@@U_Iterator_base0@2@@std@@QEBAPEAU_Node@?$_Tree_nod@V?$_Tmap_traits@V?$basic_string@DU?$char_traits@D@std@@V?$allocator@D@2@@std@@V12@U?$less@V?$basic_string@DU?$char_traits@D@std@@V?$allocator@D@2@@std@@@2@V?$allocator@U?$pair@$$CBV?$basic_string@DU?$char_traits@D@std@@V?$allocator@D@2@@std@@V12@@std@@@2@$0A@@std@@@2@XZ 0000000180040cd0 f i PlugInLib:PlugInShell.obj
 0001:0003fce0       ?key_comp@?$_Tree@V?$_Tmap_traits@V?$basic_string@DU?$char_traits@D@std@@V?$allocator@D@2@@std@@V12@U?$less@V?$basic_string@DU?$char_traits@D@std@@V?$allocator@D@2@@std@@@2@V?$allocator@U?$pair@$$CBV?$basic_string@DU?$char_traits@D@std@@V?$allocator@D@2@@std@@V12@@std@@@2@$0A@@std@@@std@@QEBA?AU?$less@V?$basic_string@DU?$char_traits@D@std@@V?$allocator@D@2@@std@@@2@XZ 0000000180040ce0 f i PlugInLib:PlugInShell.obj
 0001:0003fcf0       ??0?$allocator@U?$pair@$$CBV?$basic_string@DU?$char_traits@D@std@@V?$allocator@D@2@@std@@V12@@std@@@std@@QEAA@AEBV01@@Z 0000000180040cf0 f i PlugInLib:PlugInShell.obj
 0001:0003fd00       ?deallocate@?$allocator@U_Node@?$_List_nod@UContextMenuAction@@V?$allocator@UContextMenuAction@@@std@@@std@@@std@@QEAAXPEAU_Node@?$_List_nod@UContextMenuAction@@V?$allocator@UContextMenuAction@@@std@@@2@_K@Z 0000000180040d00 f i PlugInLib:PlugInShell.obj
 0001:0003fd10       ??D?$_Tree_const_iterator@V?$_Tree_val@V?$_Tmap_traits@V?$basic_string@DU?$char_traits@D@std@@V?$allocator@D@2@@std@@V12@U?$less@V?$basic_string@DU?$char_traits@D@std@@V?$allocator@D@2@@std@@@2@V?$allocator@U?$pair@$$CBV?$basic_string@DU?$char_traits@D@std@@V?$allocator@D@2@@std@@V12@@std@@@2@$0A@@std@@@std@@@std@@QEBAAEBU?$pair@$$CBV?$basic_string@DU?$char_traits@D@std@@V?$allocator@D@2@@std@@V12@@1@XZ 0000000180040d10 f i PlugInLib:PlugInShell.obj
 0001:0003fd20       ??E?$_Tree_unchecked_const_iterator@V?$_Tree_val@V?$_Tmap_traits@V?$basic_string@DU?$char_traits@D@std@@V?$allocator@D@2@@std@@V12@U?$less@V?$basic_string@DU?$char_traits@D@std@@V?$allocator@D@2@@std@@@2@V?$allocator@U?$pair@$$CBV?$basic_string@DU?$char_traits@D@std@@V?$allocator@D@2@@std@@V12@@std@@@2@$0A@@std@@@std@@U_Iterator_base0@2@@std@@QEAAAEAV01@XZ 0000000180040d20 f i PlugInLib:PlugInShell.obj
 0001:0003fd80       ?size@?$_Tree@V?$_Tmap_traits@V?$basic_string@DU?$char_traits@D@std@@V?$allocator@D@2@@std@@V12@U?$less@V?$basic_string@DU?$char_traits@D@std@@V?$allocator@D@2@@std@@@2@V?$allocator@U?$pair@$$CBV?$basic_string@DU?$char_traits@D@std@@V?$allocator@D@2@@std@@V12@@std@@@2@$0A@@std@@@std@@QEBA_KXZ 0000000180040d80 f i PlugInLib:PlugInShell.obj
 0001:0003fd90       ?_Nextnode@?$_List_val@UContextMenuAction@@V?$allocator@UContextMenuAction@@@std@@@std@@SAAEAPEAU_Node@?$_List_nod@UContextMenuAction@@V?$allocator@UContextMenuAction@@@std@@@2@PEAU342@@Z 0000000180040d90 f i PlugInLib:PlugInShell.obj
 0001:0003fda0       ?_Prevnode@?$_List_val@UContextMenuAction@@V?$allocator@UContextMenuAction@@@std@@@std@@SAAEAPEAU_Node@?$_List_nod@UContextMenuAction@@V?$allocator@UContextMenuAction@@@std@@@2@PEAU342@@Z 0000000180040da0 f i PlugInLib:PlugInShell.obj
 0001:0003fdb0       ??0?$_Tree_unchecked_const_iterator@V?$_Tree_val@V?$_Tmap_traits@V?$basic_string@DU?$char_traits@D@std@@V?$allocator@D@2@@std@@V12@U?$less@V?$basic_string@DU?$char_traits@D@std@@V?$allocator@D@2@@std@@@2@V?$allocator@U?$pair@$$CBV?$basic_string@DU?$char_traits@D@std@@V?$allocator@D@2@@std@@V12@@std@@@2@$0A@@std@@@std@@U_Iterator_base0@2@@std@@QEAA@PEAU_Node@?$_Tree_nod@V?$_Tmap_traits@V?$basic_string@DU?$char_traits@D@std@@V?$allocator@D@2@@std@@V12@U?$less@V?$basic_string@DU?$char_traits@D@std@@V?$allocator@D@2@@std@@@2@V?$allocator@U?$pair@$$CBV?$basic_string@DU?$char_traits@D@std@@V?$allocator@D@2@@std@@V12@@std@@@2@$0A@@std@@@1@PEBV?$_Tree_val@V?$_Tmap_traits@V?$basic_string@DU?$char_traits@D@std@@V?$allocator@D@2@@std@@V12@U?$less@V?$basic_string@DU?$char_traits@D@std@@V?$allocator@D@2@@std@@@2@V?$allocator@U?$pair@$$CBV?$basic_string@DU?$char_traits@D@std@@V?$allocator@D@2@@std@@V12@@std@@@2@$0A@@std@@@1@@Z 0000000180040db0 f i PlugInLib:PlugInShell.obj
 0001:0003fdc0       ??0?$_Tmap_traits@V?$basic_string@DU?$char_traits@D@std@@V?$allocator@D@2@@std@@V12@U?$less@V?$basic_string@DU?$char_traits@D@std@@V?$allocator@D@2@@std@@@2@V?$allocator@U?$pair@$$CBV?$basic_string@DU?$char_traits@D@std@@V?$allocator@D@2@@std@@V12@@std@@@2@$0A@@std@@QEAA@U?$less@V?$basic_string@DU?$char_traits@D@std@@V?$allocator@D@2@@std@@@1@@Z 0000000180040dc0 f i PlugInLib:PlugInShell.obj
 0001:0003fdd0       ??$addressof@U?$pair@$$CBV?$basic_string@DU?$char_traits@D@std@@V?$allocator@D@2@@std@@V12@@std@@@std@@YAPEAU?$pair@$$CBV?$basic_string@DU?$char_traits@D@std@@V?$allocator@D@2@@std@@V12@@0@AEAU10@@Z 0000000180040dd0 f i PlugInLib:PlugInShell.obj
 0001:0003fde0       ??$_Kfn@$$CBV?$basic_string@DU?$char_traits@D@std@@V?$allocator@D@2@@std@@V12@@?$_Tmap_traits@V?$basic_string@DU?$char_traits@D@std@@V?$allocator@D@2@@std@@V12@U?$less@V?$basic_string@DU?$char_traits@D@std@@V?$allocator@D@2@@std@@@2@V?$allocator@U?$pair@$$CBV?$basic_string@DU?$char_traits@D@std@@V?$allocator@D@2@@std@@V12@@std@@@2@$0A@@std@@SAAEBV?$basic_string@DU?$char_traits@D@std@@V?$allocator@D@2@@1@AEBU?$pair@$$CBV?$basic_string@DU?$char_traits@D@std@@V?$allocator@D@2@@std@@V12@@1@@Z 0000000180040de0 f i PlugInLib:PlugInShell.obj
 0001:0003fdf0       ??$?0U?$pair@$$CBV?$basic_string@DU?$char_traits@D@std@@V?$allocator@D@2@@std@@V12@@std@@@?$allocator@U_Node@?$_Tree_nod@V?$_Tmap_traits@V?$basic_string@DU?$char_traits@D@std@@V?$allocator@D@2@@std@@V12@U?$less@V?$basic_string@DU?$char_traits@D@std@@V?$allocator@D@2@@std@@@2@V?$allocator@U?$pair@$$CBV?$basic_string@DU?$char_traits@D@std@@V?$allocator@D@2@@std@@V12@@std@@@2@$0A@@std@@@std@@@std@@QEAA@AEBV?$allocator@U?$pair@$$CBV?$basic_string@DU?$char_traits@D@std@@V?$allocator@D@2@@std@@V12@@std@@@1@@Z 0000000180040df0 f i PlugInLib:PlugInShell.obj
 0001:0003fe00       ??$_Allocate@U_Node@?$_Tree_nod@V?$_Tmap_traits@V?$basic_string@DU?$char_traits@D@std@@V?$allocator@D@2@@std@@V12@U?$less@V?$basic_string@DU?$char_traits@D@std@@V?$allocator@D@2@@std@@@2@V?$allocator@U?$pair@$$CBV?$basic_string@DU?$char_traits@D@std@@V?$allocator@D@2@@std@@V12@@std@@@2@$0A@@std@@@std@@@std@@YAPEAU_Node@?$_Tree_nod@V?$_Tmap_traits@V?$basic_string@DU?$char_traits@D@std@@V?$allocator@D@2@@std@@V12@U?$less@V?$basic_string@DU?$char_traits@D@std@@V?$allocator@D@2@@std@@@2@V?$allocator@U?$pair@$$CBV?$basic_string@DU?$char_traits@D@std@@V?$allocator@D@2@@std@@V12@@std@@@2@$0A@@std@@@0@_KPEAU120@@Z 0000000180040e00 f i PlugInLib:PlugInShell.obj
 0001:0003fe70       ??0?$_Tree_unchecked_const_iterator@V?$_Tree_val@V?$_Tmap_traits@V?$basic_string@DU?$char_traits@D@std@@V?$allocator@D@2@@std@@V12@U?$less@V?$basic_string@DU?$char_traits@D@std@@V?$allocator@D@2@@std@@@2@V?$allocator@U?$pair@$$CBV?$basic_string@DU?$char_traits@D@std@@V?$allocator@D@2@@std@@V12@@std@@@2@$0A@@std@@@std@@U_Iterator_base0@2@@std@@QEAA@XZ 0000000180040e70 f i PlugInLib:PlugInShell.obj
 0001:0003fe80       ??F?$_Tree_unchecked_const_iterator@V?$_Tree_val@V?$_Tmap_traits@V?$basic_string@DU?$char_traits@D@std@@V?$allocator@D@2@@std@@V12@U?$less@V?$basic_string@DU?$char_traits@D@std@@V?$allocator@D@2@@std@@@2@V?$allocator@U?$pair@$$CBV?$basic_string@DU?$char_traits@D@std@@V?$allocator@D@2@@std@@V12@@std@@@2@$0A@@std@@@std@@U_Iterator_base0@2@@std@@QEAAAEAV01@XZ 0000000180040e80 f i PlugInLib:PlugInShell.obj
 0001:0003ff00       ?max_size@?$allocator@U?$pair@$$CBV?$basic_string@DU?$char_traits@D@std@@V?$allocator@D@2@@std@@V12@@std@@@std@@QEBA_KXZ 0000000180040f00 f i PlugInLib:PlugInShell.obj
 0001:0003ff10       ??$forward@U?$pair@$$CBV?$basic_string@DU?$char_traits@D@std@@V?$allocator@D@2@@std@@V12@@std@@@std@@YA$$QEAU?$pair@$$CBV?$basic_string@DU?$char_traits@D@std@@V?$allocator@D@2@@std@@V12@@0@AEAU10@@Z 0000000180040f10 f i PlugInLib:PlugInShell.obj
 0001:0003ff20       ??$forward@AEAU?$pair@$$CBV?$basic_string@DU?$char_traits@D@std@@V?$allocator@D@2@@std@@V12@@std@@@std@@YAAEAU?$pair@$$CBV?$basic_string@DU?$char_traits@D@std@@V?$allocator@D@2@@std@@V12@@0@AEAU10@@Z 0000000180040f20 f i PlugInLib:PlugInShell.obj
 0001:0003ff30       ??$move@AEAV?$_Tree_iterator@V?$_Tree_val@V?$_Tmap_traits@V?$basic_string@DU?$char_traits@D@std@@V?$allocator@D@2@@std@@V12@U?$less@V?$basic_string@DU?$char_traits@D@std@@V?$allocator@D@2@@std@@@2@V?$allocator@U?$pair@$$CBV?$basic_string@DU?$char_traits@D@std@@V?$allocator@D@2@@std@@V12@@std@@@2@$0A@@std@@@std@@@std@@@std@@YA$$QEAV?$_Tree_iterator@V?$_Tree_val@V?$_Tmap_traits@V?$basic_string@DU?$char_traits@D@std@@V?$allocator@D@2@@std@@V12@U?$less@V?$basic_string@DU?$char_traits@D@std@@V?$allocator@D@2@@std@@@2@V?$allocator@U?$pair@$$CBV?$basic_string@DU?$char_traits@D@std@@V?$allocator@D@2@@std@@V12@@std@@@2@$0A@@std@@@std@@@0@AEAV10@@Z 0000000180040f30 f i PlugInLib:PlugInShell.obj
 0001:0003ff40       ??$forward@AEAV?$_Tree_iterator@V?$_Tree_val@V?$_Tmap_traits@V?$basic_string@DU?$char_traits@D@std@@V?$allocator@D@2@@std@@V12@U?$less@V?$basic_string@DU?$char_traits@D@std@@V?$allocator@D@2@@std@@@2@V?$allocator@U?$pair@$$CBV?$basic_string@DU?$char_traits@D@std@@V?$allocator@D@2@@std@@V12@@std@@@2@$0A@@std@@@std@@@std@@@std@@YAAEAV?$_Tree_iterator@V?$_Tree_val@V?$_Tmap_traits@V?$basic_string@DU?$char_traits@D@std@@V?$allocator@D@2@@std@@V12@U?$less@V?$basic_string@DU?$char_traits@D@std@@V?$allocator@D@2@@std@@@2@V?$allocator@U?$pair@$$CBV?$basic_string@DU?$char_traits@D@std@@V?$allocator@D@2@@std@@V12@@std@@@2@$0A@@std@@@std@@@0@AEAV10@@Z 0000000180040f40 f i PlugInLib:PlugInShell.obj
 0001:0003ff50       ??$?0AEAV?$_Tree_iterator@V?$_Tree_val@V?$_Tmap_traits@V?$basic_string@DU?$char_traits@D@std@@V?$allocator@D@2@@std@@V12@U?$less@V?$basic_string@DU?$char_traits@D@std@@V?$allocator@D@2@@std@@@2@V?$allocator@U?$pair@$$CBV?$basic_string@DU?$char_traits@D@std@@V?$allocator@D@2@@std@@V12@@std@@@2@$0A@@std@@@std@@@std@@_N@?$_Pair_base@V?$_Tree_iterator@V?$_Tree_val@V?$_Tmap_traits@V?$basic_string@DU?$char_traits@D@std@@V?$allocator@D@2@@std@@V12@U?$less@V?$basic_string@DU?$char_traits@D@std@@V?$allocator@D@2@@std@@@2@V?$allocator@U?$pair@$$CBV?$basic_string@DU?$char_traits@D@std@@V?$allocator@D@2@@std@@V12@@std@@@2@$0A@@std@@@std@@@std@@_N@std@@QEAA@AEAV?$_Tree_iterator@V?$_Tree_val@V?$_Tmap_traits@V?$basic_string@DU?$char_traits@D@std@@V?$allocator@D@2@@std@@V12@U?$less@V?$basic_string@DU?$char_traits@D@std@@V?$allocator@D@2@@std@@@2@V?$allocator@U?$pair@$$CBV?$basic_string@DU?$char_traits@D@std@@V?$allocator@D@2@@std@@V12@@std@@@2@$0A@@std@@@std@@@1@$$QEA_N@Z 0000000180040f50 f i PlugInLib:PlugInShell.obj
 0001:0003ff70       ??$forward@$$CBV?$basic_string@DU?$char_traits@D@std@@V?$allocator@D@2@@std@@@std@@YA$$QEBV?$basic_string@DU?$char_traits@D@std@@V?$allocator@D@2@@0@AEBV10@@Z 0000000180040f70 f i PlugInLib:PlugInShell.obj
 0001:0003ff80       ??$move@AEBV?$basic_string@DU?$char_traits@D@std@@V?$allocator@D@2@@std@@@std@@YA$$QEBV?$basic_string@DU?$char_traits@D@std@@V?$allocator@D@2@@0@AEBV10@@Z 0000000180040f80 f i PlugInLib:PlugInShell.obj
 0001:0003ff90       ?getFactory@FactoryAllocator@@IEBAPEAVObjectFactory@@XZ 0000000180040f90 f i PlugInLib:PlugInShell.obj
 0001:0003ffb0       ??0PlugIn@@QEAA@XZ         0000000180040fb0 f i PlugInLib:PlugInShell.obj
 0001:0003ffc0       ??_EPlugIn@@MEAAPEAXI@Z    0000000180040fc0 f i PlugInLib:PlugInShell.obj
 0001:0003ffc0       ??_GPlugIn@@MEAAPEAXI@Z    0000000180040fc0 f i PlugInLib:PlugInShell.obj
 0001:0003fff0       ??C?$Resource@VSettableSessionItem@@VFactoryObject@@@@QEBAPEBVSettableSessionItem@@XZ 0000000180040ff0 f i PlugInLib:PlugInShell.obj
 0001:00040000       ??C?$Resource@VSettableSessionItem@@VFactoryObject@@@@QEAAPEAVSettableSessionItem@@XZ 0000000180041000 f i PlugInLib:PlugInShell.obj
 0001:00040010       ??9?$_Tree_const_iterator@V?$_Tree_val@V?$_Tmap_traits@V?$basic_string@DU?$char_traits@D@std@@V?$allocator@D@2@@std@@V12@U?$less@V?$basic_string@DU?$char_traits@D@std@@V?$allocator@D@2@@std@@@2@V?$allocator@U?$pair@$$CBV?$basic_string@DU?$char_traits@D@std@@V?$allocator@D@2@@std@@V12@@std@@@2@$0A@@std@@@std@@@std@@QEBA_NAEBV01@@Z 0000000180041010 f i PlugInLib:PlugInShell.obj
 0001:00040020       ?_Lmost@?$_Tree@V?$_Tmap_traits@V?$basic_string@DU?$char_traits@D@std@@V?$allocator@D@2@@std@@V12@U?$less@V?$basic_string@DU?$char_traits@D@std@@V?$allocator@D@2@@std@@@2@V?$allocator@U?$pair@$$CBV?$basic_string@DU?$char_traits@D@std@@V?$allocator@D@2@@std@@V12@@std@@@2@$0A@@std@@@std@@IEBAAEAPEAU_Node@?$_Tree_nod@V?$_Tmap_traits@V?$basic_string@DU?$char_traits@D@std@@V?$allocator@D@2@@std@@V12@U?$less@V?$basic_string@DU?$char_traits@D@std@@V?$allocator@D@2@@std@@@2@V?$allocator@U?$pair@$$CBV?$basic_string@DU?$char_traits@D@std@@V?$allocator@D@2@@std@@V12@@std@@@2@$0A@@std@@@2@XZ 0000000180041020 f i PlugInLib:PlugInShell.obj
 0001:00040030       ?_Rmost@?$_Tree@V?$_Tmap_traits@V?$basic_string@DU?$char_traits@D@std@@V?$allocator@D@2@@std@@V12@U?$less@V?$basic_string@DU?$char_traits@D@std@@V?$allocator@D@2@@std@@@2@V?$allocator@U?$pair@$$CBV?$basic_string@DU?$char_traits@D@std@@V?$allocator@D@2@@std@@V12@@std@@@2@$0A@@std@@@std@@IEBAAEAPEAU_Node@?$_Tree_nod@V?$_Tmap_traits@V?$basic_string@DU?$char_traits@D@std@@V?$allocator@D@2@@std@@V12@U?$less@V?$basic_string@DU?$char_traits@D@std@@V?$allocator@D@2@@std@@@2@V?$allocator@U?$pair@$$CBV?$basic_string@DU?$char_traits@D@std@@V?$allocator@D@2@@std@@V12@@std@@@2@$0A@@std@@@2@XZ 0000000180041030 f i PlugInLib:PlugInShell.obj
 0001:00040040       ?_Root@?$_Tree@V?$_Tmap_traits@V?$basic_string@DU?$char_traits@D@std@@V?$allocator@D@2@@std@@V12@U?$less@V?$basic_string@DU?$char_traits@D@std@@V?$allocator@D@2@@std@@@2@V?$allocator@U?$pair@$$CBV?$basic_string@DU?$char_traits@D@std@@V?$allocator@D@2@@std@@V12@@std@@@2@$0A@@std@@@std@@IEBAAEAPEAU_Node@?$_Tree_nod@V?$_Tmap_traits@V?$basic_string@DU?$char_traits@D@std@@V?$allocator@D@2@@std@@V12@U?$less@V?$basic_string@DU?$char_traits@D@std@@V?$allocator@D@2@@std@@@2@V?$allocator@U?$pair@$$CBV?$basic_string@DU?$char_traits@D@std@@V?$allocator@D@2@@std@@V12@@std@@@2@$0A@@std@@@2@XZ 0000000180041040 f i PlugInLib:PlugInShell.obj
 0001:00040050       ?_Rrotate@?$_Tree@V?$_Tmap_traits@V?$basic_string@DU?$char_traits@D@std@@V?$allocator@D@2@@std@@V12@U?$less@V?$basic_string@DU?$char_traits@D@std@@V?$allocator@D@2@@std@@@2@V?$allocator@U?$pair@$$CBV?$basic_string@DU?$char_traits@D@std@@V?$allocator@D@2@@std@@V12@@std@@@2@$0A@@std@@@std@@IEAAXPEAU_Node@?$_Tree_nod@V?$_Tmap_traits@V?$basic_string@DU?$char_traits@D@std@@V?$allocator@D@2@@std@@V12@U?$less@V?$basic_string@DU?$char_traits@D@std@@V?$allocator@D@2@@std@@@2@V?$allocator@U?$pair@$$CBV?$basic_string@DU?$char_traits@D@std@@V?$allocator@D@2@@std@@V12@@std@@@2@$0A@@std@@@2@@Z 0000000180041050 f i PlugInLib:PlugInShell.obj
 0001:000400b0       ??1?$_Tree_val@V?$_Tmap_traits@V?$basic_string@DU?$char_traits@D@std@@V?$allocator@D@2@@std@@V12@U?$less@V?$basic_string@DU?$char_traits@D@std@@V?$allocator@D@2@@std@@@2@V?$allocator@U?$pair@$$CBV?$basic_string@DU?$char_traits@D@std@@V?$allocator@D@2@@std@@V12@@std@@@2@$0A@@std@@@std@@QEAA@XZ 00000001800410b0 f i PlugInLib:PlugInShell.obj
 0001:000400c0       ?_Key@?$_Tree_val@V?$_Tmap_traits@V?$basic_string@DU?$char_traits@D@std@@V?$allocator@D@2@@std@@V12@U?$less@V?$basic_string@DU?$char_traits@D@std@@V?$allocator@D@2@@std@@@2@V?$allocator@U?$pair@$$CBV?$basic_string@DU?$char_traits@D@std@@V?$allocator@D@2@@std@@V12@@std@@@2@$0A@@std@@@std@@SAAEAV?$basic_string@DU?$char_traits@D@std@@V?$allocator@D@2@@2@PEAU_Node@?$_Tree_nod@V?$_Tmap_traits@V?$basic_string@DU?$char_traits@D@std@@V?$allocator@D@2@@std@@V12@U?$less@V?$basic_string@DU?$char_traits@D@std@@V?$allocator@D@2@@std@@@2@V?$allocator@U?$pair@$$CBV?$basic_string@DU?$char_traits@D@std@@V?$allocator@D@2@@std@@V12@@std@@@2@$0A@@std@@@2@@Z 00000001800410c0 f i PlugInLib:PlugInShell.obj
 0001:000400d0       ??1?$_List_val@UContextMenuAction@@V?$allocator@UContextMenuAction@@@std@@@std@@QEAA@XZ 00000001800410d0 f i PlugInLib:PlugInShell.obj
 0001:000400e0       ??D?$_Tree_iterator@V?$_Tree_val@V?$_Tmap_traits@V?$basic_string@DU?$char_traits@D@std@@V?$allocator@D@2@@std@@V12@U?$less@V?$basic_string@DU?$char_traits@D@std@@V?$allocator@D@2@@std@@@2@V?$allocator@U?$pair@$$CBV?$basic_string@DU?$char_traits@D@std@@V?$allocator@D@2@@std@@V12@@std@@@2@$0A@@std@@@std@@@std@@QEBAAEAU?$pair@$$CBV?$basic_string@DU?$char_traits@D@std@@V?$allocator@D@2@@std@@V12@@1@XZ 00000001800410e0 f i PlugInLib:PlugInShell.obj
 0001:000400f0       ??E?$_Tree_const_iterator@V?$_Tree_val@V?$_Tmap_traits@V?$basic_string@DU?$char_traits@D@std@@V?$allocator@D@2@@std@@V12@U?$less@V?$basic_string@DU?$char_traits@D@std@@V?$allocator@D@2@@std@@@2@V?$allocator@U?$pair@$$CBV?$basic_string@DU?$char_traits@D@std@@V?$allocator@D@2@@std@@V12@@std@@@2@$0A@@std@@@std@@@std@@QEAAAEAV01@XZ 00000001800410f0 f i PlugInLib:PlugInShell.obj
 0001:00040150       ??0?$_Tree_const_iterator@V?$_Tree_val@V?$_Tmap_traits@V?$basic_string@DU?$char_traits@D@std@@V?$allocator@D@2@@std@@V12@U?$less@V?$basic_string@DU?$char_traits@D@std@@V?$allocator@D@2@@std@@@2@V?$allocator@U?$pair@$$CBV?$basic_string@DU?$char_traits@D@std@@V?$allocator@D@2@@std@@V12@@std@@@2@$0A@@std@@@std@@@std@@QEAA@PEAU_Node@?$_Tree_nod@V?$_Tmap_traits@V?$basic_string@DU?$char_traits@D@std@@V?$allocator@D@2@@std@@V12@U?$less@V?$basic_string@DU?$char_traits@D@std@@V?$allocator@D@2@@std@@@2@V?$allocator@U?$pair@$$CBV?$basic_string@DU?$char_traits@D@std@@V?$allocator@D@2@@std@@V12@@std@@@2@$0A@@std@@@1@PEBV?$_Tree_val@V?$_Tmap_traits@V?$basic_string@DU?$char_traits@D@std@@V?$allocator@D@2@@std@@V12@U?$less@V?$basic_string@DU?$char_traits@D@std@@V?$allocator@D@2@@std@@@2@V?$allocator@U?$pair@$$CBV?$basic_string@DU?$char_traits@D@std@@V?$allocator@D@2@@std@@V12@@std@@@2@$0A@@std@@@1@@Z 0000000180041150 f i PlugInLib:PlugInShell.obj
 0001:00040160       ??0?$_Tree_nod@V?$_Tmap_traits@V?$basic_string@DU?$char_traits@D@std@@V?$allocator@D@2@@std@@V12@U?$less@V?$basic_string@DU?$char_traits@D@std@@V?$allocator@D@2@@std@@@2@V?$allocator@U?$pair@$$CBV?$basic_string@DU?$char_traits@D@std@@V?$allocator@D@2@@std@@V12@@std@@@2@$0A@@std@@@std@@QEAA@AEBU?$less@V?$basic_string@DU?$char_traits@D@std@@V?$allocator@D@2@@std@@@1@V?$allocator@U?$pair@$$CBV?$basic_string@DU?$char_traits@D@std@@V?$allocator@D@2@@std@@V12@@std@@@1@@Z 0000000180041160 f i PlugInLib:PlugInShell.obj
 0001:00040170       ?allocate@?$allocator@U_Node@?$_Tree_nod@V?$_Tmap_traits@V?$basic_string@DU?$char_traits@D@std@@V?$allocator@D@2@@std@@V12@U?$less@V?$basic_string@DU?$char_traits@D@std@@V?$allocator@D@2@@std@@@2@V?$allocator@U?$pair@$$CBV?$basic_string@DU?$char_traits@D@std@@V?$allocator@D@2@@std@@V12@@std@@@2@$0A@@std@@@std@@@std@@QEAAPEAU_Node@?$_Tree_nod@V?$_Tmap_traits@V?$basic_string@DU?$char_traits@D@std@@V?$allocator@D@2@@std@@V12@U?$less@V?$basic_string@DU?$char_traits@D@std@@V?$allocator@D@2@@std@@@2@V?$allocator@U?$pair@$$CBV?$basic_string@DU?$char_traits@D@std@@V?$allocator@D@2@@std@@V12@@std@@@2@$0A@@std@@@2@_K@Z 0000000180041170 f i PlugInLib:PlugInShell.obj
 0001:000401e0       ??E?$_Tree_const_iterator@V?$_Tree_val@V?$_Tmap_traits@V?$basic_string@DU?$char_traits@D@std@@V?$allocator@D@2@@std@@V12@U?$less@V?$basic_string@DU?$char_traits@D@std@@V?$allocator@D@2@@std@@@2@V?$allocator@U?$pair@$$CBV?$basic_string@DU?$char_traits@D@std@@V?$allocator@D@2@@std@@V12@@std@@@2@$0A@@std@@@std@@@std@@QEAA?AV01@H@Z 00000001800411e0 f i PlugInLib:PlugInShell.obj
 0001:00040240       ?_Buynode@?$_Tree_val@V?$_Tmap_traits@V?$basic_string@DU?$char_traits@D@std@@V?$allocator@D@2@@std@@V12@U?$less@V?$basic_string@DU?$char_traits@D@std@@V?$allocator@D@2@@std@@@2@V?$allocator@U?$pair@$$CBV?$basic_string@DU?$char_traits@D@std@@V?$allocator@D@2@@std@@V12@@std@@@2@$0A@@std@@@std@@QEAAPEAU_Node@?$_Tree_nod@V?$_Tmap_traits@V?$basic_string@DU?$char_traits@D@std@@V?$allocator@D@2@@std@@V12@U?$less@V?$basic_string@DU?$char_traits@D@std@@V?$allocator@D@2@@std@@@2@V?$allocator@U?$pair@$$CBV?$basic_string@DU?$char_traits@D@std@@V?$allocator@D@2@@std@@V12@@std@@@2@$0A@@std@@@2@XZ 0000000180041240 f i PlugInLib:PlugInShell.obj
 0001:000402c0       ??0?$_Tree_const_iterator@V?$_Tree_val@V?$_Tmap_traits@V?$basic_string@DU?$char_traits@D@std@@V?$allocator@D@2@@std@@V12@U?$less@V?$basic_string@DU?$char_traits@D@std@@V?$allocator@D@2@@std@@@2@V?$allocator@U?$pair@$$CBV?$basic_string@DU?$char_traits@D@std@@V?$allocator@D@2@@std@@V12@@std@@@2@$0A@@std@@@std@@@std@@QEAA@XZ 00000001800412c0 f i PlugInLib:PlugInShell.obj
 0001:000402d0       ??F?$_Tree_const_iterator@V?$_Tree_val@V?$_Tmap_traits@V?$basic_string@DU?$char_traits@D@std@@V?$allocator@D@2@@std@@V12@U?$less@V?$basic_string@DU?$char_traits@D@std@@V?$allocator@D@2@@std@@@2@V?$allocator@U?$pair@$$CBV?$basic_string@DU?$char_traits@D@std@@V?$allocator@D@2@@std@@V12@@std@@@2@$0A@@std@@@std@@@std@@QEAAAEAV01@XZ 00000001800412d0 f i PlugInLib:PlugInShell.obj
 0001:000402f0       ?max_size@?$_Tree@V?$_Tmap_traits@V?$basic_string@DU?$char_traits@D@std@@V?$allocator@D@2@@std@@V12@U?$less@V?$basic_string@DU?$char_traits@D@std@@V?$allocator@D@2@@std@@@2@V?$allocator@U?$pair@$$CBV?$basic_string@DU?$char_traits@D@std@@V?$allocator@D@2@@std@@V12@@std@@@2@$0A@@std@@@std@@QEBA_KXZ 00000001800412f0 f i PlugInLib:PlugInShell.obj
 0001:00040300       ??F?$_Tree_iterator@V?$_Tree_val@V?$_Tmap_traits@V?$basic_string@DU?$char_traits@D@std@@V?$allocator@D@2@@std@@V12@U?$less@V?$basic_string@DU?$char_traits@D@std@@V?$allocator@D@2@@std@@@2@V?$allocator@U?$pair@$$CBV?$basic_string@DU?$char_traits@D@std@@V?$allocator@D@2@@std@@V12@@std@@@2@$0A@@std@@@std@@@std@@QEAAAEAV01@XZ 0000000180041300 f i PlugInLib:PlugInShell.obj
 0001:00040320       ??0?$_Pair_base@V?$_Tree_iterator@V?$_Tree_val@V?$_Tmap_traits@V?$basic_string@DU?$char_traits@D@std@@V?$allocator@D@2@@std@@V12@U?$less@V?$basic_string@DU?$char_traits@D@std@@V?$allocator@D@2@@std@@@2@V?$allocator@U?$pair@$$CBV?$basic_string@DU?$char_traits@D@std@@V?$allocator@D@2@@std@@V12@@std@@@2@$0A@@std@@@std@@@std@@_N@std@@QEAA@$$QEAV?$_Tree_iterator@V?$_Tree_val@V?$_Tmap_traits@V?$basic_string@DU?$char_traits@D@std@@V?$allocator@D@2@@std@@V12@U?$less@V?$basic_string@DU?$char_traits@D@std@@V?$allocator@D@2@@std@@@2@V?$allocator@U?$pair@$$CBV?$basic_string@DU?$char_traits@D@std@@V?$allocator@D@2@@std@@V12@@std@@@2@$0A@@std@@@std@@@1@$$QEA_N@Z 0000000180041320 f i PlugInLib:PlugInShell.obj
 0001:00040340       ??$?0AEAV?$_Tree_iterator@V?$_Tree_val@V?$_Tmap_traits@V?$basic_string@DU?$char_traits@D@std@@V?$allocator@D@2@@std@@V12@U?$less@V?$basic_string@DU?$char_traits@D@std@@V?$allocator@D@2@@std@@@2@V?$allocator@U?$pair@$$CBV?$basic_string@DU?$char_traits@D@std@@V?$allocator@D@2@@std@@V12@@std@@@2@$0A@@std@@@std@@@std@@_N@?$pair@V?$_Tree_iterator@V?$_Tree_val@V?$_Tmap_traits@V?$basic_string@DU?$char_traits@D@std@@V?$allocator@D@2@@std@@V12@U?$less@V?$basic_string@DU?$char_traits@D@std@@V?$allocator@D@2@@std@@@2@V?$allocator@U?$pair@$$CBV?$basic_string@DU?$char_traits@D@std@@V?$allocator@D@2@@std@@V12@@std@@@2@$0A@@std@@@std@@@std@@_N@std@@QEAA@AEAV?$_Tree_iterator@V?$_Tree_val@V?$_Tmap_traits@V?$basic_string@DU?$char_traits@D@std@@V?$allocator@D@2@@std@@V12@U?$less@V?$basic_string@DU?$char_traits@D@std@@V?$allocator@D@2@@std@@@2@V?$allocator@U?$pair@$$CBV?$basic_string@DU?$char_traits@D@std@@V?$allocator@D@2@@std@@V12@@std@@@2@$0A@@std@@@std@@@1@$$QEA_N@Z 0000000180041340 f i PlugInLib:PlugInShell.obj
 0001:00040360       ?getId@PlugInShell@@UEBAAEBV?$basic_string@DU?$char_traits@D@std@@V?$allocator@D@2@@std@@XZ 0000000180041360 f   PlugInLib:PlugInShell.obj
 0001:00040370       ?getIcon@PlugInShell@@UEBAAEBVQIcon@@XZ 0000000180041370 f   PlugInLib:PlugInShell.obj
 0001:00040380       ?getName@PlugInShell@@UEBAAEBV?$basic_string@DU?$char_traits@D@std@@V?$allocator@D@2@@std@@XZ 0000000180041380 f   PlugInLib:PlugInShell.obj
 0001:00040390       ?getDisplayName@PlugInShell@@UEBAAEBV?$basic_string@DU?$char_traits@D@std@@V?$allocator@D@2@@std@@_N@Z 0000000180041390 f   PlugInLib:PlugInShell.obj
 0001:000403a0       ?getDisplayText@PlugInShell@@UEBAAEBV?$basic_string@DU?$char_traits@D@std@@V?$allocator@D@2@@std@@XZ 00000001800413a0 f   PlugInLib:PlugInShell.obj
 0001:000403b0       ?hasFilenameDisplay@PlugInShell@@UEBA_NXZ 00000001800413b0 f   PlugInLib:PlugInShell.obj
 0001:000403c0       ?setId@PlugInShell@@UEAA_NAEBVSessionItemId@@@Z 00000001800413c0 f   PlugInLib:PlugInShell.obj
 0001:000403d0       ?setName@PlugInShell@@IEAAXAEBV?$basic_string@DU?$char_traits@D@std@@V?$allocator@D@2@@std@@@Z 00000001800413d0 f   PlugInLib:PlugInShell.obj
 0001:000403e0       ?setDisplayName@PlugInShell@@IEAAXAEBV?$basic_string@DU?$char_traits@D@std@@V?$allocator@D@2@@std@@@Z 00000001800413e0 f   PlugInLib:PlugInShell.obj
 0001:000403f0       ?setDisplayText@PlugInShell@@IEAAXAEBV?$basic_string@DU?$char_traits@D@std@@V?$allocator@D@2@@std@@@Z 00000001800413f0 f   PlugInLib:PlugInShell.obj
 0001:00040400       ?addContextMenuAction@PlugInShell@@IEAAXAEBUContextMenuAction@@@Z 0000000180041400 f   PlugInLib:PlugInShell.obj
 0001:00040410       ?setContextMenuActions@PlugInShell@@IEAAXAEBV?$list@UContextMenuAction@@V?$allocator@UContextMenuAction@@@std@@@std@@@Z 0000000180041410 f   PlugInLib:PlugInShell.obj
 0001:00040420       ?setFilenameDisplay@PlugInShell@@IEAAX_N@Z 0000000180041420 f   PlugInLib:PlugInShell.obj
 0001:00040430       ?addPropertiesPage@PlugInShell@@IEAAXAEBV?$basic_string@DU?$char_traits@D@std@@V?$allocator@D@2@@std@@@Z 0000000180041430 f   PlugInLib:PlugInShell.obj
 0001:00040440       ?removePropertiesPage@PlugInShell@@IEAAXAEBV?$basic_string@DU?$char_traits@D@std@@V?$allocator@D@2@@std@@@Z 0000000180041440 f   PlugInLib:PlugInShell.obj
 0001:00040450       ?setPropertiesPages@PlugInShell@@IEAAXAEBV?$vector@V?$basic_string@DU?$char_traits@D@std@@V?$allocator@D@2@@std@@V?$allocator@V?$basic_string@DU?$char_traits@D@std@@V?$allocator@D@2@@std@@@2@@std@@@Z 0000000180041450 f   PlugInLib:PlugInShell.obj
 0001:00040460       ?isValidSessionSaveItem@PlugInShell@@UEBA_NXZ 0000000180041460 f   PlugInLib:PlugInShell.obj
 0001:00040470       ?setValidSessionSaveItem@PlugInShell@@IEAAX_N@Z 0000000180041470 f   PlugInLib:PlugInShell.obj
 0001:00040480       ?_Lrotate@?$_Tree@V?$_Tmap_traits@V?$basic_string@DU?$char_traits@D@std@@V?$allocator@D@2@@std@@V12@U?$less@V?$basic_string@DU?$char_traits@D@std@@V?$allocator@D@2@@std@@@2@V?$allocator@U?$pair@$$CBV?$basic_string@DU?$char_traits@D@std@@V?$allocator@D@2@@std@@V12@@std@@@2@$0A@@std@@@std@@IEAAXPEAU_Node@?$_Tree_nod@V?$_Tmap_traits@V?$basic_string@DU?$char_traits@D@std@@V?$allocator@D@2@@std@@V12@U?$less@V?$basic_string@DU?$char_traits@D@std@@V?$allocator@D@2@@std@@@2@V?$allocator@U?$pair@$$CBV?$basic_string@DU?$char_traits@D@std@@V?$allocator@D@2@@std@@V12@@std@@@2@$0A@@std@@@2@@Z 0000000180041480 f i PlugInLib:PlugInShell.obj
 0001:000404e0       ??0?$_Tree_iterator@V?$_Tree_val@V?$_Tmap_traits@V?$basic_string@DU?$char_traits@D@std@@V?$allocator@D@2@@std@@V12@U?$less@V?$basic_string@DU?$char_traits@D@std@@V?$allocator@D@2@@std@@@2@V?$allocator@U?$pair@$$CBV?$basic_string@DU?$char_traits@D@std@@V?$allocator@D@2@@std@@V12@@std@@@2@$0A@@std@@@std@@@std@@QEAA@PEAU_Node@?$_Tree_nod@V?$_Tmap_traits@V?$basic_string@DU?$char_traits@D@std@@V?$allocator@D@2@@std@@V12@U?$less@V?$basic_string@DU?$char_traits@D@std@@V?$allocator@D@2@@std@@@2@V?$allocator@U?$pair@$$CBV?$basic_string@DU?$char_traits@D@std@@V?$allocator@D@2@@std@@V12@@std@@@2@$0A@@std@@@1@PEBV?$_Tree_val@V?$_Tmap_traits@V?$basic_string@DU?$char_traits@D@std@@V?$allocator@D@2@@std@@V12@U?$less@V?$basic_string@DU?$char_traits@D@std@@V?$allocator@D@2@@std@@@2@V?$allocator@U?$pair@$$CBV?$basic_string@DU?$char_traits@D@std@@V?$allocator@D@2@@std@@V12@@std@@@2@$0A@@std@@@1@@Z 00000001800414e0 f i PlugInLib:PlugInShell.obj
 0001:000404f0       ?begin@?$_Tree@V?$_Tmap_traits@V?$basic_string@DU?$char_traits@D@std@@V?$allocator@D@2@@std@@V12@U?$less@V?$basic_string@DU?$char_traits@D@std@@V?$allocator@D@2@@std@@@2@V?$allocator@U?$pair@$$CBV?$basic_string@DU?$char_traits@D@std@@V?$allocator@D@2@@std@@V12@@std@@@2@$0A@@std@@@std@@QEAA?AV?$_Tree_iterator@V?$_Tree_val@V?$_Tmap_traits@V?$basic_string@DU?$char_traits@D@std@@V?$allocator@D@2@@std@@V12@U?$less@V?$basic_string@DU?$char_traits@D@std@@V?$allocator@D@2@@std@@@2@V?$allocator@U?$pair@$$CBV?$basic_string@DU?$char_traits@D@std@@V?$allocator@D@2@@std@@V12@@std@@@2@$0A@@std@@@std@@@2@XZ 00000001800414f0 f i PlugInLib:PlugInShell.obj
 0001:00040500       ??0?$_Tree_val@V?$_Tmap_traits@V?$basic_string@DU?$char_traits@D@std@@V?$allocator@D@2@@std@@V12@U?$less@V?$basic_string@DU?$char_traits@D@std@@V?$allocator@D@2@@std@@@2@V?$allocator@U?$pair@$$CBV?$basic_string@DU?$char_traits@D@std@@V?$allocator@D@2@@std@@V12@@std@@@2@$0A@@std@@@std@@QEAA@AEBU?$less@V?$basic_string@DU?$char_traits@D@std@@V?$allocator@D@2@@std@@@1@V?$allocator@U?$pair@$$CBV?$basic_string@DU?$char_traits@D@std@@V?$allocator@D@2@@std@@V12@@std@@@1@@Z 0000000180041500 f i PlugInLib:PlugInShell.obj
 0001:00040590       ??0?$pair@V?$_Tree_iterator@V?$_Tree_val@V?$_Tmap_traits@V?$basic_string@DU?$char_traits@D@std@@V?$allocator@D@2@@std@@V12@U?$less@V?$basic_string@DU?$char_traits@D@std@@V?$allocator@D@2@@std@@@2@V?$allocator@U?$pair@$$CBV?$basic_string@DU?$char_traits@D@std@@V?$allocator@D@2@@std@@V12@@std@@@2@$0A@@std@@@std@@@std@@_N@std@@QEAA@$$QEAV?$_Tree_iterator@V?$_Tree_val@V?$_Tmap_traits@V?$basic_string@DU?$char_traits@D@std@@V?$allocator@D@2@@std@@V12@U?$less@V?$basic_string@DU?$char_traits@D@std@@V?$allocator@D@2@@std@@@2@V?$allocator@U?$pair@$$CBV?$basic_string@DU?$char_traits@D@std@@V?$allocator@D@2@@std@@V12@@std@@@2@$0A@@std@@@std@@@1@$$QEA_N@Z 0000000180041590 f i PlugInLib:PlugInShell.obj
 0001:000405b0       ?end@?$_Tree@V?$_Tmap_traits@V?$basic_string@DU?$char_traits@D@std@@V?$allocator@D@2@@std@@V12@U?$less@V?$basic_string@DU?$char_traits@D@std@@V?$allocator@D@2@@std@@@2@V?$allocator@U?$pair@$$CBV?$basic_string@DU?$char_traits@D@std@@V?$allocator@D@2@@std@@V12@@std@@@2@$0A@@std@@@std@@QEAA?AV?$_Tree_iterator@V?$_Tree_val@V?$_Tmap_traits@V?$basic_string@DU?$char_traits@D@std@@V?$allocator@D@2@@std@@V12@U?$less@V?$basic_string@DU?$char_traits@D@std@@V?$allocator@D@2@@std@@@2@V?$allocator@U?$pair@$$CBV?$basic_string@DU?$char_traits@D@std@@V?$allocator@D@2@@std@@V12@@std@@@2@$0A@@std@@@std@@@2@XZ 00000001800415b0 f i PlugInLib:PlugInShell.obj
 0001:000405c0       ??1Args@FactoryAllocator@@QEAA@XZ 00000001800415c0 f i PlugInLib:PlugInShell.obj
 0001:00040600       ??1?$_Pair_base@$$CBV?$basic_string@DU?$char_traits@D@std@@V?$allocator@D@2@@std@@V12@@std@@QEAA@XZ 0000000180041600 f i PlugInLib:PlugInShell.obj
 0001:00040660       ??0?$_Tree@V?$_Tmap_traits@V?$basic_string@DU?$char_traits@D@std@@V?$allocator@D@2@@std@@V12@U?$less@V?$basic_string@DU?$char_traits@D@std@@V?$allocator@D@2@@std@@@2@V?$allocator@U?$pair@$$CBV?$basic_string@DU?$char_traits@D@std@@V?$allocator@D@2@@std@@V12@@std@@@2@$0A@@std@@@std@@QEAA@AEBU?$less@V?$basic_string@DU?$char_traits@D@std@@V?$allocator@D@2@@std@@@1@AEBV?$allocator@U?$pair@$$CBV?$basic_string@DU?$char_traits@D@std@@V?$allocator@D@2@@std@@V12@@std@@@1@@Z 0000000180041660 f i PlugInLib:PlugInShell.obj
 0001:000406f0       ??R?$less@V?$basic_string@DU?$char_traits@D@std@@V?$allocator@D@2@@std@@@std@@QEBA_NAEBV?$basic_string@DU?$char_traits@D@std@@V?$allocator@D@2@@1@0@Z 00000001800416f0 f i PlugInLib:PlugInShell.obj
 0001:00040710       ?_Lbound@?$_Tree@V?$_Tmap_traits@V?$basic_string@DU?$char_traits@D@std@@V?$allocator@D@2@@std@@V12@U?$less@V?$basic_string@DU?$char_traits@D@std@@V?$allocator@D@2@@std@@@2@V?$allocator@U?$pair@$$CBV?$basic_string@DU?$char_traits@D@std@@V?$allocator@D@2@@std@@V12@@std@@@2@$0A@@std@@@std@@IEAAPEAU_Node@?$_Tree_nod@V?$_Tmap_traits@V?$basic_string@DU?$char_traits@D@std@@V?$allocator@D@2@@std@@V12@U?$less@V?$basic_string@DU?$char_traits@D@std@@V?$allocator@D@2@@std@@@2@V?$allocator@U?$pair@$$CBV?$basic_string@DU?$char_traits@D@std@@V?$allocator@D@2@@std@@V12@@std@@@2@$0A@@std@@@2@AEBV?$basic_string@DU?$char_traits@D@std@@V?$allocator@D@2@@2@@Z 0000000180041710 f i PlugInLib:PlugInShell.obj
 0001:000407c0       ??1ContextMenuAction@@QEAA@XZ 00000001800417c0 f i PlugInLib:PlugInShell.obj
 0001:00040820       ??1?$pair@$$CBV?$basic_string@DU?$char_traits@D@std@@V?$allocator@D@2@@std@@V12@@std@@QEAA@XZ 0000000180041820 f i PlugInLib:PlugInShell.obj
 0001:00040880       ?lower_bound@?$_Tree@V?$_Tmap_traits@V?$basic_string@DU?$char_traits@D@std@@V?$allocator@D@2@@std@@V12@U?$less@V?$basic_string@DU?$char_traits@D@std@@V?$allocator@D@2@@std@@@2@V?$allocator@U?$pair@$$CBV?$basic_string@DU?$char_traits@D@std@@V?$allocator@D@2@@std@@V12@@std@@@2@$0A@@std@@@std@@QEAA?AV?$_Tree_iterator@V?$_Tree_val@V?$_Tmap_traits@V?$basic_string@DU?$char_traits@D@std@@V?$allocator@D@2@@std@@V12@U?$less@V?$basic_string@DU?$char_traits@D@std@@V?$allocator@D@2@@std@@@2@V?$allocator@U?$pair@$$CBV?$basic_string@DU?$char_traits@D@std@@V?$allocator@D@2@@std@@V12@@std@@@2@$0A@@std@@@std@@@2@AEBV?$basic_string@DU?$char_traits@D@std@@V?$allocator@D@2@@2@@Z 0000000180041880 f i PlugInLib:PlugInShell.obj
 0001:000408a0       ??_G?$pair@$$CBV?$basic_string@DU?$char_traits@D@std@@V?$allocator@D@2@@std@@V12@@std@@QEAAPEAXI@Z 00000001800418a0 f i PlugInLib:PlugInShell.obj
 0001:00040920       ??1_Node@?$_List_nod@UContextMenuAction@@V?$allocator@UContextMenuAction@@@std@@@std@@QEAA@XZ 0000000180041920 f i PlugInLib:PlugInShell.obj
 0001:00040980       ?find@?$_Tree@V?$_Tmap_traits@V?$basic_string@DU?$char_traits@D@std@@V?$allocator@D@2@@std@@V12@U?$less@V?$basic_string@DU?$char_traits@D@std@@V?$allocator@D@2@@std@@@2@V?$allocator@U?$pair@$$CBV?$basic_string@DU?$char_traits@D@std@@V?$allocator@D@2@@std@@V12@@std@@@2@$0A@@std@@@std@@QEAA?AV?$_Tree_iterator@V?$_Tree_val@V?$_Tmap_traits@V?$basic_string@DU?$char_traits@D@std@@V?$allocator@D@2@@std@@V12@U?$less@V?$basic_string@DU?$char_traits@D@std@@V?$allocator@D@2@@std@@@2@V?$allocator@U?$pair@$$CBV?$basic_string@DU?$char_traits@D@std@@V?$allocator@D@2@@std@@V12@@std@@@2@$0A@@std@@@std@@@2@AEBV?$basic_string@DU?$char_traits@D@std@@V?$allocator@D@2@@2@@Z 0000000180041980 f i PlugInLib:PlugInShell.obj
 0001:000409f0       ??0Args@FactoryAllocator@@QEAA@AEBV01@@Z 00000001800419f0 f i PlugInLib:PlugInShell.obj
 0001:00040a30       ??$_Destroy@U?$pair@$$CBV?$basic_string@DU?$char_traits@D@std@@V?$allocator@D@2@@std@@V12@@std@@@std@@YAXPEAU?$pair@$$CBV?$basic_string@DU?$char_traits@D@std@@V?$allocator@D@2@@std@@V12@@0@@Z 0000000180041a30 f i PlugInLib:PlugInShell.obj
 0001:00040a90       ??_G_Node@?$_List_nod@UContextMenuAction@@V?$allocator@UContextMenuAction@@@std@@@std@@QEAAPEAXI@Z 0000000180041a90 f i PlugInLib:PlugInShell.obj
 0001:00040b10       ??$?0AEBV?$basic_string@DU?$char_traits@D@std@@V?$allocator@D@2@@std@@AEAV01@@?$_Pair_base@$$CBV?$basic_string@DU?$char_traits@D@std@@V?$allocator@D@2@@std@@V12@@std@@QEAA@AEBV?$basic_string@DU?$char_traits@D@std@@V?$allocator@D@2@@1@AEAV21@@Z 0000000180041b10 f i PlugInLib:PlugInShell.obj
 0001:00040b90       ?getVersion@PlugInShell@@UEBA?AV?$basic_string@DU?$char_traits@D@std@@V?$allocator@D@2@@std@@XZ 0000000180041b90 f   PlugInLib:PlugInShell.obj
 0001:00040bd0       ?getCreator@PlugInShell@@UEBA?AV?$basic_string@DU?$char_traits@D@std@@V?$allocator@D@2@@std@@XZ 0000000180041bd0 f   PlugInLib:PlugInShell.obj
 0001:00040c10       ?getCopyright@PlugInShell@@UEBA?AV?$basic_string@DU?$char_traits@D@std@@V?$allocator@D@2@@std@@XZ 0000000180041c10 f   PlugInLib:PlugInShell.obj
 0001:00040c50       ?getDescription@PlugInShell@@UEBA?AV?$basic_string@DU?$char_traits@D@std@@V?$allocator@D@2@@std@@XZ 0000000180041c50 f   PlugInLib:PlugInShell.obj
 0001:00040c90       ?getShortDescription@PlugInShell@@UEBA?AV?$basic_string@DU?$char_traits@D@std@@V?$allocator@D@2@@std@@XZ 0000000180041c90 f   PlugInLib:PlugInShell.obj
 0001:00040cd0       ?getDescriptorId@PlugInShell@@UEBA?AV?$basic_string@DU?$char_traits@D@std@@V?$allocator@D@2@@std@@XZ 0000000180041cd0 f   PlugInLib:PlugInShell.obj
 0001:00040d10       ?getType@PlugInShell@@UEBA?AV?$basic_string@DU?$char_traits@D@std@@V?$allocator@D@2@@std@@XZ 0000000180041d10 f   PlugInLib:PlugInShell.obj
 0001:00040d50       ?getSubtype@PlugInShell@@UEBA?AV?$basic_string@DU?$char_traits@D@std@@V?$allocator@D@2@@std@@XZ 0000000180041d50 f   PlugInLib:PlugInShell.obj
 0001:00040d90       ?destroy@?$allocator@U?$pair@$$CBV?$basic_string@DU?$char_traits@D@std@@V?$allocator@D@2@@std@@V12@@std@@@std@@QEAAXPEAU?$pair@$$CBV?$basic_string@DU?$char_traits@D@std@@V?$allocator@D@2@@std@@V12@@2@@Z 0000000180041d90 f i PlugInLib:PlugInShell.obj
 0001:00040df0       ??$_Destroy@U_Node@?$_List_nod@UContextMenuAction@@V?$allocator@UContextMenuAction@@@std@@@std@@@std@@YAXPEAU_Node@?$_List_nod@UContextMenuAction@@V?$allocator@UContextMenuAction@@@std@@@0@@Z 0000000180041df0 f i PlugInLib:PlugInShell.obj
 0001:00040e50       ??$?0$$CBV?$basic_string@DU?$char_traits@D@std@@V?$allocator@D@2@@std@@V01@@?$pair@$$CBV?$basic_string@DU?$char_traits@D@std@@V?$allocator@D@2@@std@@V12@@std@@QEAA@AEAU01@@Z 0000000180041e50 f i PlugInLib:PlugInShell.obj
 0001:00040e70       ??0Args@FactoryAllocator@@QEAA@PEBD@Z 0000000180041e70 f i PlugInLib:PlugInShell.obj
 0001:00040ec0       ?obtainResource@FactoryObject@@QEBAPEAXAEBVArgs@FactoryAllocator@@@Z 0000000180041ec0 f i PlugInLib:PlugInShell.obj
 0001:00040f50       ?releaseResource@FactoryObject@@QEBAXAEBVArgs@FactoryAllocator@@PEAX@Z 0000000180041f50 f i PlugInLib:PlugInShell.obj
 0001:00040ff0       ?setVersion@PlugInShell@@IEAAXAEBV?$basic_string@DU?$char_traits@D@std@@V?$allocator@D@2@@std@@@Z 0000000180041ff0 f   PlugInLib:PlugInShell.obj
 0001:00041000       ?setCreator@PlugInShell@@IEAAXAEBV?$basic_string@DU?$char_traits@D@std@@V?$allocator@D@2@@std@@@Z 0000000180042000 f   PlugInLib:PlugInShell.obj
 0001:00041010       ?setCopyright@PlugInShell@@IEAAXAEBV?$basic_string@DU?$char_traits@D@std@@V?$allocator@D@2@@std@@@Z 0000000180042010 f   PlugInLib:PlugInShell.obj
 0001:00041030       ?setDescription@PlugInShell@@IEAAXAEBV?$basic_string@DU?$char_traits@D@std@@V?$allocator@D@2@@std@@@Z 0000000180042030 f   PlugInLib:PlugInShell.obj
 0001:00041050       ?setShortDescription@PlugInShell@@IEAAXAEBV?$basic_string@DU?$char_traits@D@std@@V?$allocator@D@2@@std@@@Z 0000000180042050 f   PlugInLib:PlugInShell.obj
 0001:00041070       ?setDescriptorId@PlugInShell@@IEAAXAEBV?$basic_string@DU?$char_traits@D@std@@V?$allocator@D@2@@std@@@Z 0000000180042070 f   PlugInLib:PlugInShell.obj
 0001:00041090       ?setType@PlugInShell@@IEAAXAEBV?$basic_string@DU?$char_traits@D@std@@V?$allocator@D@2@@std@@@Z 0000000180042090 f   PlugInLib:PlugInShell.obj
 0001:000410b0       ?setSubtype@PlugInShell@@IEAAXAEBV?$basic_string@DU?$char_traits@D@std@@V?$allocator@D@2@@std@@@Z 00000001800420b0 f   PlugInLib:PlugInShell.obj
 0001:000410d0       ??0?$Resource@VSettableSessionItem@@VFactoryObject@@@@QEAA@AEBVArgs@FactoryAllocator@@@Z 00000001800420d0 f i PlugInLib:PlugInShell.obj
 0001:000411b0       ?destroyIfOwned@?$Resource@VSettableSessionItem@@VFactoryObject@@@@IEAAXXZ 00000001800421b0 f i PlugInLib:PlugInShell.obj
 0001:000411f0       ??0?$_Pair_base@$$CBV?$basic_string@DU?$char_traits@D@std@@V?$allocator@D@2@@std@@V12@@std@@QEAA@AEBV?$basic_string@DU?$char_traits@D@std@@V?$allocator@D@2@@1@$$QEAV21@@Z 00000001800421f0 f i PlugInLib:PlugInShell.obj
 0001:00041260       ??$_Dest_val@V?$allocator@U?$pair@$$CBV?$basic_string@DU?$char_traits@D@std@@V?$allocator@D@2@@std@@V12@@std@@@std@@U?$pair@$$CBV?$basic_string@DU?$char_traits@D@std@@V?$allocator@D@2@@std@@V12@@2@@std@@YAXAEAV?$allocator@U?$pair@$$CBV?$basic_string@DU?$char_traits@D@std@@V?$allocator@D@2@@std@@V12@@std@@@0@PEAU?$pair@$$CBV?$basic_string@DU?$char_traits@D@std@@V?$allocator@D@2@@std@@V12@@0@@Z 0000000180042260 f i PlugInLib:PlugInShell.obj
 0001:000412c0       ?destroy@?$allocator@U_Node@?$_List_nod@UContextMenuAction@@V?$allocator@UContextMenuAction@@@std@@@std@@@std@@QEAAXPEAU_Node@?$_List_nod@UContextMenuAction@@V?$allocator@UContextMenuAction@@@std@@@2@@Z 00000001800422c0 f i PlugInLib:PlugInShell.obj
 0001:00041320       ?_Insert@?$_Tree@V?$_Tmap_traits@V?$basic_string@DU?$char_traits@D@std@@V?$allocator@D@2@@std@@V12@U?$less@V?$basic_string@DU?$char_traits@D@std@@V?$allocator@D@2@@std@@@2@V?$allocator@U?$pair@$$CBV?$basic_string@DU?$char_traits@D@std@@V?$allocator@D@2@@std@@V12@@std@@@2@$0A@@std@@@std@@IEAA?AV?$_Tree_iterator@V?$_Tree_val@V?$_Tmap_traits@V?$basic_string@DU?$char_traits@D@std@@V?$allocator@D@2@@std@@V12@U?$less@V?$basic_string@DU?$char_traits@D@std@@V?$allocator@D@2@@std@@@2@V?$allocator@U?$pair@$$CBV?$basic_string@DU?$char_traits@D@std@@V?$allocator@D@2@@std@@V12@@std@@@2@$0A@@std@@@std@@@2@_NPEAU_Node@?$_Tree_nod@V?$_Tmap_traits@V?$basic_string@DU?$char_traits@D@std@@V?$allocator@D@2@@std@@V12@U?$less@V?$basic_string@DU?$char_traits@D@std@@V?$allocator@D@2@@std@@@2@V?$allocator@U?$pair@$$CBV?$basic_string@DU?$char_traits@D@std@@V?$allocator@D@2@@std@@V12@@std@@@2@$0A@@std@@@2@1@Z 0000000180042320 f i PlugInLib:PlugInShell.obj
 0001:00041600       ??$construct@AEAU?$pair@$$CBV?$basic_string@DU?$char_traits@D@std@@V?$allocator@D@2@@std@@V12@@std@@@?$allocator@U?$pair@$$CBV?$basic_string@DU?$char_traits@D@std@@V?$allocator@D@2@@std@@V12@@std@@@std@@QEAAXPEAU?$pair@$$CBV?$basic_string@DU?$char_traits@D@std@@V?$allocator@D@2@@std@@V12@@1@AEAU21@@Z 0000000180042600 f i PlugInLib:PlugInShell.obj
 0001:00041640       ??0?$_Pair_base@$$CBV?$basic_string@DU?$char_traits@D@std@@V?$allocator@D@2@@std@@V12@@std@@QEAA@$$QEBV?$basic_string@DU?$char_traits@D@std@@V?$allocator@D@2@@1@$$QEAV21@@Z 0000000180042640 f i PlugInLib:PlugInShell.obj
 0001:000416b0       ??1?$Resource@VSettableSessionItem@@VFactoryObject@@@@UEAA@XZ 00000001800426b0 f i PlugInLib:PlugInShell.obj
 0001:00041730       ?erase@?$_Tree@V?$_Tmap_traits@V?$basic_string@DU?$char_traits@D@std@@V?$allocator@D@2@@std@@V12@U?$less@V?$basic_string@DU?$char_traits@D@std@@V?$allocator@D@2@@std@@@2@V?$allocator@U?$pair@$$CBV?$basic_string@DU?$char_traits@D@std@@V?$allocator@D@2@@std@@V12@@std@@@2@$0A@@std@@@std@@QEAA?AV?$_Tree_iterator@V?$_Tree_val@V?$_Tmap_traits@V?$basic_string@DU?$char_traits@D@std@@V?$allocator@D@2@@std@@V12@U?$less@V?$basic_string@DU?$char_traits@D@std@@V?$allocator@D@2@@std@@@2@V?$allocator@U?$pair@$$CBV?$basic_string@DU?$char_traits@D@std@@V?$allocator@D@2@@std@@V12@@std@@@2@$0A@@std@@@std@@@2@V?$_Tree_const_iterator@V?$_Tree_val@V?$_Tmap_traits@V?$basic_string@DU?$char_traits@D@std@@V?$allocator@D@2@@std@@V12@U?$less@V?$basic_string@DU?$char_traits@D@std@@V?$allocator@D@2@@std@@@2@V?$allocator@U?$pair@$$CBV?$basic_string@DU?$char_traits@D@std@@V?$allocator@D@2@@std@@V12@@std@@@2@$0A@@std@@@std@@@2@@Z 0000000180042730 f i PlugInLib:PlugInShell.obj
 0001:00041ab0       ??_G?$Resource@VSettableSessionItem@@VFactoryObject@@@@UEAAPEAXI@Z 0000000180042ab0 f i PlugInLib:PlugInShell.obj
 0001:00041ab0       ??_E?$Resource@VSettableSessionItem@@VFactoryObject@@@@UEAAPEAXI@Z 0000000180042ab0 f i PlugInLib:PlugInShell.obj
 0001:00041ae0       ??0?$pair@$$CBV?$basic_string@DU?$char_traits@D@std@@V?$allocator@D@2@@std@@V12@@std@@QEAA@AEBV?$basic_string@DU?$char_traits@D@std@@V?$allocator@D@2@@1@$$QEAV21@@Z 0000000180042ae0 f i PlugInLib:PlugInShell.obj
 0001:00041b50       ?_Erase@?$_Tree@V?$_Tmap_traits@V?$basic_string@DU?$char_traits@D@std@@V?$allocator@D@2@@std@@V12@U?$less@V?$basic_string@DU?$char_traits@D@std@@V?$allocator@D@2@@std@@@2@V?$allocator@U?$pair@$$CBV?$basic_string@DU?$char_traits@D@std@@V?$allocator@D@2@@std@@V12@@std@@@2@$0A@@std@@@std@@IEAAXPEAU_Node@?$_Tree_nod@V?$_Tmap_traits@V?$basic_string@DU?$char_traits@D@std@@V?$allocator@D@2@@std@@V12@U?$less@V?$basic_string@DU?$char_traits@D@std@@V?$allocator@D@2@@std@@@2@V?$allocator@U?$pair@$$CBV?$basic_string@DU?$char_traits@D@std@@V?$allocator@D@2@@std@@V12@@std@@@2@$0A@@std@@@2@@Z 0000000180042b50 f i PlugInLib:PlugInShell.obj
 0001:00041c00       ??$_Dest_val@V?$allocator@U_Node@?$_List_nod@UContextMenuAction@@V?$allocator@UContextMenuAction@@@std@@@std@@@std@@U_Node@?$_List_nod@UContextMenuAction@@V?$allocator@UContextMenuAction@@@std@@@2@@std@@YAXAEAV?$allocator@U_Node@?$_List_nod@UContextMenuAction@@V?$allocator@UContextMenuAction@@@std@@@std@@@0@PEAU_Node@?$_List_nod@UContextMenuAction@@V?$allocator@UContextMenuAction@@@std@@@0@@Z 0000000180042c00 f i PlugInLib:PlugInShell.obj
 0001:00041c60       ?_Linsert@?$_Tree@V?$_Tmap_traits@V?$basic_string@DU?$char_traits@D@std@@V?$allocator@D@2@@std@@V12@U?$less@V?$basic_string@DU?$char_traits@D@std@@V?$allocator@D@2@@std@@@2@V?$allocator@U?$pair@$$CBV?$basic_string@DU?$char_traits@D@std@@V?$allocator@D@2@@std@@V12@@std@@@2@$0A@@std@@@std@@QEAA?AU?$pair@V?$_Tree_iterator@V?$_Tree_val@V?$_Tmap_traits@V?$basic_string@DU?$char_traits@D@std@@V?$allocator@D@2@@std@@V12@U?$less@V?$basic_string@DU?$char_traits@D@std@@V?$allocator@D@2@@std@@@2@V?$allocator@U?$pair@$$CBV?$basic_string@DU?$char_traits@D@std@@V?$allocator@D@2@@std@@V12@@std@@@2@$0A@@std@@@std@@@std@@_N@2@PEAU_Node@?$_Tree_nod@V?$_Tmap_traits@V?$basic_string@DU?$char_traits@D@std@@V?$allocator@D@2@@std@@V12@U?$less@V?$basic_string@DU?$char_traits@D@std@@V?$allocator@D@2@@std@@@2@V?$allocator@U?$pair@$$CBV?$basic_string@DU?$char_traits@D@std@@V?$allocator@D@2@@std@@V12@@std@@@2@$0A@@std@@@2@_N@Z 0000000180042c60 f i PlugInLib:PlugInShell.obj
 0001:00041ea0       ??$_Cons_val@V?$allocator@U?$pair@$$CBV?$basic_string@DU?$char_traits@D@std@@V?$allocator@D@2@@std@@V12@@std@@@std@@U?$pair@$$CBV?$basic_string@DU?$char_traits@D@std@@V?$allocator@D@2@@std@@V12@@2@AEAU32@@std@@YAXAEAV?$allocator@U?$pair@$$CBV?$basic_string@DU?$char_traits@D@std@@V?$allocator@D@2@@std@@V12@@std@@@0@PEAU?$pair@$$CBV?$basic_string@DU?$char_traits@D@std@@V?$allocator@D@2@@std@@V12@@0@AEAU20@@Z 0000000180042ea0 f i PlugInLib:PlugInShell.obj
 0001:00041ee0       ??$?0$$CBV?$basic_string@DU?$char_traits@D@std@@V?$allocator@D@2@@std@@V01@@?$pair@$$CBV?$basic_string@DU?$char_traits@D@std@@V?$allocator@D@2@@std@@V12@@std@@QEAA@$$QEAU01@@Z 0000000180042ee0 f i PlugInLib:PlugInShell.obj
 0001:00041f50       ??1?$FactoryResource@VSettableSessionItem@@@@UEAA@XZ 0000000180042f50 f i PlugInLib:PlugInShell.obj
 0001:00041f60       ??0?$FactoryResource@VSettableSessionItem@@@@QEAA@XZ 0000000180042f60 f i PlugInLib:PlugInShell.obj
 0001:00041ff0       ??_G?$FactoryResource@VSettableSessionItem@@@@UEAAPEAXI@Z 0000000180042ff0 f i PlugInLib:PlugInShell.obj
 0001:00041ff0       ??_E?$FactoryResource@VSettableSessionItem@@@@UEAAPEAXI@Z 0000000180042ff0 f i PlugInLib:PlugInShell.obj
 0001:00042020       ?clear@?$list@UContextMenuAction@@V?$allocator@UContextMenuAction@@@std@@@std@@QEAAXXZ 0000000180043020 f i PlugInLib:PlugInShell.obj
 0001:000420c0       ?clear@?$_Tree@V?$_Tmap_traits@V?$basic_string@DU?$char_traits@D@std@@V?$allocator@D@2@@std@@V12@U?$less@V?$basic_string@DU?$char_traits@D@std@@V?$allocator@D@2@@std@@@2@V?$allocator@U?$pair@$$CBV?$basic_string@DU?$char_traits@D@std@@V?$allocator@D@2@@std@@V12@@std@@@2@$0A@@std@@@std@@QEAAXXZ 00000001800430c0 f i PlugInLib:PlugInShell.obj
 0001:00042100       ??$_Buynode@AEAU?$pair@$$CBV?$basic_string@DU?$char_traits@D@std@@V?$allocator@D@2@@std@@V12@@std@@@?$_Tree_val@V?$_Tmap_traits@V?$basic_string@DU?$char_traits@D@std@@V?$allocator@D@2@@std@@V12@U?$less@V?$basic_string@DU?$char_traits@D@std@@V?$allocator@D@2@@std@@@2@V?$allocator@U?$pair@$$CBV?$basic_string@DU?$char_traits@D@std@@V?$allocator@D@2@@std@@V12@@std@@@2@$0A@@std@@@std@@QEAAPEAU_Node@?$_Tree_nod@V?$_Tmap_traits@V?$basic_string@DU?$char_traits@D@std@@V?$allocator@D@2@@std@@V12@U?$less@V?$basic_string@DU?$char_traits@D@std@@V?$allocator@D@2@@std@@@2@V?$allocator@U?$pair@$$CBV?$basic_string@DU?$char_traits@D@std@@V?$allocator@D@2@@std@@V12@@std@@@2@$0A@@std@@@1@AEAU?$pair@$$CBV?$basic_string@DU?$char_traits@D@std@@V?$allocator@D@2@@std@@V12@@1@@Z 0000000180043100 f i PlugInLib:PlugInShell.obj
 0001:00042160       ?_Insert@?$_Tree@V?$_Tmap_traits@V?$basic_string@DU?$char_traits@D@std@@V?$allocator@D@2@@std@@V12@U?$less@V?$basic_string@DU?$char_traits@D@std@@V?$allocator@D@2@@std@@@2@V?$allocator@U?$pair@$$CBV?$basic_string@DU?$char_traits@D@std@@V?$allocator@D@2@@std@@V12@@std@@@2@$0A@@std@@@std@@QEAA?AV?$_Tree_iterator@V?$_Tree_val@V?$_Tmap_traits@V?$basic_string@DU?$char_traits@D@std@@V?$allocator@D@2@@std@@V12@U?$less@V?$basic_string@DU?$char_traits@D@std@@V?$allocator@D@2@@std@@@2@V?$allocator@U?$pair@$$CBV?$basic_string@DU?$char_traits@D@std@@V?$allocator@D@2@@std@@V12@@std@@@2@$0A@@std@@@std@@@2@V?$_Tree_const_iterator@V?$_Tree_val@V?$_Tmap_traits@V?$basic_string@DU?$char_traits@D@std@@V?$allocator@D@2@@std@@V12@U?$less@V?$basic_string@DU?$char_traits@D@std@@V?$allocator@D@2@@std@@@2@V?$allocator@U?$pair@$$CBV?$basic_string@DU?$char_traits@D@std@@V?$allocator@D@2@@std@@V12@@std@@@2@$0A@@std@@@std@@@2@PEAU_Node@?$_Tree_nod@V?$_Tmap_traits@V?$basic_string@DU?$char_traits@D@std@@V?$allocator@D@2@@std@@V12@U?$less@V?$basic_string@DU?$char_traits@D@std@@V?$allocator@D@2@@std@@@2@V?$allocator@U?$pair@$$CBV?$basic_string@DU?$char_traits@D@std@@V?$allocator@D@2@@std@@V12@@std@@@2@$0A@@std@@@2@@Z 0000000180043160 f i PlugInLib:PlugInShell.obj
 0001:000423d0       ?construct@?$allocator@U?$pair@$$CBV?$basic_string@DU?$char_traits@D@std@@V?$allocator@D@2@@std@@V12@@std@@@std@@QEAAXPEAU?$pair@$$CBV?$basic_string@DU?$char_traits@D@std@@V?$allocator@D@2@@std@@V12@@2@$$QEAU32@@Z 00000001800433d0 f i PlugInLib:PlugInShell.obj
 0001:00042410       ?_Tidy@?$list@UContextMenuAction@@V?$allocator@UContextMenuAction@@@std@@@std@@QEAAXXZ 0000000180043410 f i PlugInLib:PlugInShell.obj
 0001:00042420       ?erase@?$_Tree@V?$_Tmap_traits@V?$basic_string@DU?$char_traits@D@std@@V?$allocator@D@2@@std@@V12@U?$less@V?$basic_string@DU?$char_traits@D@std@@V?$allocator@D@2@@std@@@2@V?$allocator@U?$pair@$$CBV?$basic_string@DU?$char_traits@D@std@@V?$allocator@D@2@@std@@V12@@std@@@2@$0A@@std@@@std@@QEAA?AV?$_Tree_iterator@V?$_Tree_val@V?$_Tmap_traits@V?$basic_string@DU?$char_traits@D@std@@V?$allocator@D@2@@std@@V12@U?$less@V?$basic_string@DU?$char_traits@D@std@@V?$allocator@D@2@@std@@@2@V?$allocator@U?$pair@$$CBV?$basic_string@DU?$char_traits@D@std@@V?$allocator@D@2@@std@@V12@@std@@@2@$0A@@std@@@std@@@2@V?$_Tree_const_iterator@V?$_Tree_val@V?$_Tmap_traits@V?$basic_string@DU?$char_traits@D@std@@V?$allocator@D@2@@std@@V12@U?$less@V?$basic_string@DU?$char_traits@D@std@@V?$allocator@D@2@@std@@@2@V?$allocator@U?$pair@$$CBV?$basic_string@DU?$char_traits@D@std@@V?$allocator@D@2@@std@@V12@@std@@@2@$0A@@std@@@std@@@2@0@Z 0000000180043420 f i PlugInLib:PlugInShell.obj
 0001:00042520       ?_Copy@?$_Tree@V?$_Tmap_traits@V?$basic_string@DU?$char_traits@D@std@@V?$allocator@D@2@@std@@V12@U?$less@V?$basic_string@DU?$char_traits@D@std@@V?$allocator@D@2@@std@@@2@V?$allocator@U?$pair@$$CBV?$basic_string@DU?$char_traits@D@std@@V?$allocator@D@2@@std@@V12@@std@@@2@$0A@@std@@@std@@IEAAPEAU_Node@?$_Tree_nod@V?$_Tmap_traits@V?$basic_string@DU?$char_traits@D@std@@V?$allocator@D@2@@std@@V12@U?$less@V?$basic_string@DU?$char_traits@D@std@@V?$allocator@D@2@@std@@@2@V?$allocator@U?$pair@$$CBV?$basic_string@DU?$char_traits@D@std@@V?$allocator@D@2@@std@@V12@@std@@@2@$0A@@std@@@2@PEAU342@0@Z 0000000180043520 f i PlugInLib:PlugInShell.obj
 0001:000425c0       ??$_Cons_val@V?$allocator@U?$pair@$$CBV?$basic_string@DU?$char_traits@D@std@@V?$allocator@D@2@@std@@V12@@std@@@std@@U?$pair@$$CBV?$basic_string@DU?$char_traits@D@std@@V?$allocator@D@2@@std@@V12@@2@U32@@std@@YAXAEAV?$allocator@U?$pair@$$CBV?$basic_string@DU?$char_traits@D@std@@V?$allocator@D@2@@std@@V12@@std@@@0@PEAU?$pair@$$CBV?$basic_string@DU?$char_traits@D@std@@V?$allocator@D@2@@std@@V12@@0@$$QEAU20@@Z 00000001800435c0 f i PlugInLib:PlugInShell.obj
 0001:00042600       ??1?$list@UContextMenuAction@@V?$allocator@UContextMenuAction@@@std@@@std@@QEAA@XZ 0000000180043600 f i PlugInLib:PlugInShell.obj
 0001:00042620       ?_Tidy@?$_Tree@V?$_Tmap_traits@V?$basic_string@DU?$char_traits@D@std@@V?$allocator@D@2@@std@@V12@U?$less@V?$basic_string@DU?$char_traits@D@std@@V?$allocator@D@2@@std@@@2@V?$allocator@U?$pair@$$CBV?$basic_string@DU?$char_traits@D@std@@V?$allocator@D@2@@std@@V12@@std@@@2@$0A@@std@@@std@@IEAAXXZ 0000000180043620 f i PlugInLib:PlugInShell.obj
 0001:00042640       ?_Copy@?$_Tree@V?$_Tmap_traits@V?$basic_string@DU?$char_traits@D@std@@V?$allocator@D@2@@std@@V12@U?$less@V?$basic_string@DU?$char_traits@D@std@@V?$allocator@D@2@@std@@@2@V?$allocator@U?$pair@$$CBV?$basic_string@DU?$char_traits@D@std@@V?$allocator@D@2@@std@@V12@@std@@@2@$0A@@std@@@std@@IEAAXAEBV12@@Z 0000000180043640 f i PlugInLib:PlugInShell.obj
 0001:000426f0       ??$_Buynode@U?$pair@$$CBV?$basic_string@DU?$char_traits@D@std@@V?$allocator@D@2@@std@@V12@@std@@@?$_Tree_val@V?$_Tmap_traits@V?$basic_string@DU?$char_traits@D@std@@V?$allocator@D@2@@std@@V12@U?$less@V?$basic_string@DU?$char_traits@D@std@@V?$allocator@D@2@@std@@@2@V?$allocator@U?$pair@$$CBV?$basic_string@DU?$char_traits@D@std@@V?$allocator@D@2@@std@@V12@@std@@@2@$0A@@std@@@std@@QEAAPEAU_Node@?$_Tree_nod@V?$_Tmap_traits@V?$basic_string@DU?$char_traits@D@std@@V?$allocator@D@2@@std@@V12@U?$less@V?$basic_string@DU?$char_traits@D@std@@V?$allocator@D@2@@std@@@2@V?$allocator@U?$pair@$$CBV?$basic_string@DU?$char_traits@D@std@@V?$allocator@D@2@@std@@V12@@std@@@2@$0A@@std@@@1@$$QEAU?$pair@$$CBV?$basic_string@DU?$char_traits@D@std@@V?$allocator@D@2@@std@@V12@@1@@Z 00000001800436f0 f i PlugInLib:PlugInShell.obj
 0001:00042740       ?getContextMenuActions@PlugInShell@@UEBA?AV?$list@UContextMenuAction@@V?$allocator@UContextMenuAction@@@std@@@std@@XZ 0000000180043740 f   PlugInLib:PlugInShell.obj
 0001:00042770       ?getPropertiesPages@PlugInShell@@UEBA?AV?$vector@V?$basic_string@DU?$char_traits@D@std@@V?$allocator@D@2@@std@@V?$allocator@V?$basic_string@DU?$char_traits@D@std@@V?$allocator@D@2@@std@@@2@@std@@XZ 0000000180043770 f   PlugInLib:PlugInShell.obj
 0001:000427a0       ??1?$_Tree@V?$_Tmap_traits@V?$basic_string@DU?$char_traits@D@std@@V?$allocator@D@2@@std@@V12@U?$less@V?$basic_string@DU?$char_traits@D@std@@V?$allocator@D@2@@std@@@2@V?$allocator@U?$pair@$$CBV?$basic_string@DU?$char_traits@D@std@@V?$allocator@D@2@@std@@V12@@std@@@2@$0A@@std@@@std@@QEAA@XZ 00000001800437a0 f i PlugInLib:PlugInShell.obj
 0001:000427e0       ??0?$_Tree@V?$_Tmap_traits@V?$basic_string@DU?$char_traits@D@std@@V?$allocator@D@2@@std@@V12@U?$less@V?$basic_string@DU?$char_traits@D@std@@V?$allocator@D@2@@std@@@2@V?$allocator@U?$pair@$$CBV?$basic_string@DU?$char_traits@D@std@@V?$allocator@D@2@@std@@V12@@std@@@2@$0A@@std@@@std@@QEAA@AEBV01@@Z 00000001800437e0 f i PlugInLib:PlugInShell.obj
 0001:00042890       ??$insert@U?$pair@$$CBV?$basic_string@DU?$char_traits@D@std@@V?$allocator@D@2@@std@@V12@@std@@@?$_Tree@V?$_Tmap_traits@V?$basic_string@DU?$char_traits@D@std@@V?$allocator@D@2@@std@@V12@U?$less@V?$basic_string@DU?$char_traits@D@std@@V?$allocator@D@2@@std@@@2@V?$allocator@U?$pair@$$CBV?$basic_string@DU?$char_traits@D@std@@V?$allocator@D@2@@std@@V12@@std@@@2@$0A@@std@@@std@@QEAA?AV?$_Tree_iterator@V?$_Tree_val@V?$_Tmap_traits@V?$basic_string@DU?$char_traits@D@std@@V?$allocator@D@2@@std@@V12@U?$less@V?$basic_string@DU?$char_traits@D@std@@V?$allocator@D@2@@std@@@2@V?$allocator@U?$pair@$$CBV?$basic_string@DU?$char_traits@D@std@@V?$allocator@D@2@@std@@V12@@std@@@2@$0A@@std@@@std@@@1@V?$_Tree_const_iterator@V?$_Tree_val@V?$_Tmap_traits@V?$basic_string@DU?$char_traits@D@std@@V?$allocator@D@2@@std@@V12@U?$less@V?$basic_string@DU?$char_traits@D@std@@V?$allocator@D@2@@std@@@2@V?$allocator@U?$pair@$$CBV?$basic_string@DU?$char_traits@D@std@@V?$allocator@D@2@@std@@V12@@std@@@2@$0A@@std@@@std@@@1@$$QEAU?$pair@$$CBV?$basic_string@DU?$char_traits@D@std@@V?$allocator@D@2@@std@@V12@@1@@Z 0000000180043890 f i PlugInLib:PlugInShell.obj
 0001:000428d0       ??1?$map@V?$basic_string@DU?$char_traits@D@std@@V?$allocator@D@2@@std@@V12@U?$less@V?$basic_string@DU?$char_traits@D@std@@V?$allocator@D@2@@std@@@2@V?$allocator@U?$pair@$$CBV?$basic_string@DU?$char_traits@D@std@@V?$allocator@D@2@@std@@V12@@std@@@2@@std@@QEAA@XZ 00000001800438d0 f i PlugInLib:PlugInShell.obj
 0001:00042910       ??1PlugInShell@@UEAA@XZ    0000000180043910 f   PlugInLib:PlugInShell.obj
 0001:00042af0       ??0?$map@V?$basic_string@DU?$char_traits@D@std@@V?$allocator@D@2@@std@@V12@U?$less@V?$basic_string@DU?$char_traits@D@std@@V?$allocator@D@2@@std@@@2@V?$allocator@U?$pair@$$CBV?$basic_string@DU?$char_traits@D@std@@V?$allocator@D@2@@std@@V12@@std@@@2@@std@@QEAA@XZ 0000000180043af0 f i PlugInLib:PlugInShell.obj
 0001:00042b80       ??0?$map@V?$basic_string@DU?$char_traits@D@std@@V?$allocator@D@2@@std@@V12@U?$less@V?$basic_string@DU?$char_traits@D@std@@V?$allocator@D@2@@std@@@2@V?$allocator@U?$pair@$$CBV?$basic_string@DU?$char_traits@D@std@@V?$allocator@D@2@@std@@V12@@std@@@2@@std@@QEAA@AEBV01@@Z 0000000180043b80 f i PlugInLib:PlugInShell.obj
 0001:00042ba0       ??A?$map@V?$basic_string@DU?$char_traits@D@std@@V?$allocator@D@2@@std@@V12@U?$less@V?$basic_string@DU?$char_traits@D@std@@V?$allocator@D@2@@std@@@2@V?$allocator@U?$pair@$$CBV?$basic_string@DU?$char_traits@D@std@@V?$allocator@D@2@@std@@V12@@std@@@2@@std@@QEAAAEAV?$basic_string@DU?$char_traits@D@std@@V?$allocator@D@2@@1@AEBV21@@Z 0000000180043ba0 f i PlugInLib:PlugInShell.obj
 0001:00042cd0       ??0PlugInShell@@QEAA@XZ    0000000180043cd0 f   PlugInLib:PlugInShell.obj
 0001:00042e00       ??_EPlugInShell@@UEAAPEAXI@Z 0000000180043e00 f i PlugInLib:PlugInShell.obj
 0001:00042e00       ??_GPlugInShell@@UEAAPEAXI@Z 0000000180043e00 f i PlugInLib:PlugInShell.obj
 0001:00042e30       ?getDependencyCopyright@PlugInShell@@UEBA?AV?$map@V?$basic_string@DU?$char_traits@D@std@@V?$allocator@D@2@@std@@V12@U?$less@V?$basic_string@DU?$char_traits@D@std@@V?$allocator@D@2@@std@@@2@V?$allocator@U?$pair@$$CBV?$basic_string@DU?$char_traits@D@std@@V?$allocator@D@2@@std@@V12@@std@@@2@@std@@XZ 0000000180043e30 f   PlugInLib:PlugInShell.obj
 0001:00042e60       ?addDependencyCopyright@PlugInShell@@IEAAXAEBV?$basic_string@DU?$char_traits@D@std@@V?$allocator@D@2@@std@@0@Z 0000000180043e60 f   PlugInLib:PlugInShell.obj
 0001:00042f20       ??0ModuleManager@@IEAA@XZ  0000000180043f20 f   PlugInLib:ModuleManagerCommon.obj
 0001:00042f30       ??1ModuleManager@@IEAA@XZ  0000000180043f30 f   PlugInLib:ModuleManagerCommon.obj
 0001:00042f40       ?instance@ModuleManager@@SAPEAV1@XZ 0000000180043f40 f   PlugInLib:ModuleManagerCommon.obj
 0001:00042f80       ??0logic_error@std@@QEAA@PEBD@Z 0000000180043f80 f i PlugInUtilities:Service.obj
 0001:00042fb0       ??1logic_error@std@@UEAA@XZ 0000000180043fb0 f i PlugInUtilities:Service.obj
 0001:00042fc0       ?getService@ModuleManager@@QEAAPEAVExternal@@XZ 0000000180043fc0 f i PlugInUtilities:Service.obj
 0001:00042fd0       ?get@?$Service@VApplicationServices@@@@QEBAPEAVApplicationServices@@XZ 0000000180043fd0 f   PlugInUtilities:Service.obj
 0001:00043000       ?get@?$Service@VUtilityServices@@@@QEBAPEAVUtilityServices@@XZ 0000000180044000 f   PlugInUtilities:Service.obj
 0001:00043030       ?get@?$Service@VModelServices@@@@QEBAPEAVModelServices@@XZ 0000000180044030 f   PlugInUtilities:Service.obj
 0001:00043060       ?get@?$Service@VAnimationServices@@@@QEBAPEAVAnimationServices@@XZ 0000000180044060 f   PlugInUtilities:Service.obj
 0001:00043090       ?get@?$Service@VDesktopServices@@@@QEBAPEAVDesktopServices@@XZ 0000000180044090 f   PlugInUtilities:Service.obj
 0001:000430c0       ?get@?$Service@VPlugInManagerServices@@@@QEBAPEAVPlugInManagerServices@@XZ 00000001800440c0 f   PlugInUtilities:Service.obj
 0001:000430f0       ??C?$Service@VUtilityServices@@@@QEBAPEAVUtilityServices@@XZ 00000001800440f0 f i PlugInUtilities:Service.obj
 0001:00043120       ??0?$EnumWrapper@W4WindowTypeEnum@@@@QEAA@AEBW4WindowTypeEnum@@@Z 0000000180044120 f i PlugInUtilities:Service.obj
 0001:00043130       ??1?$EnumWrapper@W4WindowTypeEnum@@@@QEAA@XZ 0000000180044130 f i PlugInUtilities:Service.obj
 0001:00043140       ??_Glogic_error@std@@UEAAPEAXI@Z 0000000180044140 f i PlugInUtilities:Service.obj
 0001:00043140       ??_Elogic_error@std@@UEAAPEAXI@Z 0000000180044140 f i PlugInUtilities:Service.obj
 0001:00043170       ?get@?$Service@VSessionManager@@@@QEBAPEAVSessionManager@@XZ 0000000180044170 f   PlugInUtilities:Service.obj
 0001:000431b0       ?get@?$Service@VConfigurationSettings@@@@QEBAPEAVConfigurationSettings@@XZ 00000001800441b0 f   PlugInUtilities:Service.obj
 0001:000431f0       ?get@?$Service@VObjectFactory@@@@QEBAPEAVObjectFactory@@XZ 00000001800441f0 f   PlugInUtilities:Service.obj
 0001:00043230       ?get@?$Service@VDataVariantFactory@@@@QEBAPEAVDataVariantFactory@@XZ 0000000180044230 f   PlugInUtilities:Service.obj
 0001:00043270       ?get@?$Service@VMessageLogMgr@@@@QEBAPEAVMessageLogMgr@@XZ 0000000180044270 f   PlugInUtilities:Service.obj
 0001:000432b0       ?get@?$Service@VSessionExplorer@@@@QEBAPEAVSessionExplorer@@XZ 00000001800442b0 f   PlugInUtilities:Service.obj
 0001:000433b0       ??0logic_error@std@@QEAA@AEBV01@@Z 00000001800443b0 f i PlugInUtilities:Service.obj
 0001:000433e0       ??C?$Service@VMessageLogMgr@@@@QEBAPEAVMessageLogMgr@@XZ 00000001800443e0 f i PlugInUtilities:AppVerify.obj
 0001:000433f0       ?_Tidy@?$basic_stringbuf@DU?$char_traits@D@std@@V?$allocator@D@2@@std@@IEAAXXZ 00000001800443f0 f i PlugInUtilities:AppVerify.obj
 0001:00043450       ?_Getstate@?$basic_stringbuf@DU?$char_traits@D@std@@V?$allocator@D@2@@std@@AEAAHH@Z 0000000180044450 f i PlugInUtilities:AppVerify.obj
 0001:00043480       ?capacity@?$basic_string@DU?$char_traits@D@std@@V?$allocator@D@2@@std@@QEBA_KXZ 0000000180044480 f i PlugInUtilities:AppVerify.obj
 0001:00043490       ??1?$basic_stringbuf@DU?$char_traits@D@std@@V?$allocator@D@2@@std@@UEAA@XZ 0000000180044490 f i PlugInUtilities:AppVerify.obj
 0001:00043500       ?eq@?$char_traits@D@std@@SA_NAEBD0@Z 0000000180044500 f i PlugInUtilities:AppVerify.obj
 0001:00043510       ?to_char_type@?$char_traits@D@std@@SADAEBH@Z 0000000180044510 f i PlugInUtilities:AppVerify.obj
 0001:00043520       ?to_int_type@?$char_traits@D@std@@SAHAEBD@Z 0000000180044520 f i PlugInUtilities:AppVerify.obj
 0001:00043530       ?underflow@?$basic_stringbuf@DU?$char_traits@D@std@@V?$allocator@D@2@@std@@MEAAHXZ 0000000180044530 f i PlugInUtilities:AppVerify.obj
 0001:000435a0       ??0?$fpos@H@std@@QEAA@_J@Z 00000001800445a0 f i PlugInUtilities:AppVerify.obj
 0001:000435b0       ??B?$fpos@H@std@@QEBA_JXZ  00000001800445b0 f i PlugInUtilities:AppVerify.obj
 0001:000435c0       ?not_eof@?$char_traits@D@std@@SAHAEBH@Z 00000001800445c0 f i PlugInUtilities:AppVerify.obj
 0001:000435d0       ?pbackfail@?$basic_stringbuf@DU?$char_traits@D@std@@V?$allocator@D@2@@std@@MEAAHH@Z 00000001800445d0 f i PlugInUtilities:AppVerify.obj
 0001:00043620       ?seekoff@?$basic_stringbuf@DU?$char_traits@D@std@@V?$allocator@D@2@@std@@MEAA?AV?$fpos@H@2@_JHH@Z 0000000180044620 f i PlugInUtilities:AppVerify.obj
 0001:000437c0       ?seekpos@?$basic_stringbuf@DU?$char_traits@D@std@@V?$allocator@D@2@@std@@MEAA?AV?$fpos@H@2@V32@H@Z 00000001800447c0 f i PlugInUtilities:AppVerify.obj
 0001:000438d0       ??_E?$basic_stringbuf@DU?$char_traits@D@std@@V?$allocator@D@2@@std@@UEAAPEAXI@Z 00000001800448d0 f i PlugInUtilities:AppVerify.obj
 0001:000438d0       ??_G?$basic_stringbuf@DU?$char_traits@D@std@@V?$allocator@D@2@@std@@UEAAPEAXI@Z 00000001800448d0 f i PlugInUtilities:AppVerify.obj
 0001:00043900       ?_Init@?$basic_stringbuf@DU?$char_traits@D@std@@V?$allocator@D@2@@std@@IEAAXPEBD_KH@Z 0000000180044900 f i PlugInUtilities:AppVerify.obj
 0001:000439f0       ??1?$basic_stringstream@DU?$char_traits@D@std@@V?$allocator@D@2@@std@@UEAA@XZ 00000001800449f0 f i PlugInUtilities:AppVerify.obj
 0001:00043a40       ?overflow@?$basic_stringbuf@DU?$char_traits@D@std@@V?$allocator@D@2@@std@@MEAAHH@Z 0000000180044a40 f i PlugInUtilities:AppVerify.obj
 0001:00043c80       ??0?$basic_stringbuf@DU?$char_traits@D@std@@V?$allocator@D@2@@std@@QEAA@H@Z 0000000180044c80 f i PlugInUtilities:AppVerify.obj
 0001:00043cf0       ??_D?$basic_stringstream@DU?$char_traits@D@std@@V?$allocator@D@2@@std@@QEAAXXZ 0000000180044cf0 f i PlugInUtilities:AppVerify.obj
 0001:00043d70       ??0?$basic_stringstream@DU?$char_traits@D@std@@V?$allocator@D@2@@std@@QEAA@H@Z 0000000180044d70 f i PlugInUtilities:AppVerify.obj
 0001:00043e20       ??_G?$basic_stringstream@DU?$char_traits@D@std@@V?$allocator@D@2@@std@@UEAAPEAXI@Z 0000000180044e20 f i PlugInUtilities:AppVerify.obj
 0001:00043e20       ??_E?$basic_stringstream@DU?$char_traits@D@std@@V?$allocator@D@2@@std@@UEAAPEAXI@Z 0000000180044e20 f i PlugInUtilities:AppVerify.obj
 0001:00043e60       ?insert@?$basic_string@DU?$char_traits@D@std@@V?$allocator@D@2@@std@@QEAAAEAV12@_KAEBV12@00@Z 0000000180044e60 f i PlugInUtilities:AppVerify.obj
 0001:00044010       ?append@?$basic_string@DU?$char_traits@D@std@@V?$allocator@D@2@@std@@QEAAAEAV12@AEBV12@_K1@Z 0000000180045010 f i PlugInUtilities:AppVerify.obj
 0001:00044130       ?insert@?$basic_string@DU?$char_traits@D@std@@V?$allocator@D@2@@std@@QEAAAEAV12@_KAEBV12@@Z 0000000180045130 f i PlugInUtilities:AppVerify.obj
 0001:00044150       ?append@?$basic_string@DU?$char_traits@D@std@@V?$allocator@D@2@@std@@QEAAAEAV12@AEBV12@@Z 0000000180045150 f i PlugInUtilities:AppVerify.obj
 0001:00044160       ?append@?$basic_string@DU?$char_traits@D@std@@V?$allocator@D@2@@std@@QEAAAEAV12@PEBD_K@Z 0000000180045160 f i PlugInUtilities:AppVerify.obj
 0001:000442a0       ?append@?$basic_string@DU?$char_traits@D@std@@V?$allocator@D@2@@std@@QEAAAEAV12@PEBD@Z 00000001800452a0 f i PlugInUtilities:AppVerify.obj
 0001:000442d0       ??0?$basic_string@DU?$char_traits@D@std@@V?$allocator@D@2@@std@@QEAA@PEBD_K@Z 00000001800452d0 f i PlugInUtilities:AppVerify.obj
 0001:00044300       ?str@?$basic_stringbuf@DU?$char_traits@D@std@@V?$allocator@D@2@@std@@QEBA?AV?$basic_string@DU?$char_traits@D@std@@V?$allocator@D@2@@2@XZ 0000000180045300 f i PlugInUtilities:AppVerify.obj
 0001:00044570       ??$?HDU?$char_traits@D@std@@V?$allocator@D@1@@std@@YA?AV?$basic_string@DU?$char_traits@D@std@@V?$allocator@D@2@@0@$$QEAV10@PEBD@Z 0000000180045570 f i PlugInUtilities:AppVerify.obj
 0001:000445e0       ??$?HDU?$char_traits@D@std@@V?$allocator@D@1@@std@@YA?AV?$basic_string@DU?$char_traits@D@std@@V?$allocator@D@2@@0@$$QEAV10@0@Z 00000001800455e0 f i PlugInUtilities:AppVerify.obj
 0001:00044670       ?str@?$basic_stringstream@DU?$char_traits@D@std@@V?$allocator@D@2@@std@@QEBA?AV?$basic_string@DU?$char_traits@D@std@@V?$allocator@D@2@@2@XZ 0000000180045670 f i PlugInUtilities:AppVerify.obj
 0001:000446a0       ?LogVerificationErrorProc@@YAXPEBD0I0@Z 00000001800456a0 f   PlugInUtilities:AppVerify.obj
 0001:00044c90       ??$toString@_N@TypeConverter@@YAPEBDXZ 0000000180045c90 f   PlugInUtilities:TypeConverter.obj
 0001:00044ca0       ??$toString@V?$vector@PEA_NV?$allocator@PEA_N@std@@@std@@@TypeConverter@@YAPEBDXZ 0000000180045ca0 f   PlugInUtilities:TypeConverter.obj
 0001:00044cb0       ??$toString@V?$vector@_NV?$allocator@_N@std@@@std@@@TypeConverter@@YAPEBDXZ 0000000180045cb0 f   PlugInUtilities:TypeConverter.obj
 0001:00044cc0       ??$toString@D@TypeConverter@@YAPEBDXZ 0000000180045cc0 f   PlugInUtilities:TypeConverter.obj
 0001:00044cd0       ??$toString@V?$vector@PEADV?$allocator@PEAD@std@@@std@@@TypeConverter@@YAPEBDXZ 0000000180045cd0 f   PlugInUtilities:TypeConverter.obj
 0001:00044ce0       ??$toString@V?$vector@DV?$allocator@D@std@@@std@@@TypeConverter@@YAPEBDXZ 0000000180045ce0 f   PlugInUtilities:TypeConverter.obj
 0001:00044cf0       ??$toString@E@TypeConverter@@YAPEBDXZ 0000000180045cf0 f   PlugInUtilities:TypeConverter.obj
 0001:00044d00       ??$toString@V?$vector@PEAEV?$allocator@PEAE@std@@@std@@@TypeConverter@@YAPEBDXZ 0000000180045d00 f   PlugInUtilities:TypeConverter.obj
 0001:00044d10       ??$toString@V?$vector@EV?$allocator@E@std@@@std@@@TypeConverter@@YAPEBDXZ 0000000180045d10 f   PlugInUtilities:TypeConverter.obj
 0001:00044d20       ??$toString@C@TypeConverter@@YAPEBDXZ 0000000180045d20 f   PlugInUtilities:TypeConverter.obj
 0001:00044d30       ??$toString@V?$vector@PEACV?$allocator@PEAC@std@@@std@@@TypeConverter@@YAPEBDXZ 0000000180045d30 f   PlugInUtilities:TypeConverter.obj
 0001:00044d40       ??$toString@V?$vector@CV?$allocator@C@std@@@std@@@TypeConverter@@YAPEBDXZ 0000000180045d40 f   PlugInUtilities:TypeConverter.obj
 0001:00044d50       ??$toString@F@TypeConverter@@YAPEBDXZ 0000000180045d50 f   PlugInUtilities:TypeConverter.obj
 0001:00044d60       ??$toString@V?$vector@PEAFV?$allocator@PEAF@std@@@std@@@TypeConverter@@YAPEBDXZ 0000000180045d60 f   PlugInUtilities:TypeConverter.obj
 0001:00044d70       ??$toString@V?$vector@FV?$allocator@F@std@@@std@@@TypeConverter@@YAPEBDXZ 0000000180045d70 f   PlugInUtilities:TypeConverter.obj
 0001:00044d80       ??$toString@G@TypeConverter@@YAPEBDXZ 0000000180045d80 f   PlugInUtilities:TypeConverter.obj
 0001:00044d90       ??$toString@V?$vector@PEAGV?$allocator@PEAG@std@@@std@@@TypeConverter@@YAPEBDXZ 0000000180045d90 f   PlugInUtilities:TypeConverter.obj
 0001:00044da0       ??$toString@V?$vector@GV?$allocator@G@std@@@std@@@TypeConverter@@YAPEBDXZ 0000000180045da0 f   PlugInUtilities:TypeConverter.obj
 0001:00044db0       ??$toString@H@TypeConverter@@YAPEBDXZ 0000000180045db0 f   PlugInUtilities:TypeConverter.obj
 0001:00044dc0       ??$toString@V?$vector@PEAHV?$allocator@PEAH@std@@@std@@@TypeConverter@@YAPEBDXZ 0000000180045dc0 f   PlugInUtilities:TypeConverter.obj
 0001:00044dd0       ??$toString@V?$vector@HV?$allocator@H@std@@@std@@@TypeConverter@@YAPEBDXZ 0000000180045dd0 f   PlugInUtilities:TypeConverter.obj
 0001:00044de0       ??$toString@I@TypeConverter@@YAPEBDXZ 0000000180045de0 f   PlugInUtilities:TypeConverter.obj
 0001:00044df0       ??$toString@V?$vector@PEAIV?$allocator@PEAI@std@@@std@@@TypeConverter@@YAPEBDXZ 0000000180045df0 f   PlugInUtilities:TypeConverter.obj
 0001:00044e00       ??$toString@V?$vector@IV?$allocator@I@std@@@std@@@TypeConverter@@YAPEBDXZ 0000000180045e00 f   PlugInUtilities:TypeConverter.obj
 0001:00044e10       ??$toString@J@TypeConverter@@YAPEBDXZ 0000000180045e10 f   PlugInUtilities:TypeConverter.obj
 0001:00044e20       ??$toString@V?$vector@PEAJV?$allocator@PEAJ@std@@@std@@@TypeConverter@@YAPEBDXZ 0000000180045e20 f   PlugInUtilities:TypeConverter.obj
 0001:00044e30       ??$toString@V?$vector@JV?$allocator@J@std@@@std@@@TypeConverter@@YAPEBDXZ 0000000180045e30 f   PlugInUtilities:TypeConverter.obj
 0001:00044e40       ??$toString@K@TypeConverter@@YAPEBDXZ 0000000180045e40 f   PlugInUtilities:TypeConverter.obj
 0001:00044e50       ??$toString@V?$vector@PEAKV?$allocator@PEAK@std@@@std@@@TypeConverter@@YAPEBDXZ 0000000180045e50 f   PlugInUtilities:TypeConverter.obj
 0001:00044e60       ??$toString@V?$vector@KV?$allocator@K@std@@@std@@@TypeConverter@@YAPEBDXZ 0000000180045e60 f   PlugInUtilities:TypeConverter.obj
 0001:00044e70       ??$toString@_J@TypeConverter@@YAPEBDXZ 0000000180045e70 f   PlugInUtilities:TypeConverter.obj
 0001:00044e80       ??$toString@V?$vector@PEA_JV?$allocator@PEA_J@std@@@std@@@TypeConverter@@YAPEBDXZ 0000000180045e80 f   PlugInUtilities:TypeConverter.obj
 0001:00044e90       ??$toString@V?$vector@_JV?$allocator@_J@std@@@std@@@TypeConverter@@YAPEBDXZ 0000000180045e90 f   PlugInUtilities:TypeConverter.obj
 0001:00044ea0       ??$toString@_K@TypeConverter@@YAPEBDXZ 0000000180045ea0 f   PlugInUtilities:TypeConverter.obj
 0001:00044eb0       ??$toString@V?$vector@PEA_KV?$allocator@PEA_K@std@@@std@@@TypeConverter@@YAPEBDXZ 0000000180045eb0 f   PlugInUtilities:TypeConverter.obj
 0001:00044ec0       ??$toString@V?$vector@_KV?$allocator@_K@std@@@std@@@TypeConverter@@YAPEBDXZ 0000000180045ec0 f   PlugInUtilities:TypeConverter.obj
 0001:00044ed0       ??$toString@M@TypeConverter@@YAPEBDXZ 0000000180045ed0 f   PlugInUtilities:TypeConverter.obj
 0001:00044ee0       ??$toString@V?$vector@PEAMV?$allocator@PEAM@std@@@std@@@TypeConverter@@YAPEBDXZ 0000000180045ee0 f   PlugInUtilities:TypeConverter.obj
 0001:00044ef0       ??$toString@V?$vector@MV?$allocator@M@std@@@std@@@TypeConverter@@YAPEBDXZ 0000000180045ef0 f   PlugInUtilities:TypeConverter.obj
 0001:00044f00       ??$toString@N@TypeConverter@@YAPEBDXZ 0000000180045f00 f   PlugInUtilities:TypeConverter.obj
 0001:00044f10       ??$toString@V?$vector@PEANV?$allocator@PEAN@std@@@std@@@TypeConverter@@YAPEBDXZ 0000000180045f10 f   PlugInUtilities:TypeConverter.obj
 0001:00044f20       ??$toString@V?$vector@NV?$allocator@N@std@@@std@@@TypeConverter@@YAPEBDXZ 0000000180045f20 f   PlugInUtilities:TypeConverter.obj
 0001:00044f30       ??$toString@X@TypeConverter@@YAPEBDXZ 0000000180045f30 f   PlugInUtilities:TypeConverter.obj
 0001:00044f40       ??$toString@V?$vector@PEAXV?$allocator@PEAX@std@@@std@@@TypeConverter@@YAPEBDXZ 0000000180045f40 f   PlugInUtilities:TypeConverter.obj
 0001:00044f50       ??$toString@V?$vector@XV?$allocator@X@std@@@std@@@TypeConverter@@YAPEBDXZ 0000000180045f50 f   PlugInUtilities:TypeConverter.obj
 0001:00044f60       ??$toString@V?$basic_string@DU?$char_traits@D@std@@V?$allocator@D@2@@std@@@TypeConverter@@YAPEBDXZ 0000000180045f60 f   PlugInUtilities:TypeConverter.obj
 0001:00044f70       ??$toString@V?$vector@PEAV?$basic_string@DU?$char_traits@D@std@@V?$allocator@D@2@@std@@V?$allocator@PEAV?$basic_string@DU?$char_traits@D@std@@V?$allocator@D@2@@std@@@2@@std@@@TypeConverter@@YAPEBDXZ 0000000180045f70 f   PlugInUtilities:TypeConverter.obj
 0001:00044f80       ??$toString@V?$vector@V?$basic_string@DU?$char_traits@D@std@@V?$allocator@D@2@@std@@V?$allocator@V?$basic_string@DU?$char_traits@D@std@@V?$allocator@D@2@@std@@@2@@std@@@TypeConverter@@YAPEBDXZ 0000000180045f80 f   PlugInUtilities:TypeConverter.obj
 0001:00044f90       ??$toString@V?$EnumWrapper@W4AnimationCycleEnum@@@@@TypeConverter@@YAPEBDXZ 0000000180045f90 f   PlugInUtilities:TypeConverter.obj
 0001:00044fa0       ??$toString@V?$vector@PEAV?$EnumWrapper@W4AnimationCycleEnum@@@@V?$allocator@PEAV?$EnumWrapper@W4AnimationCycleEnum@@@@@std@@@std@@@TypeConverter@@YAPEBDXZ 0000000180045fa0 f   PlugInUtilities:TypeConverter.obj
 0001:00044fb0       ??$toString@V?$vector@V?$EnumWrapper@W4AnimationCycleEnum@@@@V?$allocator@V?$EnumWrapper@W4AnimationCycleEnum@@@@@std@@@std@@@TypeConverter@@YAPEBDXZ 0000000180045fb0 f   PlugInUtilities:TypeConverter.obj
 0001:00044fc0       ??$toString@V?$EnumWrapper@W4AnimationStateEnum@@@@@TypeConverter@@YAPEBDXZ 0000000180045fc0 f   PlugInUtilities:TypeConverter.obj
 0001:00044fd0       ??$toString@V?$vector@PEAV?$EnumWrapper@W4AnimationStateEnum@@@@V?$allocator@PEAV?$EnumWrapper@W4AnimationStateEnum@@@@@std@@@std@@@TypeConverter@@YAPEBDXZ 0000000180045fd0 f   PlugInUtilities:TypeConverter.obj
 0001:00044fe0       ??$toString@V?$vector@V?$EnumWrapper@W4AnimationStateEnum@@@@V?$allocator@V?$EnumWrapper@W4AnimationStateEnum@@@@@std@@@std@@@TypeConverter@@YAPEBDXZ 0000000180045fe0 f   PlugInUtilities:TypeConverter.obj
 0001:00044ff0       ??$toString@V?$EnumWrapper@W4ArcRegionEnum@@@@@TypeConverter@@YAPEBDXZ 0000000180045ff0 f   PlugInUtilities:TypeConverter.obj
 0001:00045000       ??$toString@V?$vector@PEAV?$EnumWrapper@W4ArcRegionEnum@@@@V?$allocator@PEAV?$EnumWrapper@W4ArcRegionEnum@@@@@std@@@std@@@TypeConverter@@YAPEBDXZ 0000000180046000 f   PlugInUtilities:TypeConverter.obj
 0001:00045010       ??$toString@V?$vector@V?$EnumWrapper@W4ArcRegionEnum@@@@V?$allocator@V?$EnumWrapper@W4ArcRegionEnum@@@@@std@@@std@@@TypeConverter@@YAPEBDXZ 0000000180046010 f   PlugInUtilities:TypeConverter.obj
 0001:00045020       ??$toString@V?$EnumWrapper@W4ComplexComponentEnum@@@@@TypeConverter@@YAPEBDXZ 0000000180046020 f   PlugInUtilities:TypeConverter.obj
 0001:00045030       ??$toString@V?$vector@PEAV?$EnumWrapper@W4ComplexComponentEnum@@@@V?$allocator@PEAV?$EnumWrapper@W4ComplexComponentEnum@@@@@std@@@std@@@TypeConverter@@YAPEBDXZ 0000000180046030 f   PlugInUtilities:TypeConverter.obj
 0001:00045040       ??$toString@V?$vector@V?$EnumWrapper@W4ComplexComponentEnum@@@@V?$allocator@V?$EnumWrapper@W4ComplexComponentEnum@@@@@std@@@std@@@TypeConverter@@YAPEBDXZ 0000000180046040 f   PlugInUtilities:TypeConverter.obj
 0001:00045050       ??$toString@V?$EnumWrapper@W4DataOriginEnum@@@@@TypeConverter@@YAPEBDXZ 0000000180046050 f   PlugInUtilities:TypeConverter.obj
 0001:00045060       ??$toString@V?$vector@PEAV?$EnumWrapper@W4DataOriginEnum@@@@V?$allocator@PEAV?$EnumWrapper@W4DataOriginEnum@@@@@std@@@std@@@TypeConverter@@YAPEBDXZ 0000000180046060 f   PlugInUtilities:TypeConverter.obj
 0001:00045070       ??$toString@V?$vector@V?$EnumWrapper@W4DataOriginEnum@@@@V?$allocator@V?$EnumWrapper@W4DataOriginEnum@@@@@std@@@std@@@TypeConverter@@YAPEBDXZ 0000000180046070 f   PlugInUtilities:TypeConverter.obj
 0001:00045080       ??$toString@V?$EnumWrapper@W4DisplayModeEnum@@@@@TypeConverter@@YAPEBDXZ 0000000180046080 f   PlugInUtilities:TypeConverter.obj
 0001:00045090       ??$toString@V?$vector@PEAV?$EnumWrapper@W4DisplayModeEnum@@@@V?$allocator@PEAV?$EnumWrapper@W4DisplayModeEnum@@@@@std@@@std@@@TypeConverter@@YAPEBDXZ 0000000180046090 f   PlugInUtilities:TypeConverter.obj
 0001:000450a0       ??$toString@V?$vector@V?$EnumWrapper@W4DisplayModeEnum@@@@V?$allocator@V?$EnumWrapper@W4DisplayModeEnum@@@@@std@@@std@@@TypeConverter@@YAPEBDXZ 00000001800460a0 f   PlugInUtilities:TypeConverter.obj
 0001:000450b0       ??$toString@V?$EnumWrapper@W4DistanceUnitsEnum@@@@@TypeConverter@@YAPEBDXZ 00000001800460b0 f   PlugInUtilities:TypeConverter.obj
 0001:000450c0       ??$toString@V?$vector@PEAV?$EnumWrapper@W4DistanceUnitsEnum@@@@V?$allocator@PEAV?$EnumWrapper@W4DistanceUnitsEnum@@@@@std@@@std@@@TypeConverter@@YAPEBDXZ 00000001800460c0 f   PlugInUtilities:TypeConverter.obj
 0001:000450d0       ??$toString@V?$vector@V?$EnumWrapper@W4DistanceUnitsEnum@@@@V?$allocator@V?$EnumWrapper@W4DistanceUnitsEnum@@@@@std@@@std@@@TypeConverter@@YAPEBDXZ 00000001800460d0 f   PlugInUtilities:TypeConverter.obj
 0001:000450e0       ??$toString@V?$EnumWrapper@W4DmsFormatTypeEnum@@@@@TypeConverter@@YAPEBDXZ 00000001800460e0 f   PlugInUtilities:TypeConverter.obj
 0001:000450f0       ??$toString@V?$vector@PEAV?$EnumWrapper@W4DmsFormatTypeEnum@@@@V?$allocator@PEAV?$EnumWrapper@W4DmsFormatTypeEnum@@@@@std@@@std@@@TypeConverter@@YAPEBDXZ 00000001800460f0 f   PlugInUtilities:TypeConverter.obj
 0001:00045100       ??$toString@V?$vector@V?$EnumWrapper@W4DmsFormatTypeEnum@@@@V?$allocator@V?$EnumWrapper@W4DmsFormatTypeEnum@@@@@std@@@std@@@TypeConverter@@YAPEBDXZ 0000000180046100 f   PlugInUtilities:TypeConverter.obj
 0001:00045110       ??$toString@V?$EnumWrapper@W4EncodingTypeEnum@@@@@TypeConverter@@YAPEBDXZ 0000000180046110 f   PlugInUtilities:TypeConverter.obj
 0001:00045120       ??$toString@V?$vector@PEAV?$EnumWrapper@W4EncodingTypeEnum@@@@V?$allocator@PEAV?$EnumWrapper@W4EncodingTypeEnum@@@@@std@@@std@@@TypeConverter@@YAPEBDXZ 0000000180046120 f   PlugInUtilities:TypeConverter.obj
 0001:00045130       ??$toString@V?$vector@V?$EnumWrapper@W4EncodingTypeEnum@@@@V?$allocator@V?$EnumWrapper@W4EncodingTypeEnum@@@@@std@@@std@@@TypeConverter@@YAPEBDXZ 0000000180046130 f   PlugInUtilities:TypeConverter.obj
 0001:00045140       ??$toString@V?$EnumWrapper@W4EndianTypeEnum@@@@@TypeConverter@@YAPEBDXZ 0000000180046140 f   PlugInUtilities:TypeConverter.obj
 0001:00045150       ??$toString@V?$vector@PEAV?$EnumWrapper@W4EndianTypeEnum@@@@V?$allocator@PEAV?$EnumWrapper@W4EndianTypeEnum@@@@@std@@@std@@@TypeConverter@@YAPEBDXZ 0000000180046150 f   PlugInUtilities:TypeConverter.obj
 0001:00045160       ??$toString@V?$vector@V?$EnumWrapper@W4EndianTypeEnum@@@@V?$allocator@V?$EnumWrapper@W4EndianTypeEnum@@@@@std@@@std@@@TypeConverter@@YAPEBDXZ 0000000180046160 f   PlugInUtilities:TypeConverter.obj
 0001:00045170       ??$toString@V?$EnumWrapper@W4FillStyleEnum@@@@@TypeConverter@@YAPEBDXZ 0000000180046170 f   PlugInUtilities:TypeConverter.obj
 0001:00045180       ??$toString@V?$vector@PEAV?$EnumWrapper@W4FillStyleEnum@@@@V?$allocator@PEAV?$EnumWrapper@W4FillStyleEnum@@@@@std@@@std@@@TypeConverter@@YAPEBDXZ 0000000180046180 f   PlugInUtilities:TypeConverter.obj
 0001:00045190       ??$toString@V?$vector@V?$EnumWrapper@W4FillStyleEnum@@@@V?$allocator@V?$EnumWrapper@W4FillStyleEnum@@@@@std@@@std@@@TypeConverter@@YAPEBDXZ 0000000180046190 f   PlugInUtilities:TypeConverter.obj
 0001:000451a0       ??$toString@V?$EnumWrapper@W4InsetZoomModeEnum@@@@@TypeConverter@@YAPEBDXZ 00000001800461a0 f   PlugInUtilities:TypeConverter.obj
 0001:000451b0       ??$toString@V?$vector@PEAV?$EnumWrapper@W4InsetZoomModeEnum@@@@V?$allocator@PEAV?$EnumWrapper@W4InsetZoomModeEnum@@@@@std@@@std@@@TypeConverter@@YAPEBDXZ 00000001800461b0 f   PlugInUtilities:TypeConverter.obj
 0001:000451c0       ??$toString@V?$vector@V?$EnumWrapper@W4InsetZoomModeEnum@@@@V?$allocator@V?$EnumWrapper@W4InsetZoomModeEnum@@@@@std@@@std@@@TypeConverter@@YAPEBDXZ 00000001800461c0 f   PlugInUtilities:TypeConverter.obj
 0001:000451d0       ??$toString@V?$EnumWrapper@W4InterleaveFormatTypeEnum@@@@@TypeConverter@@YAPEBDXZ 00000001800461d0 f   PlugInUtilities:TypeConverter.obj
 0001:000451e0       ??$toString@V?$vector@PEAV?$EnumWrapper@W4InterleaveFormatTypeEnum@@@@V?$allocator@PEAV?$EnumWrapper@W4InterleaveFormatTypeEnum@@@@@std@@@std@@@TypeConverter@@YAPEBDXZ 00000001800461e0 f   PlugInUtilities:TypeConverter.obj
 0001:000451f0       ??$toString@V?$vector@V?$EnumWrapper@W4InterleaveFormatTypeEnum@@@@V?$allocator@V?$EnumWrapper@W4InterleaveFormatTypeEnum@@@@@std@@@std@@@TypeConverter@@YAPEBDXZ 00000001800461f0 f   PlugInUtilities:TypeConverter.obj
 0001:00045200       ??$toString@V?$EnumWrapper@W4InterpolationTypeEnum@@@@@TypeConverter@@YAPEBDXZ 0000000180046200 f   PlugInUtilities:TypeConverter.obj
 0001:00045210       ??$toString@V?$vector@PEAV?$EnumWrapper@W4InterpolationTypeEnum@@@@V?$allocator@PEAV?$EnumWrapper@W4InterpolationTypeEnum@@@@@std@@@std@@@TypeConverter@@YAPEBDXZ 0000000180046210 f   PlugInUtilities:TypeConverter.obj
 0001:00045220       ??$toString@V?$vector@V?$EnumWrapper@W4InterpolationTypeEnum@@@@V?$allocator@V?$EnumWrapper@W4InterpolationTypeEnum@@@@@std@@@std@@@TypeConverter@@YAPEBDXZ 0000000180046220 f   PlugInUtilities:TypeConverter.obj
 0001:00045230       ??$toString@V?$EnumWrapper@W4GcpSymbolEnum@@@@@TypeConverter@@YAPEBDXZ 0000000180046230 f   PlugInUtilities:TypeConverter.obj
 0001:00045240       ??$toString@V?$vector@PEAV?$EnumWrapper@W4GcpSymbolEnum@@@@V?$allocator@PEAV?$EnumWrapper@W4GcpSymbolEnum@@@@@std@@@std@@@TypeConverter@@YAPEBDXZ 0000000180046240 f   PlugInUtilities:TypeConverter.obj
 0001:00045250       ??$toString@V?$vector@V?$EnumWrapper@W4GcpSymbolEnum@@@@V?$allocator@V?$EnumWrapper@W4GcpSymbolEnum@@@@@std@@@std@@@TypeConverter@@YAPEBDXZ 0000000180046250 f   PlugInUtilities:TypeConverter.obj
 0001:00045260       ??$toString@V?$EnumWrapper@W4GeocoordTypeEnum@@@@@TypeConverter@@YAPEBDXZ 0000000180046260 f   PlugInUtilities:TypeConverter.obj
 0001:00045270       ??$toString@V?$vector@PEAV?$EnumWrapper@W4GeocoordTypeEnum@@@@V?$allocator@PEAV?$EnumWrapper@W4GeocoordTypeEnum@@@@@std@@@std@@@TypeConverter@@YAPEBDXZ 0000000180046270 f   PlugInUtilities:TypeConverter.obj
 0001:00045280       ??$toString@V?$vector@V?$EnumWrapper@W4GeocoordTypeEnum@@@@V?$allocator@V?$EnumWrapper@W4GeocoordTypeEnum@@@@@std@@@std@@@TypeConverter@@YAPEBDXZ 0000000180046280 f   PlugInUtilities:TypeConverter.obj
 0001:00045290       ??$toString@V?$EnumWrapper@W4GraphicObjectTypeEnum@@@@@TypeConverter@@YAPEBDXZ 0000000180046290 f   PlugInUtilities:TypeConverter.obj
 0001:000452a0       ??$toString@V?$vector@PEAV?$EnumWrapper@W4GraphicObjectTypeEnum@@@@V?$allocator@PEAV?$EnumWrapper@W4GraphicObjectTypeEnum@@@@@std@@@std@@@TypeConverter@@YAPEBDXZ 00000001800462a0 f   PlugInUtilities:TypeConverter.obj
 0001:000452b0       ??$toString@V?$vector@V?$EnumWrapper@W4GraphicObjectTypeEnum@@@@V?$allocator@V?$EnumWrapper@W4GraphicObjectTypeEnum@@@@@std@@@std@@@TypeConverter@@YAPEBDXZ 00000001800462b0 f   PlugInUtilities:TypeConverter.obj
 0001:000452c0       ??$toString@V?$EnumWrapper@W4LatLonStyleEnum@@@@@TypeConverter@@YAPEBDXZ 00000001800462c0 f   PlugInUtilities:TypeConverter.obj
 0001:000452d0       ??$toString@V?$vector@PEAV?$EnumWrapper@W4LatLonStyleEnum@@@@V?$allocator@PEAV?$EnumWrapper@W4LatLonStyleEnum@@@@@std@@@std@@@TypeConverter@@YAPEBDXZ 00000001800462d0 f   PlugInUtilities:TypeConverter.obj
 0001:000452e0       ??$toString@V?$vector@V?$EnumWrapper@W4LatLonStyleEnum@@@@V?$allocator@V?$EnumWrapper@W4LatLonStyleEnum@@@@@std@@@std@@@TypeConverter@@YAPEBDXZ 00000001800462e0 f   PlugInUtilities:TypeConverter.obj
 0001:000452f0       ??$toString@V?$EnumWrapper@W4LayerTypeEnum@@@@@TypeConverter@@YAPEBDXZ 00000001800462f0 f   PlugInUtilities:TypeConverter.obj
 0001:00045300       ??$toString@V?$vector@PEAV?$EnumWrapper@W4LayerTypeEnum@@@@V?$allocator@PEAV?$EnumWrapper@W4LayerTypeEnum@@@@@std@@@std@@@TypeConverter@@YAPEBDXZ 0000000180046300 f   PlugInUtilities:TypeConverter.obj
 0001:00045310       ??$toString@V?$vector@V?$EnumWrapper@W4LayerTypeEnum@@@@V?$allocator@V?$EnumWrapper@W4LayerTypeEnum@@@@@std@@@std@@@TypeConverter@@YAPEBDXZ 0000000180046310 f   PlugInUtilities:TypeConverter.obj
 0001:00045320       ??$toString@V?$EnumWrapper@W4LineStyleEnum@@@@@TypeConverter@@YAPEBDXZ 0000000180046320 f   PlugInUtilities:TypeConverter.obj
 0001:00045330       ??$toString@V?$vector@PEAV?$EnumWrapper@W4LineStyleEnum@@@@V?$allocator@PEAV?$EnumWrapper@W4LineStyleEnum@@@@@std@@@std@@@TypeConverter@@YAPEBDXZ 0000000180046330 f   PlugInUtilities:TypeConverter.obj
 0001:00045340       ??$toString@V?$vector@V?$EnumWrapper@W4LineStyleEnum@@@@V?$allocator@V?$EnumWrapper@W4LineStyleEnum@@@@@std@@@std@@@TypeConverter@@YAPEBDXZ 0000000180046340 f   PlugInUtilities:TypeConverter.obj
 0001:00045350       ??$toString@V?$EnumWrapper@W4LinkTypeEnum@@@@@TypeConverter@@YAPEBDXZ 0000000180046350 f   PlugInUtilities:TypeConverter.obj
 0001:00045360       ??$toString@V?$vector@PEAV?$EnumWrapper@W4LinkTypeEnum@@@@V?$allocator@PEAV?$EnumWrapper@W4LinkTypeEnum@@@@@std@@@std@@@TypeConverter@@YAPEBDXZ 0000000180046360 f   PlugInUtilities:TypeConverter.obj
 0001:00045370       ??$toString@V?$vector@V?$EnumWrapper@W4LinkTypeEnum@@@@V?$allocator@V?$EnumWrapper@W4LinkTypeEnum@@@@@std@@@std@@@TypeConverter@@YAPEBDXZ 0000000180046370 f   PlugInUtilities:TypeConverter.obj
 0001:00045380       ??$toString@V?$EnumWrapper@W4PanLimitTypeEnum@@@@@TypeConverter@@YAPEBDXZ 0000000180046380 f   PlugInUtilities:TypeConverter.obj
 0001:00045390       ??$toString@V?$vector@PEAV?$EnumWrapper@W4PanLimitTypeEnum@@@@V?$allocator@PEAV?$EnumWrapper@W4PanLimitTypeEnum@@@@@std@@@std@@@TypeConverter@@YAPEBDXZ 0000000180046390 f   PlugInUtilities:TypeConverter.obj
 0001:000453a0       ??$toString@V?$vector@V?$EnumWrapper@W4PanLimitTypeEnum@@@@V?$allocator@V?$EnumWrapper@W4PanLimitTypeEnum@@@@@std@@@std@@@TypeConverter@@YAPEBDXZ 00000001800463a0 f   PlugInUtilities:TypeConverter.obj
 0001:000453b0       ??$toString@V?$EnumWrapper@W4PassAreaEnum@@@@@TypeConverter@@YAPEBDXZ 00000001800463b0 f   PlugInUtilities:TypeConverter.obj
 0001:000453c0       ??$toString@V?$vector@PEAV?$EnumWrapper@W4PassAreaEnum@@@@V?$allocator@PEAV?$EnumWrapper@W4PassAreaEnum@@@@@std@@@std@@@TypeConverter@@YAPEBDXZ 00000001800463c0 f   PlugInUtilities:TypeConverter.obj
 0001:000453d0       ??$toString@V?$vector@V?$EnumWrapper@W4PassAreaEnum@@@@V?$allocator@V?$EnumWrapper@W4PassAreaEnum@@@@@std@@@std@@@TypeConverter@@YAPEBDXZ 00000001800463d0 f   PlugInUtilities:TypeConverter.obj
 0001:000453e0       ??$toString@V?$EnumWrapper@W4PlotObjectTypeEnum@@@@@TypeConverter@@YAPEBDXZ 00000001800463e0 f   PlugInUtilities:TypeConverter.obj
 0001:000453f0       ??$toString@V?$vector@PEAV?$EnumWrapper@W4PlotObjectTypeEnum@@@@V?$allocator@PEAV?$EnumWrapper@W4PlotObjectTypeEnum@@@@@std@@@std@@@TypeConverter@@YAPEBDXZ 00000001800463f0 f   PlugInUtilities:TypeConverter.obj
 0001:00045400       ??$toString@V?$vector@V?$EnumWrapper@W4PlotObjectTypeEnum@@@@V?$allocator@V?$EnumWrapper@W4PlotObjectTypeEnum@@@@@std@@@std@@@TypeConverter@@YAPEBDXZ 0000000180046400 f   PlugInUtilities:TypeConverter.obj
 0001:00045410       ??$toString@V?$EnumWrapper@W4PointSymbolTypeEnum@Point@@@@@TypeConverter@@YAPEBDXZ 0000000180046410 f   PlugInUtilities:TypeConverter.obj
 0001:00045420       ??$toString@V?$vector@PEAV?$EnumWrapper@W4PointSymbolTypeEnum@Point@@@@V?$allocator@PEAV?$EnumWrapper@W4PointSymbolTypeEnum@Point@@@@@std@@@std@@@TypeConverter@@YAPEBDXZ 0000000180046420 f   PlugInUtilities:TypeConverter.obj
 0001:00045430       ??$toString@V?$vector@V?$EnumWrapper@W4PointSymbolTypeEnum@Point@@@@V?$allocator@V?$EnumWrapper@W4PointSymbolTypeEnum@Point@@@@@std@@@std@@@TypeConverter@@YAPEBDXZ 0000000180046430 f   PlugInUtilities:TypeConverter.obj
 0001:00045440       ??$toString@V?$EnumWrapper@W4PositionTypeEnum@@@@@TypeConverter@@YAPEBDXZ 0000000180046440 f   PlugInUtilities:TypeConverter.obj
 0001:00045450       ??$toString@V?$vector@PEAV?$EnumWrapper@W4PositionTypeEnum@@@@V?$allocator@PEAV?$EnumWrapper@W4PositionTypeEnum@@@@@std@@@std@@@TypeConverter@@YAPEBDXZ 0000000180046450 f   PlugInUtilities:TypeConverter.obj
 0001:00045460       ??$toString@V?$vector@V?$EnumWrapper@W4PositionTypeEnum@@@@V?$allocator@V?$EnumWrapper@W4PositionTypeEnum@@@@@std@@@std@@@TypeConverter@@YAPEBDXZ 0000000180046460 f   PlugInUtilities:TypeConverter.obj
 0001:00045470       ??$toString@V?$EnumWrapper@W4ProcessingLocationEnum@@@@@TypeConverter@@YAPEBDXZ 0000000180046470 f   PlugInUtilities:TypeConverter.obj
 0001:00045480       ??$toString@V?$vector@PEAV?$EnumWrapper@W4ProcessingLocationEnum@@@@V?$allocator@PEAV?$EnumWrapper@W4ProcessingLocationEnum@@@@@std@@@std@@@TypeConverter@@YAPEBDXZ 0000000180046480 f   PlugInUtilities:TypeConverter.obj
 0001:00045490       ??$toString@V?$vector@V?$EnumWrapper@W4ProcessingLocationEnum@@@@V?$allocator@V?$EnumWrapper@W4ProcessingLocationEnum@@@@@std@@@std@@@TypeConverter@@YAPEBDXZ 0000000180046490 f   PlugInUtilities:TypeConverter.obj
 0001:000454a0       ??$toString@V?$EnumWrapper@W4SessionSaveTypeEnum@@@@@TypeConverter@@YAPEBDXZ 00000001800464a0 f   PlugInUtilities:TypeConverter.obj
 0001:000454b0       ??$toString@V?$vector@PEAV?$EnumWrapper@W4SessionSaveTypeEnum@@@@V?$allocator@PEAV?$EnumWrapper@W4SessionSaveTypeEnum@@@@@std@@@std@@@TypeConverter@@YAPEBDXZ 00000001800464b0 f   PlugInUtilities:TypeConverter.obj
 0001:000454c0       ??$toString@V?$vector@V?$EnumWrapper@W4SessionSaveTypeEnum@@@@V?$allocator@V?$EnumWrapper@W4SessionSaveTypeEnum@@@@@std@@@std@@@TypeConverter@@YAPEBDXZ 00000001800464c0 f   PlugInUtilities:TypeConverter.obj
 0001:000454d0       ??$toString@V?$EnumWrapper@W4RasterChannelTypeEnum@@@@@TypeConverter@@YAPEBDXZ 00000001800464d0 f   PlugInUtilities:TypeConverter.obj
 0001:000454e0       ??$toString@V?$vector@PEAV?$EnumWrapper@W4RasterChannelTypeEnum@@@@V?$allocator@PEAV?$EnumWrapper@W4RasterChannelTypeEnum@@@@@std@@@std@@@TypeConverter@@YAPEBDXZ 00000001800464e0 f   PlugInUtilities:TypeConverter.obj
 0001:000454f0       ??$toString@V?$vector@V?$EnumWrapper@W4RasterChannelTypeEnum@@@@V?$allocator@V?$EnumWrapper@W4RasterChannelTypeEnum@@@@@std@@@std@@@TypeConverter@@YAPEBDXZ 00000001800464f0 f   PlugInUtilities:TypeConverter.obj
 0001:00045500       ??$toString@V?$EnumWrapper@W4ReleaseTypeEnum@@@@@TypeConverter@@YAPEBDXZ 0000000180046500 f   PlugInUtilities:TypeConverter.obj
 0001:00045510       ??$toString@V?$vector@PEAV?$EnumWrapper@W4ReleaseTypeEnum@@@@V?$allocator@PEAV?$EnumWrapper@W4ReleaseTypeEnum@@@@@std@@@std@@@TypeConverter@@YAPEBDXZ 0000000180046510 f   PlugInUtilities:TypeConverter.obj
 0001:00045520       ??$toString@V?$vector@V?$EnumWrapper@W4ReleaseTypeEnum@@@@V?$allocator@V?$EnumWrapper@W4ReleaseTypeEnum@@@@@std@@@std@@@TypeConverter@@YAPEBDXZ 0000000180046520 f   PlugInUtilities:TypeConverter.obj
 0001:00045530       ??$toString@V?$EnumWrapper@W4StretchTypeEnum@@@@@TypeConverter@@YAPEBDXZ 0000000180046530 f   PlugInUtilities:TypeConverter.obj
 0001:00045540       ??$toString@V?$vector@PEAV?$EnumWrapper@W4StretchTypeEnum@@@@V?$allocator@PEAV?$EnumWrapper@W4StretchTypeEnum@@@@@std@@@std@@@TypeConverter@@YAPEBDXZ 0000000180046540 f   PlugInUtilities:TypeConverter.obj
 0001:00045550       ??$toString@V?$vector@V?$EnumWrapper@W4StretchTypeEnum@@@@V?$allocator@V?$EnumWrapper@W4StretchTypeEnum@@@@@std@@@std@@@TypeConverter@@YAPEBDXZ 0000000180046550 f   PlugInUtilities:TypeConverter.obj
 0001:00045560       ??$toString@V?$EnumWrapper@W4SymbolTypeEnum@@@@@TypeConverter@@YAPEBDXZ 0000000180046560 f   PlugInUtilities:TypeConverter.obj
 0001:00045570       ??$toString@V?$vector@PEAV?$EnumWrapper@W4SymbolTypeEnum@@@@V?$allocator@PEAV?$EnumWrapper@W4SymbolTypeEnum@@@@@std@@@std@@@TypeConverter@@YAPEBDXZ 0000000180046570 f   PlugInUtilities:TypeConverter.obj
 0001:00045580       ??$toString@V?$vector@V?$EnumWrapper@W4SymbolTypeEnum@@@@V?$allocator@V?$EnumWrapper@W4SymbolTypeEnum@@@@@std@@@std@@@TypeConverter@@YAPEBDXZ 0000000180046580 f   PlugInUtilities:TypeConverter.obj
 0001:00045590       ??$toString@V?$EnumWrapper@W4RegionUnitsEnum@@@@@TypeConverter@@YAPEBDXZ 0000000180046590 f   PlugInUtilities:TypeConverter.obj
 0001:000455a0       ??$toString@V?$vector@PEAV?$EnumWrapper@W4RegionUnitsEnum@@@@V?$allocator@PEAV?$EnumWrapper@W4RegionUnitsEnum@@@@@std@@@std@@@TypeConverter@@YAPEBDXZ 00000001800465a0 f   PlugInUtilities:TypeConverter.obj
 0001:000455b0       ??$toString@V?$vector@V?$EnumWrapper@W4RegionUnitsEnum@@@@V?$allocator@V?$EnumWrapper@W4RegionUnitsEnum@@@@@std@@@std@@@TypeConverter@@YAPEBDXZ 00000001800465b0 f   PlugInUtilities:TypeConverter.obj
 0001:000455c0       ??$toString@V?$EnumWrapper@W4UnitSystemEnum@@@@@TypeConverter@@YAPEBDXZ 00000001800465c0 f   PlugInUtilities:TypeConverter.obj
 0001:000455d0       ??$toString@V?$vector@PEAV?$EnumWrapper@W4UnitSystemEnum@@@@V?$allocator@PEAV?$EnumWrapper@W4UnitSystemEnum@@@@@std@@@std@@@TypeConverter@@YAPEBDXZ 00000001800465d0 f   PlugInUtilities:TypeConverter.obj
 0001:000455e0       ??$toString@V?$vector@V?$EnumWrapper@W4UnitSystemEnum@@@@V?$allocator@V?$EnumWrapper@W4UnitSystemEnum@@@@@std@@@std@@@TypeConverter@@YAPEBDXZ 00000001800465e0 f   PlugInUtilities:TypeConverter.obj
 0001:000455f0       ??$toString@V?$EnumWrapper@W4UnitTypeEnum@@@@@TypeConverter@@YAPEBDXZ 00000001800465f0 f   PlugInUtilities:TypeConverter.obj
 0001:00045600       ??$toString@V?$vector@PEAV?$EnumWrapper@W4UnitTypeEnum@@@@V?$allocator@PEAV?$EnumWrapper@W4UnitTypeEnum@@@@@std@@@std@@@TypeConverter@@YAPEBDXZ 0000000180046600 f   PlugInUtilities:TypeConverter.obj
 0001:00045610       ??$toString@V?$vector@V?$EnumWrapper@W4UnitTypeEnum@@@@V?$allocator@V?$EnumWrapper@W4UnitTypeEnum@@@@@std@@@std@@@TypeConverter@@YAPEBDXZ 0000000180046610 f   PlugInUtilities:TypeConverter.obj
 0001:00045620       ??$toString@V?$EnumWrapper@W4WavelengthUnitsTypeEnum@@@@@TypeConverter@@YAPEBDXZ 0000000180046620 f   PlugInUtilities:TypeConverter.obj
 0001:00045630       ??$toString@V?$vector@PEAV?$EnumWrapper@W4WavelengthUnitsTypeEnum@@@@V?$allocator@PEAV?$EnumWrapper@W4WavelengthUnitsTypeEnum@@@@@std@@@std@@@TypeConverter@@YAPEBDXZ 0000000180046630 f   PlugInUtilities:TypeConverter.obj
 0001:00045640       ??$toString@V?$vector@V?$EnumWrapper@W4WavelengthUnitsTypeEnum@@@@V?$allocator@V?$EnumWrapper@W4WavelengthUnitsTypeEnum@@@@@std@@@std@@@TypeConverter@@YAPEBDXZ 0000000180046640 f   PlugInUtilities:TypeConverter.obj
 0001:00045650       ??$toString@V?$EnumWrapper@W4WindowSizeTypeEnum@@@@@TypeConverter@@YAPEBDXZ 0000000180046650 f   PlugInUtilities:TypeConverter.obj
 0001:00045660       ??$toString@V?$vector@PEAV?$EnumWrapper@W4WindowSizeTypeEnum@@@@V?$allocator@PEAV?$EnumWrapper@W4WindowSizeTypeEnum@@@@@std@@@std@@@TypeConverter@@YAPEBDXZ 0000000180046660 f   PlugInUtilities:TypeConverter.obj
 0001:00045670       ??$toString@V?$vector@V?$EnumWrapper@W4WindowSizeTypeEnum@@@@V?$allocator@V?$EnumWrapper@W4WindowSizeTypeEnum@@@@@std@@@std@@@TypeConverter@@YAPEBDXZ 0000000180046670 f   PlugInUtilities:TypeConverter.obj
 0001:00045680       ??$toString@V?$EnumWrapper@W4WindowTypeEnum@@@@@TypeConverter@@YAPEBDXZ 0000000180046680 f   PlugInUtilities:TypeConverter.obj
 0001:00045690       ??$toString@V?$vector@PEAV?$EnumWrapper@W4WindowTypeEnum@@@@V?$allocator@PEAV?$EnumWrapper@W4WindowTypeEnum@@@@@std@@@std@@@TypeConverter@@YAPEBDXZ 0000000180046690 f   PlugInUtilities:TypeConverter.obj
 0001:000456a0       ??$toString@V?$vector@V?$EnumWrapper@W4WindowTypeEnum@@@@V?$allocator@V?$EnumWrapper@W4WindowTypeEnum@@@@@std@@@std@@@TypeConverter@@YAPEBDXZ 00000001800466a0 f   PlugInUtilities:TypeConverter.obj
 0001:000456b0       ??$toString@VAebInstallTransaction@@@TypeConverter@@YAPEBDXZ 00000001800466b0 f   PlugInUtilities:TypeConverter.obj
 0001:000456c0       ??$toString@V?$vector@PEAVAebInstallTransaction@@V?$allocator@PEAVAebInstallTransaction@@@std@@@std@@@TypeConverter@@YAPEBDXZ 00000001800466c0 f   PlugInUtilities:TypeConverter.obj
 0001:000456d0       ??$toString@V?$vector@VAebInstallTransaction@@V?$allocator@VAebInstallTransaction@@@std@@@std@@@TypeConverter@@YAPEBDXZ 00000001800466d0 f   PlugInUtilities:TypeConverter.obj
 0001:000456e0       ??$toString@PEAVAebInstallTransaction@@@TypeConverter@@YAPEBDXZ 00000001800466e0 f   PlugInUtilities:TypeConverter.obj
 0001:000456f0       ??$toString@VApplicationWindow@@@TypeConverter@@YAPEBDXZ 00000001800466f0 f   PlugInUtilities:TypeConverter.obj
 0001:00045700       ??$toString@V?$vector@PEAVApplicationWindow@@V?$allocator@PEAVApplicationWindow@@@std@@@std@@@TypeConverter@@YAPEBDXZ 0000000180046700 f   PlugInUtilities:TypeConverter.obj
 0001:00045710       ??$toString@V?$vector@VApplicationWindow@@V?$allocator@VApplicationWindow@@@std@@@std@@@TypeConverter@@YAPEBDXZ 0000000180046710 f   PlugInUtilities:TypeConverter.obj
 0001:00045720       ??$toString@PEAVApplicationWindow@@@TypeConverter@@YAPEBDXZ 0000000180046720 f   PlugInUtilities:TypeConverter.obj
 0001:00045730       ??$toString@VAnimation@@@TypeConverter@@YAPEBDXZ 0000000180046730 f   PlugInUtilities:TypeConverter.obj
 0001:00045740       ??$toString@V?$vector@PEAVAnimation@@V?$allocator@PEAVAnimation@@@std@@@std@@@TypeConverter@@YAPEBDXZ 0000000180046740 f   PlugInUtilities:TypeConverter.obj
 0001:00045750       ??$toString@V?$vector@VAnimation@@V?$allocator@VAnimation@@@std@@@std@@@TypeConverter@@YAPEBDXZ 0000000180046750 f   PlugInUtilities:TypeConverter.obj
 0001:00045760       ??$toString@PEAVAnimation@@@TypeConverter@@YAPEBDXZ 0000000180046760 f   PlugInUtilities:TypeConverter.obj
 0001:00045770       ??$toString@VAnimationController@@@TypeConverter@@YAPEBDXZ 0000000180046770 f   PlugInUtilities:TypeConverter.obj
 0001:00045780       ??$toString@V?$vector@PEAVAnimationController@@V?$allocator@PEAVAnimationController@@@std@@@std@@@TypeConverter@@YAPEBDXZ 0000000180046780 f   PlugInUtilities:TypeConverter.obj
 0001:00045790       ??$toString@V?$vector@VAnimationController@@V?$allocator@VAnimationController@@@std@@@std@@@TypeConverter@@YAPEBDXZ 0000000180046790 f   PlugInUtilities:TypeConverter.obj
 0001:000457a0       ??$toString@PEAVAnimationController@@@TypeConverter@@YAPEBDXZ 00000001800467a0 f   PlugInUtilities:TypeConverter.obj
 0001:000457b0       ??$toString@VAnnotationElement@@@TypeConverter@@YAPEBDXZ 00000001800467b0 f   PlugInUtilities:TypeConverter.obj
 0001:000457c0       ??$toString@V?$vector@PEAVAnnotationElement@@V?$allocator@PEAVAnnotationElement@@@std@@@std@@@TypeConverter@@YAPEBDXZ 00000001800467c0 f   PlugInUtilities:TypeConverter.obj
 0001:000457d0       ??$toString@V?$vector@VAnnotationElement@@V?$allocator@VAnnotationElement@@@std@@@std@@@TypeConverter@@YAPEBDXZ 00000001800467d0 f   PlugInUtilities:TypeConverter.obj
 0001:000457e0       ??$toString@PEAVAnnotationElement@@@TypeConverter@@YAPEBDXZ 00000001800467e0 f   PlugInUtilities:TypeConverter.obj
 0001:000457f0       ??$toString@VAnnotationLayer@@@TypeConverter@@YAPEBDXZ 00000001800467f0 f   PlugInUtilities:TypeConverter.obj
 0001:00045800       ??$toString@V?$vector@PEAVAnnotationLayer@@V?$allocator@PEAVAnnotationLayer@@@std@@@std@@@TypeConverter@@YAPEBDXZ 0000000180046800 f   PlugInUtilities:TypeConverter.obj
 0001:00045810       ??$toString@V?$vector@VAnnotationLayer@@V?$allocator@VAnnotationLayer@@@std@@@std@@@TypeConverter@@YAPEBDXZ 0000000180046810 f   PlugInUtilities:TypeConverter.obj
 0001:00045820       ??$toString@PEAVAnnotationLayer@@@TypeConverter@@YAPEBDXZ 0000000180046820 f   PlugInUtilities:TypeConverter.obj
 0001:00045830       ??$toString@VAny@@@TypeConverter@@YAPEBDXZ 0000000180046830 f   PlugInUtilities:TypeConverter.obj
 0001:00045840       ??$toString@V?$vector@PEAVAny@@V?$allocator@PEAVAny@@@std@@@std@@@TypeConverter@@YAPEBDXZ 0000000180046840 f   PlugInUtilities:TypeConverter.obj
 0001:00045850       ??$toString@V?$vector@VAny@@V?$allocator@VAny@@@std@@@std@@@TypeConverter@@YAPEBDXZ 0000000180046850 f   PlugInUtilities:TypeConverter.obj
 0001:00045860       ??$toString@PEAVAny@@@TypeConverter@@YAPEBDXZ 0000000180046860 f   PlugInUtilities:TypeConverter.obj
 0001:00045870       ??$toString@VAoiElement@@@TypeConverter@@YAPEBDXZ 0000000180046870 f   PlugInUtilities:TypeConverter.obj
 0001:00045880       ??$toString@V?$vector@PEAVAoiElement@@V?$allocator@PEAVAoiElement@@@std@@@std@@@TypeConverter@@YAPEBDXZ 0000000180046880 f   PlugInUtilities:TypeConverter.obj
 0001:00045890       ??$toString@V?$vector@VAoiElement@@V?$allocator@VAoiElement@@@std@@@std@@@TypeConverter@@YAPEBDXZ 0000000180046890 f   PlugInUtilities:TypeConverter.obj
 0001:000458a0       ??$toString@PEAVAoiElement@@@TypeConverter@@YAPEBDXZ 00000001800468a0 f   PlugInUtilities:TypeConverter.obj
 0001:000458b0       ??$toString@VAoiLayer@@@TypeConverter@@YAPEBDXZ 00000001800468b0 f   PlugInUtilities:TypeConverter.obj
 0001:000458c0       ??$toString@V?$vector@PEAVAoiLayer@@V?$allocator@PEAVAoiLayer@@@std@@@std@@@TypeConverter@@YAPEBDXZ 00000001800468c0 f   PlugInUtilities:TypeConverter.obj
 0001:000458d0       ??$toString@V?$vector@VAoiLayer@@V?$allocator@VAoiLayer@@@std@@@std@@@TypeConverter@@YAPEBDXZ 00000001800468d0 f   PlugInUtilities:TypeConverter.obj
 0001:000458e0       ??$toString@PEAVAoiLayer@@@TypeConverter@@YAPEBDXZ 00000001800468e0 f   PlugInUtilities:TypeConverter.obj
 0001:000458f0       ??$toString@VBadValues@@@TypeConverter@@YAPEBDXZ 00000001800468f0 f   PlugInUtilities:TypeConverter.obj
 0001:00045900       ??$toString@V?$vector@PEAVBadValues@@V?$allocator@PEAVBadValues@@@std@@@std@@@TypeConverter@@YAPEBDXZ 0000000180046900 f   PlugInUtilities:TypeConverter.obj
 0001:00045910       ??$toString@V?$vector@VBadValues@@V?$allocator@VBadValues@@@std@@@std@@@TypeConverter@@YAPEBDXZ 0000000180046910 f   PlugInUtilities:TypeConverter.obj
 0001:00045920       ??$toString@PEAVBadValues@@@TypeConverter@@YAPEBDXZ 0000000180046920 f   PlugInUtilities:TypeConverter.obj
 0001:00045930       ??$toString@VBitMask@@@TypeConverter@@YAPEBDXZ 0000000180046930 f   PlugInUtilities:TypeConverter.obj
 0001:00045940       ??$toString@V?$vector@PEAVBitMask@@V?$allocator@PEAVBitMask@@@std@@@std@@@TypeConverter@@YAPEBDXZ 0000000180046940 f   PlugInUtilities:TypeConverter.obj
 0001:00045950       ??$toString@V?$vector@VBitMask@@V?$allocator@VBitMask@@@std@@@std@@@TypeConverter@@YAPEBDXZ 0000000180046950 f   PlugInUtilities:TypeConverter.obj
 0001:00045960       ??$toString@PEAVBitMask@@@TypeConverter@@YAPEBDXZ 0000000180046960 f   PlugInUtilities:TypeConverter.obj
 0001:00045970       ??$toString@VBlob@@@TypeConverter@@YAPEBDXZ 0000000180046970 f   PlugInUtilities:TypeConverter.obj
 0001:00045980       ??$toString@V?$vector@PEAVBlob@@V?$allocator@PEAVBlob@@@std@@@std@@@TypeConverter@@YAPEBDXZ 0000000180046980 f   PlugInUtilities:TypeConverter.obj
 0001:00045990       ??$toString@V?$vector@VBlob@@V?$allocator@VBlob@@@std@@@std@@@TypeConverter@@YAPEBDXZ 0000000180046990 f   PlugInUtilities:TypeConverter.obj
 0001:000459a0       ??$toString@PEAVBlob@@@TypeConverter@@YAPEBDXZ 00000001800469a0 f   PlugInUtilities:TypeConverter.obj
 0001:000459b0       ??$toString@VCartesianPlot@@@TypeConverter@@YAPEBDXZ 00000001800469b0 f   PlugInUtilities:TypeConverter.obj
 0001:000459c0       ??$toString@V?$vector@PEAVCartesianPlot@@V?$allocator@PEAVCartesianPlot@@@std@@@std@@@TypeConverter@@YAPEBDXZ 00000001800469c0 f   PlugInUtilities:TypeConverter.obj
 0001:000459d0       ??$toString@V?$vector@VCartesianPlot@@V?$allocator@VCartesianPlot@@@std@@@std@@@TypeConverter@@YAPEBDXZ 00000001800469d0 f   PlugInUtilities:TypeConverter.obj
 0001:000459e0       ??$toString@PEAVCartesianPlot@@@TypeConverter@@YAPEBDXZ 00000001800469e0 f   PlugInUtilities:TypeConverter.obj
 0001:000459f0       ??$toString@VClassification@@@TypeConverter@@YAPEBDXZ 00000001800469f0 f   PlugInUtilities:TypeConverter.obj
 0001:00045a00       ??$toString@V?$vector@PEAVClassification@@V?$allocator@PEAVClassification@@@std@@@std@@@TypeConverter@@YAPEBDXZ 0000000180046a00 f   PlugInUtilities:TypeConverter.obj
 0001:00045a10       ??$toString@V?$vector@VClassification@@V?$allocator@VClassification@@@std@@@std@@@TypeConverter@@YAPEBDXZ 0000000180046a10 f   PlugInUtilities:TypeConverter.obj
 0001:00045a20       ??$toString@PEAVClassification@@@TypeConverter@@YAPEBDXZ 0000000180046a20 f   PlugInUtilities:TypeConverter.obj
 0001:00045a30       ??$toString@VClassificationLayer@@@TypeConverter@@YAPEBDXZ 0000000180046a30 f   PlugInUtilities:TypeConverter.obj
 0001:00045a40       ??$toString@V?$vector@PEAVClassificationLayer@@V?$allocator@PEAVClassificationLayer@@@std@@@std@@@TypeConverter@@YAPEBDXZ 0000000180046a40 f   PlugInUtilities:TypeConverter.obj
 0001:00045a50       ??$toString@V?$vector@VClassificationLayer@@V?$allocator@VClassificationLayer@@@std@@@std@@@TypeConverter@@YAPEBDXZ 0000000180046a50 f   PlugInUtilities:TypeConverter.obj
 0001:00045a60       ??$toString@PEAVClassificationLayer@@@TypeConverter@@YAPEBDXZ 0000000180046a60 f   PlugInUtilities:TypeConverter.obj
 0001:00045a70       ??$toString@VColorType@@@TypeConverter@@YAPEBDXZ 0000000180046a70 f   PlugInUtilities:TypeConverter.obj
 0001:00045a80       ??$toString@V?$vector@PEAVColorType@@V?$allocator@PEAVColorType@@@std@@@std@@@TypeConverter@@YAPEBDXZ 0000000180046a80 f   PlugInUtilities:TypeConverter.obj
 0001:00045a90       ??$toString@V?$vector@VColorType@@V?$allocator@VColorType@@@std@@@std@@@TypeConverter@@YAPEBDXZ 0000000180046a90 f   PlugInUtilities:TypeConverter.obj
 0001:00045aa0       ??$toString@PEAVColorType@@@TypeConverter@@YAPEBDXZ 0000000180046aa0 f   PlugInUtilities:TypeConverter.obj
 0001:00045ab0       ??$toString@VCustomLayer@@@TypeConverter@@YAPEBDXZ 0000000180046ab0 f   PlugInUtilities:TypeConverter.obj
 0001:00045ac0       ??$toString@V?$vector@PEAVCustomLayer@@V?$allocator@PEAVCustomLayer@@@std@@@std@@@TypeConverter@@YAPEBDXZ 0000000180046ac0 f   PlugInUtilities:TypeConverter.obj
 0001:00045ad0       ??$toString@V?$vector@VCustomLayer@@V?$allocator@VCustomLayer@@@std@@@std@@@TypeConverter@@YAPEBDXZ 0000000180046ad0 f   PlugInUtilities:TypeConverter.obj
 0001:00045ae0       ??$toString@PEAVCustomLayer@@@TypeConverter@@YAPEBDXZ 0000000180046ae0 f   PlugInUtilities:TypeConverter.obj
 0001:00045af0       ??$toString@VDataDescriptor@@@TypeConverter@@YAPEBDXZ 0000000180046af0 f   PlugInUtilities:TypeConverter.obj
 0001:00045b00       ??$toString@V?$vector@PEAVDataDescriptor@@V?$allocator@PEAVDataDescriptor@@@std@@@std@@@TypeConverter@@YAPEBDXZ 0000000180046b00 f   PlugInUtilities:TypeConverter.obj
 0001:00045b10       ??$toString@V?$vector@VDataDescriptor@@V?$allocator@VDataDescriptor@@@std@@@std@@@TypeConverter@@YAPEBDXZ 0000000180046b10 f   PlugInUtilities:TypeConverter.obj
 0001:00045b20       ??$toString@PEAVDataDescriptor@@@TypeConverter@@YAPEBDXZ 0000000180046b20 f   PlugInUtilities:TypeConverter.obj
 0001:00045b30       ??$toString@VDataElement@@@TypeConverter@@YAPEBDXZ 0000000180046b30 f   PlugInUtilities:TypeConverter.obj
 0001:00045b40       ??$toString@V?$vector@PEAVDataElement@@V?$allocator@PEAVDataElement@@@std@@@std@@@TypeConverter@@YAPEBDXZ 0000000180046b40 f   PlugInUtilities:TypeConverter.obj
 0001:00045b50       ??$toString@V?$vector@VDataElement@@V?$allocator@VDataElement@@@std@@@std@@@TypeConverter@@YAPEBDXZ 0000000180046b50 f   PlugInUtilities:TypeConverter.obj
 0001:00045b60       ??$toString@PEAVDataElement@@@TypeConverter@@YAPEBDXZ 0000000180046b60 f   PlugInUtilities:TypeConverter.obj
 0001:00045b70       ??$toString@VDataElementGroup@@@TypeConverter@@YAPEBDXZ 0000000180046b70 f   PlugInUtilities:TypeConverter.obj
 0001:00045b80       ??$toString@V?$vector@PEAVDataElementGroup@@V?$allocator@PEAVDataElementGroup@@@std@@@std@@@TypeConverter@@YAPEBDXZ 0000000180046b80 f   PlugInUtilities:TypeConverter.obj
 0001:00045b90       ??$toString@V?$vector@VDataElementGroup@@V?$allocator@VDataElementGroup@@@std@@@std@@@TypeConverter@@YAPEBDXZ 0000000180046b90 f   PlugInUtilities:TypeConverter.obj
 0001:00045ba0       ??$toString@PEAVDataElementGroup@@@TypeConverter@@YAPEBDXZ 0000000180046ba0 f   PlugInUtilities:TypeConverter.obj
 0001:00045bb0       ??$toString@VDataRequest@@@TypeConverter@@YAPEBDXZ 0000000180046bb0 f   PlugInUtilities:TypeConverter.obj
 0001:00045bc0       ??$toString@V?$vector@PEAVDataRequest@@V?$allocator@PEAVDataRequest@@@std@@@std@@@TypeConverter@@YAPEBDXZ 0000000180046bc0 f   PlugInUtilities:TypeConverter.obj
 0001:00045bd0       ??$toString@V?$vector@VDataRequest@@V?$allocator@VDataRequest@@@std@@@std@@@TypeConverter@@YAPEBDXZ 0000000180046bd0 f   PlugInUtilities:TypeConverter.obj
 0001:00045be0       ??$toString@PEAVDataRequest@@@TypeConverter@@YAPEBDXZ 0000000180046be0 f   PlugInUtilities:TypeConverter.obj
 0001:00045bf0       ??$toString@VDataVariantAnyData@@@TypeConverter@@YAPEBDXZ 0000000180046bf0 f   PlugInUtilities:TypeConverter.obj
 0001:00045c00       ??$toString@V?$vector@PEAVDataVariantAnyData@@V?$allocator@PEAVDataVariantAnyData@@@std@@@std@@@TypeConverter@@YAPEBDXZ 0000000180046c00 f   PlugInUtilities:TypeConverter.obj
 0001:00045c10       ??$toString@V?$vector@VDataVariantAnyData@@V?$allocator@VDataVariantAnyData@@@std@@@std@@@TypeConverter@@YAPEBDXZ 0000000180046c10 f   PlugInUtilities:TypeConverter.obj
 0001:00045c20       ??$toString@PEAVDataVariantAnyData@@@TypeConverter@@YAPEBDXZ 0000000180046c20 f   PlugInUtilities:TypeConverter.obj
 0001:00045c30       ??$toString@VDateTime@@@TypeConverter@@YAPEBDXZ 0000000180046c30 f   PlugInUtilities:TypeConverter.obj
 0001:00045c40       ??$toString@V?$vector@PEAVDateTime@@V?$allocator@PEAVDateTime@@@std@@@std@@@TypeConverter@@YAPEBDXZ 0000000180046c40 f   PlugInUtilities:TypeConverter.obj
 0001:00045c50       ??$toString@V?$vector@VDateTime@@V?$allocator@VDateTime@@@std@@@std@@@TypeConverter@@YAPEBDXZ 0000000180046c50 f   PlugInUtilities:TypeConverter.obj
 0001:00045c60       ??$toString@PEAVDateTime@@@TypeConverter@@YAPEBDXZ 0000000180046c60 f   PlugInUtilities:TypeConverter.obj
 0001:00045c70       ??$toString@VDimensionDescriptor@@@TypeConverter@@YAPEBDXZ 0000000180046c70 f   PlugInUtilities:TypeConverter.obj
 0001:00045c80       ??$toString@V?$vector@PEAVDimensionDescriptor@@V?$allocator@PEAVDimensionDescriptor@@@std@@@std@@@TypeConverter@@YAPEBDXZ 0000000180046c80 f   PlugInUtilities:TypeConverter.obj
 0001:00045c90       ??$toString@V?$vector@VDimensionDescriptor@@V?$allocator@VDimensionDescriptor@@@std@@@std@@@TypeConverter@@YAPEBDXZ 0000000180046c90 f   PlugInUtilities:TypeConverter.obj
 0001:00045ca0       ??$toString@PEAVDimensionDescriptor@@@TypeConverter@@YAPEBDXZ 0000000180046ca0 f   PlugInUtilities:TypeConverter.obj
 0001:00045cb0       ??$toString@VDynamicObject@@@TypeConverter@@YAPEBDXZ 0000000180046cb0 f   PlugInUtilities:TypeConverter.obj
 0001:00045cc0       ??$toString@V?$vector@PEAVDynamicObject@@V?$allocator@PEAVDynamicObject@@@std@@@std@@@TypeConverter@@YAPEBDXZ 0000000180046cc0 f   PlugInUtilities:TypeConverter.obj
 0001:00045cd0       ??$toString@V?$vector@VDynamicObject@@V?$allocator@VDynamicObject@@@std@@@std@@@TypeConverter@@YAPEBDXZ 0000000180046cd0 f   PlugInUtilities:TypeConverter.obj
 0001:00045ce0       ??$toString@PEAVDynamicObject@@@TypeConverter@@YAPEBDXZ 0000000180046ce0 f   PlugInUtilities:TypeConverter.obj
 0001:00045cf0       ??$toString@VExecutableAgent@@@TypeConverter@@YAPEBDXZ 0000000180046cf0 f   PlugInUtilities:TypeConverter.obj
 0001:00045d00       ??$toString@V?$vector@PEAVExecutableAgent@@V?$allocator@PEAVExecutableAgent@@@std@@@std@@@TypeConverter@@YAPEBDXZ 0000000180046d00 f   PlugInUtilities:TypeConverter.obj
 0001:00045d10       ??$toString@V?$vector@VExecutableAgent@@V?$allocator@VExecutableAgent@@@std@@@std@@@TypeConverter@@YAPEBDXZ 0000000180046d10 f   PlugInUtilities:TypeConverter.obj
 0001:00045d20       ??$toString@PEAVExecutableAgent@@@TypeConverter@@YAPEBDXZ 0000000180046d20 f   PlugInUtilities:TypeConverter.obj
 0001:00045d30       ??$toString@VExportAgent@@@TypeConverter@@YAPEBDXZ 0000000180046d30 f   PlugInUtilities:TypeConverter.obj
 0001:00045d40       ??$toString@V?$vector@PEAVExportAgent@@V?$allocator@PEAVExportAgent@@@std@@@std@@@TypeConverter@@YAPEBDXZ 0000000180046d40 f   PlugInUtilities:TypeConverter.obj
 0001:00045d50       ??$toString@V?$vector@VExportAgent@@V?$allocator@VExportAgent@@@std@@@std@@@TypeConverter@@YAPEBDXZ 0000000180046d50 f   PlugInUtilities:TypeConverter.obj
 0001:00045d60       ??$toString@PEAVExportAgent@@@TypeConverter@@YAPEBDXZ 0000000180046d60 f   PlugInUtilities:TypeConverter.obj
 0001:00045d70       ??$toString@VFileDescriptor@@@TypeConverter@@YAPEBDXZ 0000000180046d70 f   PlugInUtilities:TypeConverter.obj
 0001:00045d80       ??$toString@V?$vector@PEAVFileDescriptor@@V?$allocator@PEAVFileDescriptor@@@std@@@std@@@TypeConverter@@YAPEBDXZ 0000000180046d80 f   PlugInUtilities:TypeConverter.obj
 0001:00045d90       ??$toString@V?$vector@VFileDescriptor@@V?$allocator@VFileDescriptor@@@std@@@std@@@TypeConverter@@YAPEBDXZ 0000000180046d90 f   PlugInUtilities:TypeConverter.obj
 0001:00045da0       ??$toString@PEAVFileDescriptor@@@TypeConverter@@YAPEBDXZ 0000000180046da0 f   PlugInUtilities:TypeConverter.obj
 0001:00045db0       ??$toString@VFileFinder@@@TypeConverter@@YAPEBDXZ 0000000180046db0 f   PlugInUtilities:TypeConverter.obj
 0001:00045dc0       ??$toString@V?$vector@PEAVFileFinder@@V?$allocator@PEAVFileFinder@@@std@@@std@@@TypeConverter@@YAPEBDXZ 0000000180046dc0 f   PlugInUtilities:TypeConverter.obj
 0001:00045dd0       ??$toString@V?$vector@VFileFinder@@V?$allocator@VFileFinder@@@std@@@std@@@TypeConverter@@YAPEBDXZ 0000000180046dd0 f   PlugInUtilities:TypeConverter.obj
 0001:00045de0       ??$toString@PEAVFileFinder@@@TypeConverter@@YAPEBDXZ 0000000180046de0 f   PlugInUtilities:TypeConverter.obj
 0001:00045df0       ??$toString@VFilename@@@TypeConverter@@YAPEBDXZ 0000000180046df0 f   PlugInUtilities:TypeConverter.obj
 0001:00045e00       ??$toString@V?$vector@PEAVFilename@@V?$allocator@PEAVFilename@@@std@@@std@@@TypeConverter@@YAPEBDXZ 0000000180046e00 f   PlugInUtilities:TypeConverter.obj
 0001:00045e10       ??$toString@V?$vector@VFilename@@V?$allocator@VFilename@@@std@@@std@@@TypeConverter@@YAPEBDXZ 0000000180046e10 f   PlugInUtilities:TypeConverter.obj
 0001:00045e20       ??$toString@PEAVFilename@@@TypeConverter@@YAPEBDXZ 0000000180046e20 f   PlugInUtilities:TypeConverter.obj
 0001:00045e30       ??$toString@VFloatComplex@@@TypeConverter@@YAPEBDXZ 0000000180046e30 f   PlugInUtilities:TypeConverter.obj
 0001:00045e40       ??$toString@V?$vector@PEAVFloatComplex@@V?$allocator@PEAVFloatComplex@@@std@@@std@@@TypeConverter@@YAPEBDXZ 0000000180046e40 f   PlugInUtilities:TypeConverter.obj
 0001:00045e50       ??$toString@V?$vector@VFloatComplex@@V?$allocator@VFloatComplex@@@std@@@std@@@TypeConverter@@YAPEBDXZ 0000000180046e50 f   PlugInUtilities:TypeConverter.obj
 0001:00045e60       ??$toString@PEAVFloatComplex@@@TypeConverter@@YAPEBDXZ 0000000180046e60 f   PlugInUtilities:TypeConverter.obj
 0001:00045e70       ??$toString@VFont@@@TypeConverter@@YAPEBDXZ 0000000180046e70 f   PlugInUtilities:TypeConverter.obj
 0001:00045e80       ??$toString@V?$vector@PEAVFont@@V?$allocator@PEAVFont@@@std@@@std@@@TypeConverter@@YAPEBDXZ 0000000180046e80 f   PlugInUtilities:TypeConverter.obj
 0001:00045e90       ??$toString@V?$vector@VFont@@V?$allocator@VFont@@@std@@@std@@@TypeConverter@@YAPEBDXZ 0000000180046e90 f   PlugInUtilities:TypeConverter.obj
 0001:00045ea0       ??$toString@PEAVFont@@@TypeConverter@@YAPEBDXZ 0000000180046ea0 f   PlugInUtilities:TypeConverter.obj
 0001:00045eb0       ??$toString@VGcpLayer@@@TypeConverter@@YAPEBDXZ 0000000180046eb0 f   PlugInUtilities:TypeConverter.obj
 0001:00045ec0       ??$toString@V?$vector@PEAVGcpLayer@@V?$allocator@PEAVGcpLayer@@@std@@@std@@@TypeConverter@@YAPEBDXZ 0000000180046ec0 f   PlugInUtilities:TypeConverter.obj
 0001:00045ed0       ??$toString@V?$vector@VGcpLayer@@V?$allocator@VGcpLayer@@@std@@@std@@@TypeConverter@@YAPEBDXZ 0000000180046ed0 f   PlugInUtilities:TypeConverter.obj
 0001:00045ee0       ??$toString@PEAVGcpLayer@@@TypeConverter@@YAPEBDXZ 0000000180046ee0 f   PlugInUtilities:TypeConverter.obj
 0001:00045ef0       ??$toString@VGcpList@@@TypeConverter@@YAPEBDXZ 0000000180046ef0 f   PlugInUtilities:TypeConverter.obj
 0001:00045f00       ??$toString@V?$vector@PEAVGcpList@@V?$allocator@PEAVGcpList@@@std@@@std@@@TypeConverter@@YAPEBDXZ 0000000180046f00 f   PlugInUtilities:TypeConverter.obj
 0001:00045f10       ??$toString@V?$vector@VGcpList@@V?$allocator@VGcpList@@@std@@@std@@@TypeConverter@@YAPEBDXZ 0000000180046f10 f   PlugInUtilities:TypeConverter.obj
 0001:00045f20       ??$toString@PEAVGcpList@@@TypeConverter@@YAPEBDXZ 0000000180046f20 f   PlugInUtilities:TypeConverter.obj
 0001:00045f30       ??$toString@VGeoreferenceDescriptor@@@TypeConverter@@YAPEBDXZ 0000000180046f30 f   PlugInUtilities:TypeConverter.obj
 0001:00045f40       ??$toString@V?$vector@PEAVGeoreferenceDescriptor@@V?$allocator@PEAVGeoreferenceDescriptor@@@std@@@std@@@TypeConverter@@YAPEBDXZ 0000000180046f40 f   PlugInUtilities:TypeConverter.obj
 0001:00045f50       ??$toString@V?$vector@VGeoreferenceDescriptor@@V?$allocator@VGeoreferenceDescriptor@@@std@@@std@@@TypeConverter@@YAPEBDXZ 0000000180046f50 f   PlugInUtilities:TypeConverter.obj
 0001:00045f60       ??$toString@PEAVGeoreferenceDescriptor@@@TypeConverter@@YAPEBDXZ 0000000180046f60 f   PlugInUtilities:TypeConverter.obj
 0001:00045f70       ??$toString@VGraphicElement@@@TypeConverter@@YAPEBDXZ 0000000180046f70 f   PlugInUtilities:TypeConverter.obj
 0001:00045f80       ??$toString@V?$vector@PEAVGraphicElement@@V?$allocator@PEAVGraphicElement@@@std@@@std@@@TypeConverter@@YAPEBDXZ 0000000180046f80 f   PlugInUtilities:TypeConverter.obj
 0001:00045f90       ??$toString@V?$vector@VGraphicElement@@V?$allocator@VGraphicElement@@@std@@@std@@@TypeConverter@@YAPEBDXZ 0000000180046f90 f   PlugInUtilities:TypeConverter.obj
 0001:00045fa0       ??$toString@PEAVGraphicElement@@@TypeConverter@@YAPEBDXZ 0000000180046fa0 f   PlugInUtilities:TypeConverter.obj
 0001:00045fb0       ??$toString@VGraphicLayer@@@TypeConverter@@YAPEBDXZ 0000000180046fb0 f   PlugInUtilities:TypeConverter.obj
 0001:00045fc0       ??$toString@V?$vector@PEAVGraphicLayer@@V?$allocator@PEAVGraphicLayer@@@std@@@std@@@TypeConverter@@YAPEBDXZ 0000000180046fc0 f   PlugInUtilities:TypeConverter.obj
 0001:00045fd0       ??$toString@V?$vector@VGraphicLayer@@V?$allocator@VGraphicLayer@@@std@@@std@@@TypeConverter@@YAPEBDXZ 0000000180046fd0 f   PlugInUtilities:TypeConverter.obj
 0001:00045fe0       ??$toString@PEAVGraphicLayer@@@TypeConverter@@YAPEBDXZ 0000000180046fe0 f   PlugInUtilities:TypeConverter.obj
 0001:00045ff0       ??$toString@VHistogramPlot@@@TypeConverter@@YAPEBDXZ 0000000180046ff0 f   PlugInUtilities:TypeConverter.obj
 0001:00046000       ??$toString@V?$vector@PEAVHistogramPlot@@V?$allocator@PEAVHistogramPlot@@@std@@@std@@@TypeConverter@@YAPEBDXZ 0000000180047000 f   PlugInUtilities:TypeConverter.obj
 0001:00046010       ??$toString@V?$vector@VHistogramPlot@@V?$allocator@VHistogramPlot@@@std@@@std@@@TypeConverter@@YAPEBDXZ 0000000180047010 f   PlugInUtilities:TypeConverter.obj
 0001:00046020       ??$toString@PEAVHistogramPlot@@@TypeConverter@@YAPEBDXZ 0000000180047020 f   PlugInUtilities:TypeConverter.obj
 0001:00046030       ??$toString@VImportAgent@@@TypeConverter@@YAPEBDXZ 0000000180047030 f   PlugInUtilities:TypeConverter.obj
 0001:00046040       ??$toString@V?$vector@PEAVImportAgent@@V?$allocator@PEAVImportAgent@@@std@@@std@@@TypeConverter@@YAPEBDXZ 0000000180047040 f   PlugInUtilities:TypeConverter.obj
 0001:00046050       ??$toString@V?$vector@VImportAgent@@V?$allocator@VImportAgent@@@std@@@std@@@TypeConverter@@YAPEBDXZ 0000000180047050 f   PlugInUtilities:TypeConverter.obj
 0001:00046060       ??$toString@PEAVImportAgent@@@TypeConverter@@YAPEBDXZ 0000000180047060 f   PlugInUtilities:TypeConverter.obj
 0001:00046070       ??$toString@VIntegerComplex@@@TypeConverter@@YAPEBDXZ 0000000180047070 f   PlugInUtilities:TypeConverter.obj
 0001:00046080       ??$toString@V?$vector@PEAVIntegerComplex@@V?$allocator@PEAVIntegerComplex@@@std@@@std@@@TypeConverter@@YAPEBDXZ 0000000180047080 f   PlugInUtilities:TypeConverter.obj
 0001:00046090       ??$toString@V?$vector@VIntegerComplex@@V?$allocator@VIntegerComplex@@@std@@@std@@@TypeConverter@@YAPEBDXZ 0000000180047090 f   PlugInUtilities:TypeConverter.obj
 0001:000460a0       ??$toString@PEAVIntegerComplex@@@TypeConverter@@YAPEBDXZ 00000001800470a0 f   PlugInUtilities:TypeConverter.obj
 0001:000460b0       ??$toString@VInt64@@@TypeConverter@@YAPEBDXZ 00000001800470b0 f   PlugInUtilities:TypeConverter.obj
 0001:000460c0       ??$toString@V?$vector@PEAVInt64@@V?$allocator@PEAVInt64@@@std@@@std@@@TypeConverter@@YAPEBDXZ 00000001800470c0 f   PlugInUtilities:TypeConverter.obj
 0001:000460d0       ??$toString@V?$vector@VInt64@@V?$allocator@VInt64@@@std@@@std@@@TypeConverter@@YAPEBDXZ 00000001800470d0 f   PlugInUtilities:TypeConverter.obj
 0001:000460e0       ??$toString@VLatLonLayer@@@TypeConverter@@YAPEBDXZ 00000001800470e0 f   PlugInUtilities:TypeConverter.obj
 0001:000460f0       ??$toString@V?$vector@PEAVLatLonLayer@@V?$allocator@PEAVLatLonLayer@@@std@@@std@@@TypeConverter@@YAPEBDXZ 00000001800470f0 f   PlugInUtilities:TypeConverter.obj
 0001:00046100       ??$toString@V?$vector@VLatLonLayer@@V?$allocator@VLatLonLayer@@@std@@@std@@@TypeConverter@@YAPEBDXZ 0000000180047100 f   PlugInUtilities:TypeConverter.obj
 0001:00046110       ??$toString@PEAVLatLonLayer@@@TypeConverter@@YAPEBDXZ 0000000180047110 f   PlugInUtilities:TypeConverter.obj
 0001:00046120       ??$toString@VLayer@@@TypeConverter@@YAPEBDXZ 0000000180047120 f   PlugInUtilities:TypeConverter.obj
 0001:00046130       ??$toString@V?$vector@PEAVLayer@@V?$allocator@PEAVLayer@@@std@@@std@@@TypeConverter@@YAPEBDXZ 0000000180047130 f   PlugInUtilities:TypeConverter.obj
 0001:00046140       ??$toString@V?$vector@VLayer@@V?$allocator@VLayer@@@std@@@std@@@TypeConverter@@YAPEBDXZ 0000000180047140 f   PlugInUtilities:TypeConverter.obj
 0001:00046150       ??$toString@PEAVLayer@@@TypeConverter@@YAPEBDXZ 0000000180047150 f   PlugInUtilities:TypeConverter.obj
 0001:00046160       ??$toString@V?$Location@N$01@Opticks@@@TypeConverter@@YAPEBDXZ 0000000180047160 f   PlugInUtilities:TypeConverter.obj
 0001:00046170       ??$toString@V?$vector@PEAV?$Location@N$01@Opticks@@V?$allocator@PEAV?$Location@N$01@Opticks@@@std@@@std@@@TypeConverter@@YAPEBDXZ 0000000180047170 f   PlugInUtilities:TypeConverter.obj
 0001:00046180       ??$toString@V?$vector@V?$Location@N$01@Opticks@@V?$allocator@V?$Location@N$01@Opticks@@@std@@@std@@@TypeConverter@@YAPEBDXZ 0000000180047180 f   PlugInUtilities:TypeConverter.obj
 0001:00046190       ??$toString@VMeasurementLayer@@@TypeConverter@@YAPEBDXZ 0000000180047190 f   PlugInUtilities:TypeConverter.obj
 0001:000461a0       ??$toString@V?$vector@PEAVMeasurementLayer@@V?$allocator@PEAVMeasurementLayer@@@std@@@std@@@TypeConverter@@YAPEBDXZ 00000001800471a0 f   PlugInUtilities:TypeConverter.obj
 0001:000461b0       ??$toString@V?$vector@VMeasurementLayer@@V?$allocator@VMeasurementLayer@@@std@@@std@@@TypeConverter@@YAPEBDXZ 00000001800471b0 f   PlugInUtilities:TypeConverter.obj
 0001:000461c0       ??$toString@PEAVMeasurementLayer@@@TypeConverter@@YAPEBDXZ 00000001800471c0 f   PlugInUtilities:TypeConverter.obj
 0001:000461d0       ??$toString@VOrthographicView@@@TypeConverter@@YAPEBDXZ 00000001800471d0 f   PlugInUtilities:TypeConverter.obj
 0001:000461e0       ??$toString@V?$vector@PEAVOrthographicView@@V?$allocator@PEAVOrthographicView@@@std@@@std@@@TypeConverter@@YAPEBDXZ 00000001800471e0 f   PlugInUtilities:TypeConverter.obj
 0001:000461f0       ??$toString@V?$vector@VOrthographicView@@V?$allocator@VOrthographicView@@@std@@@std@@@TypeConverter@@YAPEBDXZ 00000001800471f0 f   PlugInUtilities:TypeConverter.obj
 0001:00046200       ??$toString@PEAVOrthographicView@@@TypeConverter@@YAPEBDXZ 0000000180047200 f   PlugInUtilities:TypeConverter.obj
 0001:00046210       ??$toString@VPerspectiveView@@@TypeConverter@@YAPEBDXZ 0000000180047210 f   PlugInUtilities:TypeConverter.obj
 0001:00046220       ??$toString@V?$vector@PEAVPerspectiveView@@V?$allocator@PEAVPerspectiveView@@@std@@@std@@@TypeConverter@@YAPEBDXZ 0000000180047220 f   PlugInUtilities:TypeConverter.obj
 0001:00046230       ??$toString@V?$vector@VPerspectiveView@@V?$allocator@VPerspectiveView@@@std@@@std@@@TypeConverter@@YAPEBDXZ 0000000180047230 f   PlugInUtilities:TypeConverter.obj
 0001:00046240       ??$toString@PEAVPerspectiveView@@@TypeConverter@@YAPEBDXZ 0000000180047240 f   PlugInUtilities:TypeConverter.obj
 0001:00046250       ??$toString@V?$Location@H$01@Opticks@@@TypeConverter@@YAPEBDXZ 0000000180047250 f   PlugInUtilities:TypeConverter.obj
 0001:00046260       ??$toString@V?$vector@PEAV?$Location@H$01@Opticks@@V?$allocator@PEAV?$Location@H$01@Opticks@@@std@@@std@@@TypeConverter@@YAPEBDXZ 0000000180047260 f   PlugInUtilities:TypeConverter.obj
 0001:00046270       ??$toString@V?$vector@V?$Location@H$01@Opticks@@V?$allocator@V?$Location@H$01@Opticks@@@std@@@std@@@TypeConverter@@YAPEBDXZ 0000000180047270 f   PlugInUtilities:TypeConverter.obj
 0001:00046280       ??$toString@VPlotView@@@TypeConverter@@YAPEBDXZ 0000000180047280 f   PlugInUtilities:TypeConverter.obj
 0001:00046290       ??$toString@V?$vector@PEAVPlotView@@V?$allocator@PEAVPlotView@@@std@@@std@@@TypeConverter@@YAPEBDXZ 0000000180047290 f   PlugInUtilities:TypeConverter.obj
 0001:000462a0       ??$toString@V?$vector@VPlotView@@V?$allocator@VPlotView@@@std@@@std@@@TypeConverter@@YAPEBDXZ 00000001800472a0 f   PlugInUtilities:TypeConverter.obj
 0001:000462b0       ??$toString@PEAVPlotView@@@TypeConverter@@YAPEBDXZ 00000001800472b0 f   PlugInUtilities:TypeConverter.obj
 0001:000462c0       ??$toString@VPlotWidget@@@TypeConverter@@YAPEBDXZ 00000001800472c0 f   PlugInUtilities:TypeConverter.obj
 0001:000462d0       ??$toString@V?$vector@PEAVPlotWidget@@V?$allocator@PEAVPlotWidget@@@std@@@std@@@TypeConverter@@YAPEBDXZ 00000001800472d0 f   PlugInUtilities:TypeConverter.obj
 0001:000462e0       ??$toString@V?$vector@VPlotWidget@@V?$allocator@VPlotWidget@@@std@@@std@@@TypeConverter@@YAPEBDXZ 00000001800472e0 f   PlugInUtilities:TypeConverter.obj
 0001:000462f0       ??$toString@PEAVPlotWidget@@@TypeConverter@@YAPEBDXZ 00000001800472f0 f   PlugInUtilities:TypeConverter.obj
 0001:00046300       ??$toString@VPolarPlot@@@TypeConverter@@YAPEBDXZ 0000000180047300 f   PlugInUtilities:TypeConverter.obj
 0001:00046310       ??$toString@V?$vector@PEAVPolarPlot@@V?$allocator@PEAVPolarPlot@@@std@@@std@@@TypeConverter@@YAPEBDXZ 0000000180047310 f   PlugInUtilities:TypeConverter.obj
 0001:00046320       ??$toString@V?$vector@VPolarPlot@@V?$allocator@VPolarPlot@@@std@@@std@@@TypeConverter@@YAPEBDXZ 0000000180047320 f   PlugInUtilities:TypeConverter.obj
 0001:00046330       ??$toString@PEAVPolarPlot@@@TypeConverter@@YAPEBDXZ 0000000180047330 f   PlugInUtilities:TypeConverter.obj
 0001:00046340       ??$toString@VProductView@@@TypeConverter@@YAPEBDXZ 0000000180047340 f   PlugInUtilities:TypeConverter.obj
 0001:00046350       ??$toString@V?$vector@PEAVProductView@@V?$allocator@PEAVProductView@@@std@@@std@@@TypeConverter@@YAPEBDXZ 0000000180047350 f   PlugInUtilities:TypeConverter.obj
 0001:00046360       ??$toString@V?$vector@VProductView@@V?$allocator@VProductView@@@std@@@std@@@TypeConverter@@YAPEBDXZ 0000000180047360 f   PlugInUtilities:TypeConverter.obj
 0001:00046370       ??$toString@PEAVProductView@@@TypeConverter@@YAPEBDXZ 0000000180047370 f   PlugInUtilities:TypeConverter.obj
 0001:00046380       ??$toString@VProductWindow@@@TypeConverter@@YAPEBDXZ 0000000180047380 f   PlugInUtilities:TypeConverter.obj
 0001:00046390       ??$toString@V?$vector@PEAVProductWindow@@V?$allocator@PEAVProductWindow@@@std@@@std@@@TypeConverter@@YAPEBDXZ 0000000180047390 f   PlugInUtilities:TypeConverter.obj
 0001:000463a0       ??$toString@V?$vector@VProductWindow@@V?$allocator@VProductWindow@@@std@@@std@@@TypeConverter@@YAPEBDXZ 00000001800473a0 f   PlugInUtilities:TypeConverter.obj
 0001:000463b0       ??$toString@PEAVProductWindow@@@TypeConverter@@YAPEBDXZ 00000001800473b0 f   PlugInUtilities:TypeConverter.obj
 0001:000463c0       ??$toString@VProgress@@@TypeConverter@@YAPEBDXZ 00000001800473c0 f   PlugInUtilities:TypeConverter.obj
 0001:000463d0       ??$toString@V?$vector@PEAVProgress@@V?$allocator@PEAVProgress@@@std@@@std@@@TypeConverter@@YAPEBDXZ 00000001800473d0 f   PlugInUtilities:TypeConverter.obj
 0001:000463e0       ??$toString@V?$vector@VProgress@@V?$allocator@VProgress@@@std@@@std@@@TypeConverter@@YAPEBDXZ 00000001800473e0 f   PlugInUtilities:TypeConverter.obj
 0001:000463f0       ??$toString@PEAVProgress@@@TypeConverter@@YAPEBDXZ 00000001800473f0 f   PlugInUtilities:TypeConverter.obj
 0001:00046400       ??$toString@VPseudocolorLayer@@@TypeConverter@@YAPEBDXZ 0000000180047400 f   PlugInUtilities:TypeConverter.obj
 0001:00046410       ??$toString@V?$vector@PEAVPseudocolorLayer@@V?$allocator@PEAVPseudocolorLayer@@@std@@@std@@@TypeConverter@@YAPEBDXZ 0000000180047410 f   PlugInUtilities:TypeConverter.obj
 0001:00046420       ??$toString@V?$vector@VPseudocolorLayer@@V?$allocator@VPseudocolorLayer@@@std@@@std@@@TypeConverter@@YAPEBDXZ 0000000180047420 f   PlugInUtilities:TypeConverter.obj
 0001:00046430       ??$toString@PEAVPseudocolorLayer@@@TypeConverter@@YAPEBDXZ 0000000180047430 f   PlugInUtilities:TypeConverter.obj
 0001:00046440       ??$toString@VRasterDataDescriptor@@@TypeConverter@@YAPEBDXZ 0000000180047440 f   PlugInUtilities:TypeConverter.obj
 0001:00046450       ??$toString@V?$vector@PEAVRasterDataDescriptor@@V?$allocator@PEAVRasterDataDescriptor@@@std@@@std@@@TypeConverter@@YAPEBDXZ 0000000180047450 f   PlugInUtilities:TypeConverter.obj
 0001:00046460       ??$toString@V?$vector@VRasterDataDescriptor@@V?$allocator@VRasterDataDescriptor@@@std@@@std@@@TypeConverter@@YAPEBDXZ 0000000180047460 f   PlugInUtilities:TypeConverter.obj
 0001:00046470       ??$toString@PEAVRasterDataDescriptor@@@TypeConverter@@YAPEBDXZ 0000000180047470 f   PlugInUtilities:TypeConverter.obj
 0001:00046480       ??$toString@VRasterElement@@@TypeConverter@@YAPEBDXZ 0000000180047480 f   PlugInUtilities:TypeConverter.obj
 0001:00046490       ??$toString@V?$vector@PEAVRasterElement@@V?$allocator@PEAVRasterElement@@@std@@@std@@@TypeConverter@@YAPEBDXZ 0000000180047490 f   PlugInUtilities:TypeConverter.obj
 0001:000464a0       ??$toString@V?$vector@VRasterElement@@V?$allocator@VRasterElement@@@std@@@std@@@TypeConverter@@YAPEBDXZ 00000001800474a0 f   PlugInUtilities:TypeConverter.obj
 0001:000464b0       ??$toString@PEAVRasterElement@@@TypeConverter@@YAPEBDXZ 00000001800474b0 f   PlugInUtilities:TypeConverter.obj
 0001:000464c0       ??$toString@VRasterFileDescriptor@@@TypeConverter@@YAPEBDXZ 00000001800474c0 f   PlugInUtilities:TypeConverter.obj
 0001:000464d0       ??$toString@V?$vector@PEAVRasterFileDescriptor@@V?$allocator@PEAVRasterFileDescriptor@@@std@@@std@@@TypeConverter@@YAPEBDXZ 00000001800474d0 f   PlugInUtilities:TypeConverter.obj
 0001:000464e0       ??$toString@V?$vector@VRasterFileDescriptor@@V?$allocator@VRasterFileDescriptor@@@std@@@std@@@TypeConverter@@YAPEBDXZ 00000001800474e0 f   PlugInUtilities:TypeConverter.obj
 0001:000464f0       ??$toString@PEAVRasterFileDescriptor@@@TypeConverter@@YAPEBDXZ 00000001800474f0 f   PlugInUtilities:TypeConverter.obj
 0001:00046500       ??$toString@VRasterLayer@@@TypeConverter@@YAPEBDXZ 0000000180047500 f   PlugInUtilities:TypeConverter.obj
 0001:00046510       ??$toString@V?$vector@PEAVRasterLayer@@V?$allocator@PEAVRasterLayer@@@std@@@std@@@TypeConverter@@YAPEBDXZ 0000000180047510 f   PlugInUtilities:TypeConverter.obj
 0001:00046520       ??$toString@V?$vector@VRasterLayer@@V?$allocator@VRasterLayer@@@std@@@std@@@TypeConverter@@YAPEBDXZ 0000000180047520 f   PlugInUtilities:TypeConverter.obj
 0001:00046530       ??$toString@PEAVRasterLayer@@@TypeConverter@@YAPEBDXZ 0000000180047530 f   PlugInUtilities:TypeConverter.obj
 0001:00046540       ??$toString@VSessionItem@@@TypeConverter@@YAPEBDXZ 0000000180047540 f   PlugInUtilities:TypeConverter.obj
 0001:00046550       ??$toString@V?$vector@PEAVSessionItem@@V?$allocator@PEAVSessionItem@@@std@@@std@@@TypeConverter@@YAPEBDXZ 0000000180047550 f   PlugInUtilities:TypeConverter.obj
 0001:00046560       ??$toString@V?$vector@VSessionItem@@V?$allocator@VSessionItem@@@std@@@std@@@TypeConverter@@YAPEBDXZ 0000000180047560 f   PlugInUtilities:TypeConverter.obj
 0001:00046570       ??$toString@PEAVSessionItem@@@TypeConverter@@YAPEBDXZ 0000000180047570 f   PlugInUtilities:TypeConverter.obj
 0001:00046580       ??$toString@VSettableSessionItem@@@TypeConverter@@YAPEBDXZ 0000000180047580 f   PlugInUtilities:TypeConverter.obj
 0001:00046590       ??$toString@V?$vector@PEAVSettableSessionItem@@V?$allocator@PEAVSettableSessionItem@@@std@@@std@@@TypeConverter@@YAPEBDXZ 0000000180047590 f   PlugInUtilities:TypeConverter.obj
 0001:000465a0       ??$toString@V?$vector@VSettableSessionItem@@V?$allocator@VSettableSessionItem@@@std@@@std@@@TypeConverter@@YAPEBDXZ 00000001800475a0 f   PlugInUtilities:TypeConverter.obj
 0001:000465b0       ??$toString@PEAVSettableSessionItem@@@TypeConverter@@YAPEBDXZ 00000001800475b0 f   PlugInUtilities:TypeConverter.obj
 0001:000465c0       ??$toString@VSignature@@@TypeConverter@@YAPEBDXZ 00000001800475c0 f   PlugInUtilities:TypeConverter.obj
 0001:000465d0       ??$toString@V?$vector@PEAVSignature@@V?$allocator@PEAVSignature@@@std@@@std@@@TypeConverter@@YAPEBDXZ 00000001800475d0 f   PlugInUtilities:TypeConverter.obj
 0001:000465e0       ??$toString@V?$vector@VSignature@@V?$allocator@VSignature@@@std@@@std@@@TypeConverter@@YAPEBDXZ 00000001800475e0 f   PlugInUtilities:TypeConverter.obj
 0001:000465f0       ??$toString@PEAVSignature@@@TypeConverter@@YAPEBDXZ 00000001800475f0 f   PlugInUtilities:TypeConverter.obj
 0001:00046600       ??$toString@VSignatureDataDescriptor@@@TypeConverter@@YAPEBDXZ 0000000180047600 f   PlugInUtilities:TypeConverter.obj
 0001:00046610       ??$toString@V?$vector@PEAVSignatureDataDescriptor@@V?$allocator@PEAVSignatureDataDescriptor@@@std@@@std@@@TypeConverter@@YAPEBDXZ 0000000180047610 f   PlugInUtilities:TypeConverter.obj
 0001:00046620       ??$toString@V?$vector@VSignatureDataDescriptor@@V?$allocator@VSignatureDataDescriptor@@@std@@@std@@@TypeConverter@@YAPEBDXZ 0000000180047620 f   PlugInUtilities:TypeConverter.obj
 0001:00046630       ??$toString@PEAVSignatureDataDescriptor@@@TypeConverter@@YAPEBDXZ 0000000180047630 f   PlugInUtilities:TypeConverter.obj
 0001:00046640       ??$toString@VSignatureFileDescriptor@@@TypeConverter@@YAPEBDXZ 0000000180047640 f   PlugInUtilities:TypeConverter.obj
 0001:00046650       ??$toString@V?$vector@PEAVSignatureFileDescriptor@@V?$allocator@PEAVSignatureFileDescriptor@@@std@@@std@@@TypeConverter@@YAPEBDXZ 0000000180047650 f   PlugInUtilities:TypeConverter.obj
 0001:00046660       ??$toString@V?$vector@VSignatureFileDescriptor@@V?$allocator@VSignatureFileDescriptor@@@std@@@std@@@TypeConverter@@YAPEBDXZ 0000000180047660 f   PlugInUtilities:TypeConverter.obj
 0001:00046670       ??$toString@PEAVSignatureFileDescriptor@@@TypeConverter@@YAPEBDXZ 0000000180047670 f   PlugInUtilities:TypeConverter.obj
 0001:00046680       ??$toString@VSignatureLibrary@@@TypeConverter@@YAPEBDXZ 0000000180047680 f   PlugInUtilities:TypeConverter.obj
 0001:00046690       ??$toString@V?$vector@PEAVSignatureLibrary@@V?$allocator@PEAVSignatureLibrary@@@std@@@std@@@TypeConverter@@YAPEBDXZ 0000000180047690 f   PlugInUtilities:TypeConverter.obj
 0001:000466a0       ??$toString@V?$vector@VSignatureLibrary@@V?$allocator@VSignatureLibrary@@@std@@@std@@@TypeConverter@@YAPEBDXZ 00000001800476a0 f   PlugInUtilities:TypeConverter.obj
 0001:000466b0       ??$toString@PEAVSignatureLibrary@@@TypeConverter@@YAPEBDXZ 00000001800476b0 f   PlugInUtilities:TypeConverter.obj
 0001:000466c0       ??$toString@VSignaturePlot@@@TypeConverter@@YAPEBDXZ 00000001800476c0 f   PlugInUtilities:TypeConverter.obj
 0001:000466d0       ??$toString@V?$vector@PEAVSignaturePlot@@V?$allocator@PEAVSignaturePlot@@@std@@@std@@@TypeConverter@@YAPEBDXZ 00000001800476d0 f   PlugInUtilities:TypeConverter.obj
 0001:000466e0       ??$toString@V?$vector@VSignaturePlot@@V?$allocator@VSignaturePlot@@@std@@@std@@@TypeConverter@@YAPEBDXZ 00000001800476e0 f   PlugInUtilities:TypeConverter.obj
 0001:000466f0       ??$toString@PEAVSignaturePlot@@@TypeConverter@@YAPEBDXZ 00000001800476f0 f   PlugInUtilities:TypeConverter.obj
 0001:00046700       ??$toString@VSignatureSet@@@TypeConverter@@YAPEBDXZ 0000000180047700 f   PlugInUtilities:TypeConverter.obj
 0001:00046710       ??$toString@V?$vector@PEAVSignatureSet@@V?$allocator@PEAVSignatureSet@@@std@@@std@@@TypeConverter@@YAPEBDXZ 0000000180047710 f   PlugInUtilities:TypeConverter.obj
 0001:00046720       ??$toString@V?$vector@VSignatureSet@@V?$allocator@VSignatureSet@@@std@@@std@@@TypeConverter@@YAPEBDXZ 0000000180047720 f   PlugInUtilities:TypeConverter.obj
 0001:00046730       ??$toString@PEAVSignatureSet@@@TypeConverter@@YAPEBDXZ 0000000180047730 f   PlugInUtilities:TypeConverter.obj
 0001:00046740       ??$toString@VSpatialDataView@@@TypeConverter@@YAPEBDXZ 0000000180047740 f   PlugInUtilities:TypeConverter.obj
 0001:00046750       ??$toString@V?$vector@PEAVSpatialDataView@@V?$allocator@PEAVSpatialDataView@@@std@@@std@@@TypeConverter@@YAPEBDXZ 0000000180047750 f   PlugInUtilities:TypeConverter.obj
 0001:00046760       ??$toString@V?$vector@VSpatialDataView@@V?$allocator@VSpatialDataView@@@std@@@std@@@TypeConverter@@YAPEBDXZ 0000000180047760 f   PlugInUtilities:TypeConverter.obj
 0001:00046770       ??$toString@PEAVSpatialDataView@@@TypeConverter@@YAPEBDXZ 0000000180047770 f   PlugInUtilities:TypeConverter.obj
 0001:00046780       ??$toString@VSpatialDataWindow@@@TypeConverter@@YAPEBDXZ 0000000180047780 f   PlugInUtilities:TypeConverter.obj
 0001:00046790       ??$toString@V?$vector@PEAVSpatialDataWindow@@V?$allocator@PEAVSpatialDataWindow@@@std@@@std@@@TypeConverter@@YAPEBDXZ 0000000180047790 f   PlugInUtilities:TypeConverter.obj
 0001:000467a0       ??$toString@V?$vector@VSpatialDataWindow@@V?$allocator@VSpatialDataWindow@@@std@@@std@@@TypeConverter@@YAPEBDXZ 00000001800477a0 f   PlugInUtilities:TypeConverter.obj
 0001:000467b0       ??$toString@PEAVSpatialDataWindow@@@TypeConverter@@YAPEBDXZ 00000001800477b0 f   PlugInUtilities:TypeConverter.obj
 0001:000467c0       ??$toString@VThresholdLayer@@@TypeConverter@@YAPEBDXZ 00000001800477c0 f   PlugInUtilities:TypeConverter.obj
 0001:000467d0       ??$toString@V?$vector@PEAVThresholdLayer@@V?$allocator@PEAVThresholdLayer@@@std@@@std@@@TypeConverter@@YAPEBDXZ 00000001800477d0 f   PlugInUtilities:TypeConverter.obj
 0001:000467e0       ??$toString@V?$vector@VThresholdLayer@@V?$allocator@VThresholdLayer@@@std@@@std@@@TypeConverter@@YAPEBDXZ 00000001800477e0 f   PlugInUtilities:TypeConverter.obj
 0001:000467f0       ??$toString@PEAVThresholdLayer@@@TypeConverter@@YAPEBDXZ 00000001800477f0 f   PlugInUtilities:TypeConverter.obj
 0001:00046800       ??$toString@VTiePointLayer@@@TypeConverter@@YAPEBDXZ 0000000180047800 f   PlugInUtilities:TypeConverter.obj
 0001:00046810       ??$toString@V?$vector@PEAVTiePointLayer@@V?$allocator@PEAVTiePointLayer@@@std@@@std@@@TypeConverter@@YAPEBDXZ 0000000180047810 f   PlugInUtilities:TypeConverter.obj
 0001:00046820       ??$toString@V?$vector@VTiePointLayer@@V?$allocator@VTiePointLayer@@@std@@@std@@@TypeConverter@@YAPEBDXZ 0000000180047820 f   PlugInUtilities:TypeConverter.obj
 0001:00046830       ??$toString@PEAVTiePointLayer@@@TypeConverter@@YAPEBDXZ 0000000180047830 f   PlugInUtilities:TypeConverter.obj
 0001:00046840       ??$toString@VTiePointList@@@TypeConverter@@YAPEBDXZ 0000000180047840 f   PlugInUtilities:TypeConverter.obj
 0001:00046850       ??$toString@V?$vector@PEAVTiePointList@@V?$allocator@PEAVTiePointList@@@std@@@std@@@TypeConverter@@YAPEBDXZ 0000000180047850 f   PlugInUtilities:TypeConverter.obj
 0001:00046860       ??$toString@V?$vector@VTiePointList@@V?$allocator@VTiePointList@@@std@@@std@@@TypeConverter@@YAPEBDXZ 0000000180047860 f   PlugInUtilities:TypeConverter.obj
 0001:00046870       ??$toString@PEAVTiePointList@@@TypeConverter@@YAPEBDXZ 0000000180047870 f   PlugInUtilities:TypeConverter.obj
 0001:00046880       ??$toString@VUInt64@@@TypeConverter@@YAPEBDXZ 0000000180047880 f   PlugInUtilities:TypeConverter.obj
 0001:00046890       ??$toString@V?$vector@PEAVUInt64@@V?$allocator@PEAVUInt64@@@std@@@std@@@TypeConverter@@YAPEBDXZ 0000000180047890 f   PlugInUtilities:TypeConverter.obj
 0001:000468a0       ??$toString@V?$vector@VUInt64@@V?$allocator@VUInt64@@@std@@@std@@@TypeConverter@@YAPEBDXZ 00000001800478a0 f   PlugInUtilities:TypeConverter.obj
 0001:000468b0       ??$toString@VUnits@@@TypeConverter@@YAPEBDXZ 00000001800478b0 f   PlugInUtilities:TypeConverter.obj
 0001:000468c0       ??$toString@V?$vector@PEAVUnits@@V?$allocator@PEAVUnits@@@std@@@std@@@TypeConverter@@YAPEBDXZ 00000001800478c0 f   PlugInUtilities:TypeConverter.obj
 0001:000468d0       ??$toString@V?$vector@VUnits@@V?$allocator@VUnits@@@std@@@std@@@TypeConverter@@YAPEBDXZ 00000001800478d0 f   PlugInUtilities:TypeConverter.obj
 0001:000468e0       ??$toString@PEAVUnits@@@TypeConverter@@YAPEBDXZ 00000001800478e0 f   PlugInUtilities:TypeConverter.obj
 0001:000468f0       ??$toString@VView@@@TypeConverter@@YAPEBDXZ 00000001800478f0 f   PlugInUtilities:TypeConverter.obj
 0001:00046900       ??$toString@V?$vector@PEAVView@@V?$allocator@PEAVView@@@std@@@std@@@TypeConverter@@YAPEBDXZ 0000000180047900 f   PlugInUtilities:TypeConverter.obj
 0001:00046910       ??$toString@V?$vector@VView@@V?$allocator@VView@@@std@@@std@@@TypeConverter@@YAPEBDXZ 0000000180047910 f   PlugInUtilities:TypeConverter.obj
 0001:00046920       ??$toString@PEAVView@@@TypeConverter@@YAPEBDXZ 0000000180047920 f   PlugInUtilities:TypeConverter.obj
 0001:00046930       ??$toString@VWavelengths@@@TypeConverter@@YAPEBDXZ 0000000180047930 f   PlugInUtilities:TypeConverter.obj
 0001:00046940       ??$toString@V?$vector@PEAVWavelengths@@V?$allocator@PEAVWavelengths@@@std@@@std@@@TypeConverter@@YAPEBDXZ 0000000180047940 f   PlugInUtilities:TypeConverter.obj
 0001:00046950       ??$toString@V?$vector@VWavelengths@@V?$allocator@VWavelengths@@@std@@@std@@@TypeConverter@@YAPEBDXZ 0000000180047950 f   PlugInUtilities:TypeConverter.obj
 0001:00046960       ??$toString@PEAVWavelengths@@@TypeConverter@@YAPEBDXZ 0000000180047960 f   PlugInUtilities:TypeConverter.obj
 0001:00046970       ??$toString@VWindow@@@TypeConverter@@YAPEBDXZ 0000000180047970 f   PlugInUtilities:TypeConverter.obj
 0001:00046980       ??$toString@V?$vector@PEAVWindow@@V?$allocator@PEAVWindow@@@std@@@std@@@TypeConverter@@YAPEBDXZ 0000000180047980 f   PlugInUtilities:TypeConverter.obj
 0001:00046990       ??$toString@V?$vector@VWindow@@V?$allocator@VWindow@@@std@@@std@@@TypeConverter@@YAPEBDXZ 0000000180047990 f   PlugInUtilities:TypeConverter.obj
 0001:000469a0       ??$toString@PEAVWindow@@@TypeConverter@@YAPEBDXZ 00000001800479a0 f   PlugInUtilities:TypeConverter.obj
 0001:000469b0       ??$toString@VWizardObject@@@TypeConverter@@YAPEBDXZ 00000001800479b0 f   PlugInUtilities:TypeConverter.obj
 0001:000469c0       ??$toString@V?$vector@PEAVWizardObject@@V?$allocator@PEAVWizardObject@@@std@@@std@@@TypeConverter@@YAPEBDXZ 00000001800479c0 f   PlugInUtilities:TypeConverter.obj
 0001:000469d0       ??$toString@V?$vector@VWizardObject@@V?$allocator@VWizardObject@@@std@@@std@@@TypeConverter@@YAPEBDXZ 00000001800479d0 f   PlugInUtilities:TypeConverter.obj
 0001:000469e0       ??$toString@PEAVWizardObject@@@TypeConverter@@YAPEBDXZ 00000001800479e0 f   PlugInUtilities:TypeConverter.obj
 0001:000469f0       ??$toString@VWorkspaceWindow@@@TypeConverter@@YAPEBDXZ 00000001800479f0 f   PlugInUtilities:TypeConverter.obj
 0001:00046a00       ??$toString@V?$vector@PEAVWorkspaceWindow@@V?$allocator@PEAVWorkspaceWindow@@@std@@@std@@@TypeConverter@@YAPEBDXZ 0000000180047a00 f   PlugInUtilities:TypeConverter.obj
 0001:00046a10       ??$toString@V?$vector@VWorkspaceWindow@@V?$allocator@VWorkspaceWindow@@@std@@@std@@@TypeConverter@@YAPEBDXZ 0000000180047a10 f   PlugInUtilities:TypeConverter.obj
 0001:00046a20       ??$toString@PEAVWorkspaceWindow@@@TypeConverter@@YAPEBDXZ 0000000180047a20 f   PlugInUtilities:TypeConverter.obj
 0001:00046a28       ?_Xout_of_range@std@@YAXPEBD@Z 0000000180047a28 f   msvcprt:MSVCP100.dll
 0001:00046a2e       ?_Xlength_error@std@@YAXPEBD@Z 0000000180047a2e f   msvcprt:MSVCP100.dll
 0001:00046a34       ?flush@?$basic_ostream@DU?$char_traits@D@std@@@std@@QEAAAEAV12@XZ 0000000180047a34 f   msvcprt:MSVCP100.dll
 0001:00046a3a       ?_Osfx@?$basic_ostream@DU?$char_traits@D@std@@@std@@QEAAXXZ 0000000180047a3a f   msvcprt:MSVCP100.dll
 0001:00046a40       ?uncaught_exception@std@@YA_NXZ 0000000180047a40 f   msvcprt:MSVCP100.dll
 0001:00046a46       ?setstate@?$basic_ios@DU?$char_traits@D@std@@@std@@QEAAXH_N@Z 0000000180047a46 f   msvcprt:MSVCP100.dll
 0001:00046a4c       ?sputn@?$basic_streambuf@DU?$char_traits@D@std@@@std@@QEAA_JPEBD_J@Z 0000000180047a4c f   msvcprt:MSVCP100.dll
 0001:00046a52       ?sputc@?$basic_streambuf@DU?$char_traits@D@std@@@std@@QEAAHD@Z 0000000180047a52 f   msvcprt:MSVCP100.dll
 0001:00046a58       ??6?$basic_ostream@DU?$char_traits@D@std@@@std@@QEAAAEAV01@P6AAEAV01@AEAV01@@Z@Z 0000000180047a58 f   msvcprt:MSVCP100.dll
 0001:00046a5e       ?endl@std@@YAAEAV?$basic_ostream@DU?$char_traits@D@std@@@1@AEAV21@@Z 0000000180047a5e f   msvcprt:MSVCP100.dll
 0001:00046a64       ??1_Container_base12@std@@QEAA@XZ 0000000180047a64 f   msvcprt:MSVCP100.dll
 0001:00046a6a       ??6?$basic_ostream@DU?$char_traits@D@std@@@std@@QEAAAEAV01@H@Z 0000000180047a6a f   msvcprt:MSVCP100.dll
 0001:00046a70       ??_U@YAPEAX_K@Z            0000000180047a70 f   msvcprt:newaop_s.obj
 0001:00046a76       ?_Swap_all@_Container_base0@std@@QEAAXAEAU12@@Z 0000000180047a76 f   msvcprt:MSVCP100.dll
 0001:00046a7c       ?_Orphan_all@_Container_base0@std@@QEAAXXZ 0000000180047a7c f   msvcprt:MSVCP100.dll
 0001:00046a82       ??6?$basic_ostream@DU?$char_traits@D@std@@@std@@QEAAAEAV01@M@Z 0000000180047a82 f   msvcprt:MSVCP100.dll
 0001:00046a88       ??6?$basic_ostream@DU?$char_traits@D@std@@@std@@QEAAAEAV01@_N@Z 0000000180047a88 f   msvcprt:MSVCP100.dll
 0001:00046a8e       ??1?$basic_streambuf@DU?$char_traits@D@std@@@std@@UEAA@XZ 0000000180047a8e f   msvcprt:MSVCP100.dll
 0001:00046a94       ?_Lock@?$basic_streambuf@DU?$char_traits@D@std@@@std@@UEAAXXZ 0000000180047a94 f   msvcprt:MSVCP100.dll
 0001:00046a9a       ?_Unlock@?$basic_streambuf@DU?$char_traits@D@std@@@std@@UEAAXXZ 0000000180047a9a f   msvcprt:MSVCP100.dll
 0001:00046aa0       ?showmanyc@?$basic_streambuf@DU?$char_traits@D@std@@@std@@MEAA_JXZ 0000000180047aa0 f   msvcprt:MSVCP100.dll
 0001:00046aa6       ?uflow@?$basic_streambuf@DU?$char_traits@D@std@@@std@@MEAAHXZ 0000000180047aa6 f   msvcprt:MSVCP100.dll
 0001:00046aac       ?xsgetn@?$basic_streambuf@DU?$char_traits@D@std@@@std@@MEAA_JPEAD_J@Z 0000000180047aac f   msvcprt:MSVCP100.dll
 0001:00046ab2       ?xsputn@?$basic_streambuf@DU?$char_traits@D@std@@@std@@MEAA_JPEBD_J@Z 0000000180047ab2 f   msvcprt:MSVCP100.dll
 0001:00046ab8       ?setbuf@?$basic_streambuf@DU?$char_traits@D@std@@@std@@MEAAPEAV12@PEAD_J@Z 0000000180047ab8 f   msvcprt:MSVCP100.dll
 0001:00046abe       ?sync@?$basic_streambuf@DU?$char_traits@D@std@@@std@@MEAAHXZ 0000000180047abe f   msvcprt:MSVCP100.dll
 0001:00046ac4       ?imbue@?$basic_streambuf@DU?$char_traits@D@std@@@std@@MEAAXAEBVlocale@2@@Z 0000000180047ac4 f   msvcprt:MSVCP100.dll
 0001:00046aca       ??1?$basic_iostream@DU?$char_traits@D@std@@@std@@UEAA@XZ 0000000180047aca f   msvcprt:MSVCP100.dll
 0001:00046ad0       ?_Pninc@?$basic_streambuf@DU?$char_traits@D@std@@@std@@IEAAPEADXZ 0000000180047ad0 f   msvcprt:MSVCP100.dll
 0001:00046ad6       ??0?$basic_streambuf@DU?$char_traits@D@std@@@std@@IEAA@XZ 0000000180047ad6 f   msvcprt:MSVCP100.dll
 0001:00046adc       ?_Ios_base_dtor@ios_base@std@@CAXPEAV12@@Z 0000000180047adc f   msvcprt:MSVCP100.dll
 0001:00046ae2       ??1?$basic_ios@DU?$char_traits@D@std@@@std@@UEAA@XZ 0000000180047ae2 f   msvcprt:MSVCP100.dll
 0001:00046ae8       ??0?$basic_iostream@DU?$char_traits@D@std@@@std@@QEAA@PEAV?$basic_streambuf@DU?$char_traits@D@std@@@1@@Z 0000000180047ae8 f   msvcprt:MSVCP100.dll
 0001:00046aee       ??6?$basic_ostream@DU?$char_traits@D@std@@@std@@QEAAAEAV01@I@Z 0000000180047aee f   msvcprt:MSVCP100.dll
 0001:00046af4       ??0?$basic_ios@DU?$char_traits@D@std@@@std@@IEAA@XZ 0000000180047af4 f   msvcprt:MSVCP100.dll
 0001:00046afa       ??0exception@std@@QEAA@AEBQEBD@Z 0000000180047afa f   MSVCRT:MSVCR100.dll
 0001:00046b00       ??0type_info@@AEAA@AEBV0@@Z 0000000180047b00 f   MSVCRT:ti_inst.obj
 0001:00046b10       ??_Etype_info@@UEAAPEAXI@Z 0000000180047b10 f i MSVCRT:ti_inst.obj
 0001:00046b7c       ??4type_info@@AEAAAEAV0@AEBV0@@Z 0000000180047b7c f   MSVCRT:ti_inst.obj
 0001:00046b80       ?what@exception@std@@UEBAPEBDXZ 0000000180047b80 f   MSVCRT:MSVCR100.dll
 0001:00046b86       ??1exception@std@@UEAA@XZ  0000000180047b86 f   MSVCRT:MSVCR100.dll
 0001:00046b8c       ??3@YAXPEAX@Z              0000000180047b8c f   MSVCRT:MSVCR100.dll
 0001:00046b92       memcpy                     0000000180047b92 f   MSVCRT:MSVCR100.dll
 0001:00046b98       memmove                    0000000180047b98 f   MSVCRT:MSVCR100.dll
 0001:00046b9e       __CxxFrameHandler3         0000000180047b9e f   MSVCRT:MSVCR100.dll
 0001:00046ba4       ??2@YAPEAX_K@Z             0000000180047ba4 f   MSVCRT:MSVCR100.dll
 0001:00046baa       _CxxThrowException         0000000180047baa f   MSVCRT:MSVCR100.dll
 0001:00046bb0       ??0exception@std@@QEAA@AEBV01@@Z 0000000180047bb0 f   MSVCRT:MSVCR100.dll
 0001:00046bb6       free                       0000000180047bb6 f   MSVCRT:MSVCR100.dll
 0001:00046bbc       malloc                     0000000180047bbc f   MSVCRT:MSVCR100.dll
 0001:00046bc2       memset                     0000000180047bc2 f   MSVCRT:MSVCR100.dll
 0001:00046bc8       _purecall                  0000000180047bc8 f   MSVCRT:MSVCR100.dll
 0001:00046bd0       _onexit                    0000000180047bd0 f   MSVCRT:atonexit.obj
 0001:00046c80       atexit                     0000000180047c80 f   MSVCRT:atonexit.obj
 0001:00046c98       sqrtf                      0000000180047c98 f   MSVCRT:MSVCR100.dll
 0001:00046c9e       fread                      0000000180047c9e f   MSVCRT:MSVCR100.dll
 0001:00046ca4       exit                       0000000180047ca4 f   MSVCRT:MSVCR100.dll
 0001:00046caa       fprintf                    0000000180047caa f   MSVCRT:MSVCR100.dll
 0001:00046cb0       __iob_func                 0000000180047cb0 f   MSVCRT:MSVCR100.dll
 0001:00046cb6       fwrite                     0000000180047cb6 f   MSVCRT:MSVCR100.dll
 0001:00046cbc       fclose                     0000000180047cbc f   MSVCRT:MSVCR100.dll
 0001:00046cc2       ungetc                     0000000180047cc2 f   MSVCRT:MSVCR100.dll
 0001:00046cc8       fgets                      0000000180047cc8 f   MSVCRT:MSVCR100.dll
 0001:00046cce       isspace                    0000000180047cce f   MSVCRT:MSVCR100.dll
 0001:00046cd4       fgetc                      0000000180047cd4 f   MSVCRT:MSVCR100.dll
 0001:00046cda       strncmp                    0000000180047cda f   MSVCRT:MSVCR100.dll
 0001:00046ce0       fscanf                     0000000180047ce0 f   MSVCRT:MSVCR100.dll
 0001:00046ce6       printf                     0000000180047ce6 f   MSVCRT:MSVCR100.dll
 0001:00046cec       fopen                      0000000180047cec f   MSVCRT:MSVCR100.dll
 0001:00046cf2       ??_V@YAXPEAX@Z             0000000180047cf2 f   MSVCRT:MSVCR100.dll
 0001:00046d14       ?__ArrayUnwind@@YAXPEAX_KHP6AX0@Z@Z 0000000180047d14 f   MSVCRT:ehvecdtr.obj
 0001:00046d60       ??_M@YAXPEAX_KHP6AX0@Z@Z   0000000180047d60 f   MSVCRT:ehvecdtr.obj
 0001:00046dbe       sqrt                       0000000180047dbe f   MSVCRT:MSVCR100.dll
 0001:00046dc4       atan2                      0000000180047dc4 f   MSVCRT:MSVCR100.dll
 0001:00046dca       pow                        0000000180047dca f   MSVCRT:MSVCR100.dll
 0001:00046dd0       floorf                     0000000180047dd0 f   MSVCRT:MSVCR100.dll
 0001:00046dd8       ??_L@YAXPEAX_KHP6AX0@Z2@Z  0000000180047dd8 f   MSVCRT:ehvecctr.obj
 0001:00046e3c       _popen                     0000000180047e3c f   MSVCRT:MSVCR100.dll
 0001:00046e42       atof                       0000000180047e42 f   MSVCRT:MSVCR100.dll
 0001:00046e48       floor                      0000000180047e48 f   MSVCRT:MSVCR100.dll
 0001:00046e4e       atoi                       0000000180047e4e f   MSVCRT:MSVCR100.dll
 0001:00046e54       memcmp                     0000000180047e54 f   MSVCRT:MSVCR100.dll
 0001:00046e5c       NtCurrentTeb               0000000180047e5c f i MSVCRT:crtdll.obj
 0001:00046ec8       _CRT_INIT                  0000000180047ec8 f   MSVCRT:crtdll.obj
 0001:00047260       _DllMainCRTStartup         0000000180048260 f   MSVCRT:crtdll.obj
 0001:0004729e       __RTDynamicCast            000000018004829e f   MSVCRT:MSVCR100.dll
 0001:000472a4       ??8type_info@@QEBA_NAEBV0@@Z 00000001800482a4 f   MSVCRT:MSVCR100.dll
 0001:000472aa       getenv                     00000001800482aa f   MSVCRT:MSVCR100.dll
 0001:000472b0       __C_specific_handler       00000001800482b0 f   MSVCRT:MSVCR100.dll
 0001:000472b6       _unlock                    00000001800482b6 f   MSVCRT:MSVCR100.dll
 0001:000472bc       __dllonexit                00000001800482bc f   MSVCRT:MSVCR100.dll
 0001:000472c2       _lock                      00000001800482c2 f   MSVCRT:MSVCR100.dll
 0001:000472c8       ?terminate@@YAXXZ          00000001800482c8 f   MSVCRT:MSVCR100.dll
 0001:000472d0       __clean_type_info_names    00000001800482d0 f   MSVCRT:tncleanup.obj
 0001:000472dc       _RTC_Initialize            00000001800482dc f   MSVCRT:_initsect_.obj
 0001:00047314       _RTC_Terminate             0000000180048314 f   MSVCRT:_initsect_.obj
 0001:0004734c       _malloc_crt                000000018004834c f   MSVCRT:MSVCR100.dll
 0001:00047360       _ValidateImageBase         0000000180048360 f   MSVCRT:pesect.obj
 0001:00047390       _FindPESection             0000000180048390 f   MSVCRT:pesect.obj
 0001:000473e0       _IsNonwritableInCurrentImage 00000001800483e0 f   MSVCRT:pesect.obj
 0001:00047422       _initterm                  0000000180048422 f   MSVCRT:MSVCR100.dll
 0001:00047428       _initterm_e                0000000180048428 f   MSVCRT:MSVCR100.dll
 0001:0004742e       _encoded_null              000000018004842e f   MSVCRT:MSVCR100.dll
 0001:00047434       _amsg_exit                 0000000180048434 f   MSVCRT:MSVCR100.dll
 0001:0004743a       __CppXcptFilter            000000018004843a f   MSVCRT:MSVCR100.dll
 0001:00047440       DllMain                    0000000180048440 f   MSVCRT:dllmain.obj
 0001:00047464       __security_init_cookie     0000000180048464 f   MSVCRT:gs_support.obj
 0001:00047518       ??1type_info@@UEAA@XZ      0000000180048518 f   MSVCRT:MSVCR100.dll
 0001:00047518       ?_type_info_dtor_internal_method@type_info@@QEAAXXZ 0000000180048518 f   MSVCRT:MSVCR100.dll
 0001:0004751e       __clean_type_info_names_internal 000000018004851e f   MSVCRT:MSVCR100.dll
 0001:00047524       ?hide@QWidget@@QEAAXXZ     0000000180048524 f   QtGui4:QtGui4.dll
 0001:0004752a       EncodePointer              000000018004852a f   kernel32:KERNEL32.dll
 0001:00047530       DecodePointer              0000000180048530 f   kernel32:KERNEL32.dll
 0001:00047536       Sleep                      0000000180048536 f   kernel32:KERNEL32.dll
 0001:0004753c       DisableThreadLibraryCalls  000000018004853c f   kernel32:KERNEL32.dll
 0001:00047542       QueryPerformanceCounter    0000000180048542 f   kernel32:KERNEL32.dll
 0001:00047548       GetTickCount               0000000180048548 f   kernel32:KERNEL32.dll
