 CDF

 Timestamp is 520e1e4c (Fri Aug 16 18:12:52 2013)

 Preferred load address is 10000000

 Start         Length     Name                   Class
 0001:00000000 000457ceH .text                   CODE
 0001:000457d0 000055a2H .text$x                 CODE
 0001:0004ad80 0000032bH .text$yc                CODE
 0001:0004b0b0 0000034eH .text$yd                CODE
 0002:00000000 00000a74H .idata$5                DATA
 0002:00000a74 00000004H .CRT$XCA                DATA
 0002:00000a78 00000060H .CRT$XCU                DATA
 0002:00000ad8 00000004H .CRT$XCZ                DATA
 0002:00000adc 00000004H .CRT$XIA                DATA
 0002:00000ae0 00000004H .CRT$XIAA               DATA
 0002:00000ae4 00000004H .CRT$XIC                DATA
 0002:00000ae8 00000004H .CRT$XIZ                DATA
 0002:00000af0 00007cc8H .rdata                  DATA
 0002:000087b8 0000006fH .rdata$debug            DATA
 0002:00008828 00001f9cH .rdata$r                DATA
 0002:0000a7d0 000004f8H .rdata$sxdata           DATA
 0002:0000acc8 00000004H .rtc$IAA                DATA
 0002:0000accc 00000004H .rtc$IZZ                DATA
 0002:0000acd0 00000004H .rtc$TAA                DATA
 0002:0000acd4 00000004H .rtc$TZZ                DATA
 0002:0000acd8 0000676cH .xdata$x                DATA
 0002:00011444 00000064H .idata$2                DATA
 0002:000114a8 00000014H .idata$3                DATA
 0002:000114bc 00000a74H .idata$4                DATA
 0002:00011f30 0000718eH .idata$6                DATA
 0002:000190c0 00000084H .edata                  DATA
 0003:00000000 00000dd0H .data                   DATA
 0003:00000dd0 0000045cH .bss                    DATA

  Address         Publics by Value              Rva+Base       Lib:Object

 0000:00000000       __except_list              00000000     <absolute>
 0000:0000013e       ___safe_se_handler_count   0000013e     <absolute>
 0000:00009876       __fltused                  00009876     <absolute>
 0000:00009876       __ldused                   00009876     <absolute>
 0000:00000000       ___ImageBase               10000000     <linker-defined>
 0001:00000000       ??0bad_alloc@std@@QAE@PBD@Z 10001000 f i attributebased_cd.obj
 0001:00000020       ??1bad_alloc@std@@UAE@XZ   10001020 f i attributebased_cd.obj
 0001:00000030       ??_Gbad_alloc@std@@UAEPAXI@Z 10001030 f i attributebased_cd.obj
 0001:00000030       ??_Ebad_alloc@std@@UAEPAXI@Z 10001030 f i attributebased_cd.obj
 0001:00000060       ??2@YAPAXIPAX@Z            10001060 f i attributebased_cd.obj
 0001:00000070       ??3@YAXPAX0@Z              10001070 f i attributebased_cd.obj
 0001:00000080       ?length@?$char_traits@D@std@@SAIPBD@Z 10001080 f i attributebased_cd.obj
 0001:000000a0       ?copy@?$char_traits@D@std@@SAPADPADPBDI@Z 100010a0 f i attributebased_cd.obj
 0001:000000b0       ?move@?$char_traits@D@std@@SAPADPADPBDI@Z 100010b0 f i attributebased_cd.obj
 0001:000000c0       ?assign@?$char_traits@D@std@@SAXAADABD@Z 100010c0 f i attributebased_cd.obj
 0001:000000d0       ?eq_int_type@?$char_traits@D@std@@SA_NABH0@Z 100010d0 f i attributebased_cd.obj
 0001:000000f0       ?eof@?$char_traits@D@std@@SAHXZ 100010f0 f i attributebased_cd.obj
 0001:00000100       ?_Adopt@_Iterator_base0@std@@QAEXPBX@Z 10001100 f i attributebased_cd.obj
 0001:00000110       ?retranslateUi@Ui_AttributeBased_cd@@QAEXPAVQWidget@@@Z 10001110 f i attributebased_cd.obj
 0001:00000bd0       ?on_lineEdit_2_returnPressed@AttributeBased_cd@@AAEXXZ 10001bd0 f   attributebased_cd.obj
 0001:00000c50       ?on_lineEdit_returnPressed@AttributeBased_cd@@AAEXXZ 10001c50 f   attributebased_cd.obj
 0001:00000cd0       ?on_lineEdit_3_returnPressed@AttributeBased_cd@@AAEXXZ 10001cd0 f   attributebased_cd.obj
 0001:00000d50       ?on_lineEdit_4_returnPressed@AttributeBased_cd@@AAEXXZ 10001d50 f   attributebased_cd.obj
 0001:00000dd0       ?on_lineEdit_5_returnPressed@AttributeBased_cd@@AAEXXZ 10001dd0 f   attributebased_cd.obj
 0001:00000e50       ?on_lineEdit_6_returnPressed@AttributeBased_cd@@AAEXXZ 10001e50 f   attributebased_cd.obj
 0001:00000ed0       ?on_lineEdit_7_returnPressed@AttributeBased_cd@@AAEXXZ 10001ed0 f   attributebased_cd.obj
 0001:00000f50       ?on_lineEdit_8_returnPressed@AttributeBased_cd@@AAEXXZ 10001f50 f   attributebased_cd.obj
 0001:00000fd0       ?on_lineEdit_9_returnPressed@AttributeBased_cd@@AAEXXZ 10001fd0 f   attributebased_cd.obj
 0001:00001050       ?on_lineEdit_10_returnPressed@AttributeBased_cd@@AAEXXZ 10002050 f   attributebased_cd.obj
 0001:000010d0       ?on_lineEdit_11_returnPressed@AttributeBased_cd@@AAEXXZ 100020d0 f   attributebased_cd.obj
 0001:00001150       ?on_lineEdit_12_returnPressed@AttributeBased_cd@@AAEXXZ 10002150 f   attributebased_cd.obj
 0001:000011d0       ?on_lineEdit_13_returnPressed@AttributeBased_cd@@AAEXXZ 100021d0 f   attributebased_cd.obj
 0001:00001250       ?on_lineEdit_14_returnPressed@AttributeBased_cd@@AAEXXZ 10002250 f   attributebased_cd.obj
 0001:000012d0       ?on_lineEdit_15_returnPressed@AttributeBased_cd@@AAEXXZ 100022d0 f   attributebased_cd.obj
 0001:00001350       ?on_lineEdit_16_returnPressed@AttributeBased_cd@@AAEXXZ 10002350 f   attributebased_cd.obj
 0001:000013d0       ?on_lineEdit_17_returnPressed@AttributeBased_cd@@AAEXXZ 100023d0 f   attributebased_cd.obj
 0001:00001450       ?on_lineEdit_18_returnPressed@AttributeBased_cd@@AAEXXZ 10002450 f   attributebased_cd.obj
 0001:000014d0       ?on_lineEdit_19_returnPressed@AttributeBased_cd@@AAEXXZ 100024d0 f   attributebased_cd.obj
 0001:00001550       ?on_lineEdit_20_returnPressed@AttributeBased_cd@@AAEXXZ 10002550 f   attributebased_cd.obj
 0001:000015d0       ?on_lineEdit_21_returnPressed@AttributeBased_cd@@AAEXXZ 100025d0 f   attributebased_cd.obj
 0001:00001650       ?on_lineEdit_22_returnPressed@AttributeBased_cd@@AAEXXZ 10002650 f   attributebased_cd.obj
 0001:000016d0       ?on_lineEdit_23_returnPressed@AttributeBased_cd@@AAEXXZ 100026d0 f   attributebased_cd.obj
 0001:00001750       ?on_lineEdit_24_returnPressed@AttributeBased_cd@@AAEXXZ 10002750 f   attributebased_cd.obj
 0001:000017d0       ?on_lineEdit_25_returnPressed@AttributeBased_cd@@AAEXXZ 100027d0 f   attributebased_cd.obj
 0001:00001850       ?on_lineEdit_26_returnPressed@AttributeBased_cd@@AAEXXZ 10002850 f   attributebased_cd.obj
 0001:000018d0       ?on_lineEdit_27_returnPressed@AttributeBased_cd@@AAEXXZ 100028d0 f   attributebased_cd.obj
 0001:00001950       ?on_lineEdit_28_returnPressed@AttributeBased_cd@@AAEXXZ 10002950 f   attributebased_cd.obj
 0001:000019d0       ?on_pushButton_2_clicked@AttributeBased_cd@@AAEXXZ 100029d0 f   attributebased_cd.obj
 0001:00001ac0       ?on_pushButton_3_clicked@AttributeBased_cd@@AAEXXZ 10002ac0 f   attributebased_cd.obj
 0001:00001bb0       ?on_pushButton_4_clicked@AttributeBased_cd@@AAEXXZ 10002bb0 f   attributebased_cd.obj
 0001:00001ca0       ?on_pushButton_5_clicked@AttributeBased_cd@@AAEXXZ 10002ca0 f   attributebased_cd.obj
 0001:00001d90       ?on_pushButton_6_clicked@AttributeBased_cd@@AAEXXZ 10002d90 f   attributebased_cd.obj
 0001:00001e70       ?on_pushButton_7_clicked@AttributeBased_cd@@AAEXXZ 10002e70 f   attributebased_cd.obj
 0001:00001f60       ?on_pushButton_8_clicked@AttributeBased_cd@@AAEXXZ 10002f60 f   attributebased_cd.obj
 0001:00002050       ?on_pushButton_9_clicked@AttributeBased_cd@@AAEXXZ 10003050 f   attributebased_cd.obj
 0001:00002140       ?on_pushButton_10_clicked@AttributeBased_cd@@AAEXXZ 10003140 f   attributebased_cd.obj
 0001:00002220       ?on_pushButton_11_clicked@AttributeBased_cd@@AAEXXZ 10003220 f   attributebased_cd.obj
 0001:000022f0       ?on_pushButton_12_clicked@AttributeBased_cd@@AAEXXZ 100032f0 f   attributebased_cd.obj
 0001:000023c0       ?on_pushButton_13_clicked@AttributeBased_cd@@AAEXXZ 100033c0 f   attributebased_cd.obj
 0001:000024b0       ?on_pushButton_14_clicked@AttributeBased_cd@@AAEXXZ 100034b0 f   attributebased_cd.obj
 0001:000025a0       ?on_pushButton_15_clicked@AttributeBased_cd@@AAEXXZ 100035a0 f   attributebased_cd.obj
 0001:00002670       ?on_pushButton_16_clicked@AttributeBased_cd@@AAEXXZ 10003670 f   attributebased_cd.obj
 0001:00002ca0       ??0?$QFlags@W4WindowType@Qt@@@@QAE@PAPAX@Z 10003ca0 f i attributebased_cd.obj
 0001:00002cb0       ??0?$QFlags@W4AlignmentFlag@Qt@@@@QAE@PAPAX@Z 10003cb0 f i attributebased_cd.obj
 0001:00002cc0       ?size@?$basic_string@DU?$char_traits@D@std@@V?$allocator@D@2@@std@@QBEIXZ 10003cc0 f i attributebased_cd.obj
 0001:00002cd0       ?size@?$vector@HV?$allocator@H@std@@@std@@QBEIXZ 10003cd0 f i attributebased_cd.obj
 0001:00002ce0       ??A?$vector@HV?$allocator@H@std@@@std@@QAEAAHI@Z 10003ce0 f i attributebased_cd.obj
 0001:00002cf0       ?_Myptr@?$basic_string@DU?$char_traits@D@std@@V?$allocator@D@2@@std@@QBEPBDXZ 10003cf0 f i attributebased_cd.obj
 0001:00002d00       ??1?$_String_val@DV?$allocator@D@std@@@std@@QAE@XZ 10003d00 f i attributebased_cd.obj
 0001:00002d10       ??0?$allocator@D@std@@QAE@XZ 10003d10 f i attributebased_cd.obj
 0001:00002d20       ??0?$allocator@D@std@@QAE@ABV01@@Z 10003d20 f i attributebased_cd.obj
 0001:00002d30       ?_Inside@?$vector@HV?$allocator@H@std@@@std@@IBE_NPBH@Z 10003d30 f i attributebased_cd.obj
 0001:00002d50       ?_Orphan_range@?$vector@HV?$allocator@H@std@@@std@@IBEXPAH0@Z 10003d50 f i attributebased_cd.obj
 0001:00002d60       ??1?$_Vector_val@HV?$allocator@H@std@@@std@@QAE@XZ 10003d60 f i attributebased_cd.obj
 0001:00002d70       ??0?$allocator@H@std@@QAE@XZ 10003d70 f i attributebased_cd.obj
 0001:00002d80       ??0?$allocator@H@std@@QAE@ABV01@@Z 10003d80 f i attributebased_cd.obj
 0001:00002d90       ??D?$_Vector_const_iterator@V?$_Vector_val@HV?$allocator@H@std@@@std@@@std@@QBEABHXZ 10003d90 f i attributebased_cd.obj
 0001:00002da0       ??E?$_Vector_const_iterator@V?$_Vector_val@HV?$allocator@H@std@@@std@@@std@@QAEAAV01@XZ 10003da0 f i attributebased_cd.obj
 0001:00002db0       ??Bsentry@?$basic_ostream@DU?$char_traits@D@std@@@std@@QBEPQ_Bool_struct@2@HXZ 10003db0 f i attributebased_cd.obj
 0001:00002dc0       ?_Myptr@?$basic_string@DU?$char_traits@D@std@@V?$allocator@D@2@@std@@QAEPADXZ 10003dc0 f i attributebased_cd.obj
 0001:00002dd0       ?_Xran@?$basic_string@DU?$char_traits@D@std@@V?$allocator@D@2@@std@@QBEXXZ 10003dd0 f i attributebased_cd.obj
 0001:00002de0       ?deallocate@?$allocator@D@std@@QAEXPADI@Z 10003de0 f i attributebased_cd.obj
 0001:00002df0       ?capacity@?$vector@HV?$allocator@H@std@@@std@@QBEIXZ 10003df0 f i attributebased_cd.obj
 0001:00002e00       ?_Xlen@?$vector@HV?$allocator@H@std@@@std@@IBEXXZ 10003e00 f i attributebased_cd.obj
 0001:00002e10       ?deallocate@?$allocator@H@std@@QAEXPAHI@Z 10003e10 f i attributebased_cd.obj
 0001:00002e20       ??0?$_Vector_const_iterator@V?$_Vector_val@HV?$allocator@H@std@@@std@@@std@@QAE@PAHPBU_Container_base0@1@@Z 10003e20 f i attributebased_cd.obj
 0001:00002e30       ?_Compat@?$_Vector_const_iterator@V?$_Vector_val@HV?$allocator@H@std@@@std@@@std@@QBEXABV12@@Z 10003e30 f i attributebased_cd.obj
 0001:00002e40       ??0_Sentry_base@?$basic_ostream@DU?$char_traits@D@std@@@std@@QAE@AAV12@@Z 10003e40 f i attributebased_cd.obj
 0001:00002e70       ??1_Sentry_base@?$basic_ostream@DU?$char_traits@D@std@@@std@@QAE@XZ 10003e70 f i attributebased_cd.obj
 0001:00002e90       ?_Xlen@?$basic_string@DU?$char_traits@D@std@@V?$allocator@D@2@@std@@QBEXXZ 10003e90 f i attributebased_cd.obj
 0001:00002ea0       ?max_size@?$allocator@H@std@@QBEIXZ 10003ea0 f i attributebased_cd.obj
 0001:00002eb0       ??Y?$_Vector_const_iterator@V?$_Vector_val@HV?$allocator@H@std@@@std@@@std@@QAEAAV01@H@Z 10003eb0 f i attributebased_cd.obj
 0001:00002ed0       ?max_size@?$allocator@D@std@@QBEIXZ 10003ed0 f i attributebased_cd.obj
 0001:00002ee0       ??$addressof@$$CBH@std@@YAPBHABH@Z 10003ee0 f i attributebased_cd.obj
 0001:00002ef0       ??$_Allocate@H@std@@YAPAHIPAH@Z 10003ef0 f i attributebased_cd.obj
 0001:00002f50       ??$_Allocate@D@std@@YAPADIPAD@Z 10003f50 f i attributebased_cd.obj
 0001:00002fb0       ??0bad_alloc@std@@QAE@ABV01@@Z 10003fb0 f i attributebased_cd.obj
 0001:00002fd0       ??$forward@AAH@std@@YAAAHAAH@Z 10003fd0 f i attributebased_cd.obj
 0001:00002fe0       ??$construct@AAH@?$allocator@H@std@@QAEXPAHAAH@Z 10003fe0 f i attributebased_cd.obj
 0001:00003000       ??$forward@ABH@std@@YAABHABH@Z 10004000 f i attributebased_cd.obj
 0001:00003010       ??$_Ptr_cat@HH@std@@YA?AU_Scalar_ptr_iterator_tag@0@PAH0@Z 10004010 f i attributebased_cd.obj
 0001:00003020       ??$_Move@PAHPAH@std@@YAPAHPAH00U_Scalar_ptr_iterator_tag@0@@Z 10004020 f i attributebased_cd.obj
 0001:00003050       ??$_Destroy_range@V?$allocator@H@std@@@std@@YAXPAH0AAV?$allocator@H@0@U_Scalar_ptr_iterator_tag@0@@Z 10004050 f i attributebased_cd.obj
 0001:00003060       ??$_Construct@HABH@std@@YAXPAHABH@Z 10004060 f i attributebased_cd.obj
 0001:00003080       ??$_Ptr_cat@V?$_Vector_const_iterator@V?$_Vector_val@HV?$allocator@H@std@@@std@@@std@@PAH@std@@YA?AU_Nonscalar_ptr_iterator_tag@0@AAV?$_Vector_const_iterator@V?$_Vector_val@HV?$allocator@H@std@@@std@@@0@AAPAH@Z 10004080 f i attributebased_cd.obj
 0001:00003090       ??$_Val_type@PAH@std@@YAPAHPAH@Z 10004090 f i attributebased_cd.obj
 0001:000030a0       ??$_Uninit_move@HHH@std@@YAPAHPAH00AAV?$allocator@H@0@0U_Scalar_ptr_iterator_tag@0@@Z 100040a0 f i attributebased_cd.obj
 0001:000030d0       ??$_Destroy@H@std@@YAXPAH@Z 100040d0 f i attributebased_cd.obj
 0001:000030f0       ?setupUi@Ui_AttributeBased_cd@@QAEXPAVQWidget@@@Z 100040f0 f i attributebased_cd.obj
 0001:00007020       ??_GQLabel@@UAEPAXI@Z      10008020 f i attributebased_cd.obj
 0001:00007020       ??_EQLabel@@UAEPAXI@Z      10008020 f i attributebased_cd.obj
 0001:00007040       ??_GQWidget@@UAEPAXI@Z     10008040 f i attributebased_cd.obj
 0001:00007040       ??_EQWidget@@UAEPAXI@Z     10008040 f i attributebased_cd.obj
 0001:00007060       ??_GQVBoxLayout@@UAEPAXI@Z 10008060 f i attributebased_cd.obj
 0001:00007060       ??_EQVBoxLayout@@UAEPAXI@Z 10008060 f i attributebased_cd.obj
 0001:00007080       ??_EQHBoxLayout@@UAEPAXI@Z 10008080 f i attributebased_cd.obj
 0001:00007080       ??_GQHBoxLayout@@UAEPAXI@Z 10008080 f i attributebased_cd.obj
 0001:000070a0       ??_EQRadioButton@@UAEPAXI@Z 100080a0 f i attributebased_cd.obj
 0001:000070a0       ??_GQRadioButton@@UAEPAXI@Z 100080a0 f i attributebased_cd.obj
 0001:000070c0       ??_GQLineEdit@@UAEPAXI@Z   100080c0 f i attributebased_cd.obj
 0001:000070c0       ??_EQLineEdit@@UAEPAXI@Z   100080c0 f i attributebased_cd.obj
 0001:000070e0       ??_GQPushButton@@UAEPAXI@Z 100080e0 f i attributebased_cd.obj
 0001:000070e0       ??_EQPushButton@@UAEPAXI@Z 100080e0 f i attributebased_cd.obj
 0001:00007100       ??_EQSplitter@@UAEPAXI@Z   10008100 f i attributebased_cd.obj
 0001:00007100       ??_GQSplitter@@UAEPAXI@Z   10008100 f i attributebased_cd.obj
 0001:00007120       ??_GQTextBrowser@@UAEPAXI@Z 10008120 f i attributebased_cd.obj
 0001:00007120       ??_EQTextBrowser@@UAEPAXI@Z 10008120 f i attributebased_cd.obj
 0001:00007140       ??_EQLabel@@W7AEPAXI@Z     10008140 f i attributebased_cd.obj
 0001:00007150       ??_EQPushButton@@W7AEPAXI@Z 10008150 f i attributebased_cd.obj
 0001:00007160       ??_EQSplitter@@W7AEPAXI@Z  10008160 f i attributebased_cd.obj
 0001:00007170       ??_EQLineEdit@@W7AEPAXI@Z  10008170 f i attributebased_cd.obj
 0001:00007180       ??_EQWidget@@W7AEPAXI@Z    10008180 f i attributebased_cd.obj
 0001:00007190       ??_EQRadioButton@@W7AEPAXI@Z 10008190 f i attributebased_cd.obj
 0001:000071a0       ??_EQTextBrowser@@W7AEPAXI@Z 100081a0 f i attributebased_cd.obj
 0001:000071b0       ??_EQVBoxLayout@@W7AEPAXI@Z 100081b0 f i attributebased_cd.obj
 0001:000071c0       ??_EQHBoxLayout@@W7AEPAXI@Z 100081c0 f i attributebased_cd.obj
 0001:000071d0       ??D?$_Vector_iterator@V?$_Vector_val@HV?$allocator@H@std@@@std@@@std@@QBEAAHXZ 100081d0 f i attributebased_cd.obj
 0001:000071e0       ??E?$_Vector_iterator@V?$_Vector_val@HV?$allocator@H@std@@@std@@@std@@QAEAAV01@XZ 100081e0 f i attributebased_cd.obj
 0001:000071f0       ??0?$_String_val@DV?$allocator@D@std@@@std@@QAE@V?$allocator@D@1@@Z 100081f0 f i attributebased_cd.obj
 0001:00007200       ?begin@?$vector@HV?$allocator@H@std@@@std@@QBE?AV?$_Vector_const_iterator@V?$_Vector_val@HV?$allocator@H@std@@@std@@@2@XZ 10008200 f i attributebased_cd.obj
 0001:00007210       ?end@?$vector@HV?$allocator@H@std@@@std@@QBE?AV?$_Vector_const_iterator@V?$_Vector_val@HV?$allocator@H@std@@@std@@@2@XZ 10008210 f i attributebased_cd.obj
 0001:00007220       ??0?$_Vector_val@HV?$allocator@H@std@@@std@@QAE@V?$allocator@H@1@@Z 10008220 f i attributebased_cd.obj
 0001:00007230       ??0?$_Vector_iterator@V?$_Vector_val@HV?$allocator@H@std@@@std@@@std@@QAE@PAHPBU_Container_base0@1@@Z 10008230 f i attributebased_cd.obj
 0001:00007240       ??8?$_Vector_const_iterator@V?$_Vector_val@HV?$allocator@H@std@@@std@@@std@@QBE_NABV01@@Z 10008240 f i attributebased_cd.obj
 0001:00007250       ??0sentry@?$basic_ostream@DU?$char_traits@D@std@@@std@@QAE@AAV12@@Z 10008250 f i attributebased_cd.obj
 0001:000072e0       ??1sentry@?$basic_ostream@DU?$char_traits@D@std@@@std@@QAE@XZ 100082e0 f i attributebased_cd.obj
 0001:00007350       ?_Eos@?$basic_string@DU?$char_traits@D@std@@V?$allocator@D@2@@std@@QAEXI@Z 10008350 f i attributebased_cd.obj
 0001:00007370       ?_Inside@?$basic_string@DU?$char_traits@D@std@@V?$allocator@D@2@@std@@QAE_NPBD@Z 10008370 f i attributebased_cd.obj
 0001:000073b0       ?max_size@?$vector@HV?$allocator@H@std@@@std@@QBEIXZ 100083b0 f i attributebased_cd.obj
 0001:000073c0       ?_Grow_to@?$vector@HV?$allocator@H@std@@@std@@IBEII@Z 100083c0 f i attributebased_cd.obj
 0001:000073f0       ?allocate@?$allocator@H@std@@QAEPAHI@Z 100083f0 f i attributebased_cd.obj
 0001:00007450       ??Y?$_Vector_iterator@V?$_Vector_val@HV?$allocator@H@std@@@std@@@std@@QAEAAV01@H@Z 10008450 f i attributebased_cd.obj
 0001:00007470       ?erase@?$basic_string@DU?$char_traits@D@std@@V?$allocator@D@2@@std@@QAEAAV12@II@Z 10008470 f i attributebased_cd.obj
 0001:000074f0       ?max_size@?$basic_string@DU?$char_traits@D@std@@V?$allocator@D@2@@std@@QBEIXZ 100084f0 f i attributebased_cd.obj
 0001:00007500       ?allocate@?$allocator@D@std@@QAEPADI@Z 10008500 f i attributebased_cd.obj
 0001:00007560       ??$?6U?$char_traits@D@std@@@std@@YAAAV?$basic_ostream@DU?$char_traits@D@std@@@0@AAV10@PBD@Z 10008560 f i attributebased_cd.obj
 0001:000077a0       ??$_Cons_val@V?$allocator@H@std@@HAAH@std@@YAXAAV?$allocator@H@0@PAHAAH@Z 100087a0 f i attributebased_cd.obj
 0001:000077c0       ??$_Move@PAHPAH@std@@YAPAHPAH00@Z 100087c0 f i attributebased_cd.obj
 0001:000077f0       ??$_Destroy_range@V?$allocator@H@std@@@std@@YAXPAH0AAV?$allocator@H@0@@Z 100087f0 f i attributebased_cd.obj
 0001:00007800       ?construct@?$allocator@H@std@@QAEXPAHABH@Z 10008800 f i attributebased_cd.obj
 0001:00007820       ??$_Uninitialized_move@PAHPAHV?$allocator@H@std@@@std@@YAPAHPAH00AAV?$allocator@H@0@@Z 10008820 f i attributebased_cd.obj
 0001:00007850       ?destroy@?$allocator@H@std@@QAEXPAH@Z 10008850 f i attributebased_cd.obj
 0001:00007860       ??0?$vector@HV?$allocator@H@std@@@std@@QAE@XZ 10008860 f i attributebased_cd.obj
 0001:00007870       ?begin@?$vector@HV?$allocator@H@std@@@std@@QAE?AV?$_Vector_iterator@V?$_Vector_val@HV?$allocator@H@std@@@std@@@2@XZ 10008870 f i attributebased_cd.obj
 0001:00007880       ?end@?$vector@HV?$allocator@H@std@@@std@@QAE?AV?$_Vector_iterator@V?$_Vector_val@HV?$allocator@H@std@@@std@@@2@XZ 10008880 f i attributebased_cd.obj
 0001:00007890       ??9?$_Vector_const_iterator@V?$_Vector_val@HV?$allocator@H@std@@@std@@@std@@QBE_NABV01@@Z 10008890 f i attributebased_cd.obj
 0001:000078a0       ?_Tidy@?$basic_string@DU?$char_traits@D@std@@V?$allocator@D@2@@std@@QAEX_NI@Z 100088a0 f i attributebased_cd.obj
 0001:000078f0       ?_Make_iter@?$vector@HV?$allocator@H@std@@@std@@QBE?AV?$_Vector_iterator@V?$_Vector_val@HV?$allocator@H@std@@@std@@@2@V?$_Vector_const_iterator@V?$_Vector_val@HV?$allocator@H@std@@@std@@@2@@Z 100088f0 f i attributebased_cd.obj
 0001:00007900       ?_Buy@?$vector@HV?$allocator@H@std@@@std@@IAE_NI@Z 10008900 f i attributebased_cd.obj
 0001:00007950       ?_Destroy@?$vector@HV?$allocator@H@std@@@std@@IAEXPAH0@Z 10008950 f i attributebased_cd.obj
 0001:00007960       ?_Tidy@?$vector@HV?$allocator@H@std@@@std@@IAEXXZ 10008960 f i attributebased_cd.obj
 0001:00007990       ??Z?$_Vector_iterator@V?$_Vector_val@HV?$allocator@H@std@@@std@@@std@@QAEAAV01@H@Z 10008990 f i attributebased_cd.obj
 0001:000079b0       ?_Copy@?$basic_string@DU?$char_traits@D@std@@V?$allocator@D@2@@std@@QAEXII@Z 100089b0 f i attributebased_cd.obj
 0001:00007b10       ??$_Cons_val@V?$allocator@H@std@@HABH@std@@YAXAAV?$allocator@H@0@PAHABH@Z 10008b10 f i attributebased_cd.obj
 0001:00007b30       ??$_Umove@PAH@?$vector@HV?$allocator@H@std@@@std@@IAEPAHPAH00@Z 10008b30 f i attributebased_cd.obj
 0001:00007b60       ??$_Dest_val@V?$allocator@H@std@@H@std@@YAXAAV?$allocator@H@0@PAH@Z 10008b60 f i attributebased_cd.obj
 0001:00007b70       ??0?$basic_string@DU?$char_traits@D@std@@V?$allocator@D@2@@std@@QAE@XZ 10008b70 f i attributebased_cd.obj
 0001:00007b90       ??1?$basic_string@DU?$char_traits@D@std@@V?$allocator@D@2@@std@@QAE@XZ 10008b90 f i attributebased_cd.obj
 0001:00007bc0       ??1?$vector@HV?$allocator@H@std@@@std@@QAE@XZ 10008bc0 f i attributebased_cd.obj
 0001:00007bf0       ?erase@?$vector@HV?$allocator@H@std@@@std@@QAE?AV?$_Vector_iterator@V?$_Vector_val@HV?$allocator@H@std@@@std@@@2@V?$_Vector_const_iterator@V?$_Vector_val@HV?$allocator@H@std@@@std@@@2@0@Z 10008bf0 f i attributebased_cd.obj
 0001:00007c40       ?clear@?$vector@HV?$allocator@H@std@@@std@@QAEXXZ 10008c40 f i attributebased_cd.obj
 0001:00007c80       ??G?$_Vector_iterator@V?$_Vector_val@HV?$allocator@H@std@@@std@@@std@@QBE?AV01@H@Z 10008c80 f i attributebased_cd.obj
 0001:00007ca0       ?_Grow@?$basic_string@DU?$char_traits@D@std@@V?$allocator@D@2@@std@@QAE_NI_N@Z 10008ca0 f i attributebased_cd.obj
 0001:00007d50       ?reserve@?$vector@HV?$allocator@H@std@@@std@@QAEXI@Z 10008d50 f i attributebased_cd.obj
 0001:00007dd0       ??$_Uninit_copy@V?$_Vector_const_iterator@V?$_Vector_val@HV?$allocator@H@std@@@std@@@std@@PAHV?$allocator@H@2@@std@@YAPAHV?$_Vector_const_iterator@V?$_Vector_val@HV?$allocator@H@std@@@std@@@0@0PAHAAV?$allocator@H@0@U_Nonscalar_ptr_iterator_tag@0@@Z 10008dd0 f i attributebased_cd.obj
 0001:00007e00       ??1AttributeBased_cd@@UAE@XZ 10008e00 f   attributebased_cd.obj
 0001:00007fb0       ??_EAttributeBased_cd@@W7AEPAXI@Z 10008fb0 f i attributebased_cd.obj
 0001:00007fc0       ?_Reserve@?$vector@HV?$allocator@H@std@@@std@@IAEXI@Z 10008fc0 f i attributebased_cd.obj
 0001:00008030       ?assign@?$basic_string@DU?$char_traits@D@std@@V?$allocator@D@2@@std@@QAEAAV12@ABV12@II@Z 10009030 f i attributebased_cd.obj
 0001:00008120       ??$_Uninitialized_copy@V?$_Vector_const_iterator@V?$_Vector_val@HV?$allocator@H@std@@@std@@@std@@PAHV?$allocator@H@2@@std@@YAPAHV?$_Vector_const_iterator@V?$_Vector_val@HV?$allocator@H@std@@@std@@@0@0PAHAAV?$allocator@H@0@@Z 10009120 f i attributebased_cd.obj
 0001:00008150       ??_EAttributeBased_cd@@UAEPAXI@Z 10009150 f i attributebased_cd.obj
 0001:00008150       ??_GAttributeBased_cd@@UAEPAXI@Z 10009150 f i attributebased_cd.obj
 0001:00008170       ?push_back@?$vector@HV?$allocator@H@std@@@std@@QAEXABH@Z 10009170 f i attributebased_cd.obj
 0001:000081e0       ?assign@?$basic_string@DU?$char_traits@D@std@@V?$allocator@D@2@@std@@QAEAAV12@PBDI@Z 100091e0 f i attributebased_cd.obj
 0001:000082e0       ?assign@?$basic_string@DU?$char_traits@D@std@@V?$allocator@D@2@@std@@QAEAAV12@PBD@Z 100092e0 f i attributebased_cd.obj
 0001:00008310       ??$_Ucopy@V?$_Vector_const_iterator@V?$_Vector_val@HV?$allocator@H@std@@@std@@@std@@@?$vector@HV?$allocator@H@std@@@std@@IAEPAHV?$_Vector_const_iterator@V?$_Vector_val@HV?$allocator@H@std@@@std@@@1@0PAH@Z 10009310 f i attributebased_cd.obj
 0001:00008340       ?on_radioButton_clicked@AttributeBased_cd@@AAEXXZ 10009340 f   attributebased_cd.obj
 0001:000093c0       ?on_radioButton_2_clicked@AttributeBased_cd@@AAEXXZ 1000a3c0 f   attributebased_cd.obj
 0001:0000a2b0       ??4?$basic_string@DU?$char_traits@D@std@@V?$allocator@D@2@@std@@QAEAAV01@PBD@Z 1000b2b0 f i attributebased_cd.obj
 0001:0000a2e0       ??0?$vector@HV?$allocator@H@std@@@std@@QAE@ABV01@@Z 1000b2e0 f i attributebased_cd.obj
 0001:0000a3a0       ??0AttributeBased_cd@@QAE@HHPAPAH00PAPAPAH1VImage@@2HPAVQWidget@@@Z 1000b3a0 f   attributebased_cd.obj
 0001:0000b360       ?on_radioButton_3_clicked@AttributeBased_cd@@AAEXXZ 1000c360 f   attributebased_cd.obj
 0001:0000b5a0       ?on_radioButton_4_clicked@AttributeBased_cd@@AAEXXZ 1000c5a0 f   attributebased_cd.obj
 0001:0000b850       ?on_radioButton_5_clicked@AttributeBased_cd@@AAEXXZ 1000c850 f   attributebased_cd.obj
 0001:0000bb00       ?on_pushButton_clicked@AttributeBased_cd@@AAEXXZ 1000cb00 f   attributebased_cd.obj
 0001:0000bd50       ?on_radioButton_6_clicked@AttributeBased_cd@@AAEXXZ 1000cd50 f   attributebased_cd.obj
 0001:0000bf90       ?on_radioButton_7_clicked@AttributeBased_cd@@AAEXXZ 1000cf90 f   attributebased_cd.obj
 0001:0000c1d0       ?on_radioButton_8_clicked@AttributeBased_cd@@AAEXXZ 1000d1d0 f   attributebased_cd.obj
 0001:0000c410       ?on_radioButton_9_clicked@AttributeBased_cd@@AAEXXZ 1000d410 f   attributebased_cd.obj
 0001:0000c6c0       ?on_radioButton_10_clicked@AttributeBased_cd@@AAEXXZ 1000d6c0 f   attributebased_cd.obj
 0001:0000c970       ?on_radioButton_11_clicked@AttributeBased_cd@@AAEXXZ 1000d970 f   attributebased_cd.obj
 0001:0000cc20       ?on_radioButton_12_clicked@AttributeBased_cd@@AAEXXZ 1000dc20 f   attributebased_cd.obj
 0001:0000ce60       ?on_radioButton_13_clicked@AttributeBased_cd@@AAEXXZ 1000de60 f   attributebased_cd.obj
 0001:0000d110       ?on_radioButton_14_clicked@AttributeBased_cd@@AAEXXZ 1000e110 f   attributebased_cd.obj
 0001:0000d3c0       ?on_radioButton_15_clicked@AttributeBased_cd@@AAEXXZ 1000e3c0 f   attributebased_cd.obj
 0001:0000d670       ?on_radioButton_16_clicked@AttributeBased_cd@@AAEXXZ 1000e670 f   attributebased_cd.obj
 0001:0000d920       ??0PlugInFactory@@QAE@XZ   1000e920 f i changeDetection.obj
 0001:0000d930       ??1PlugInFactory@@UAE@XZ   1000e930 f i changeDetection.obj
 0001:0000d940       ??_EPlugInFactory@@UAEPAXI@Z 1000e940 f i changeDetection.obj
 0001:0000d940       ??_GPlugInFactory@@UAEPAXI@Z 1000e940 f i changeDetection.obj
 0001:0000d960       ??1changeDetection@@UAE@XZ 1000e960 f   changeDetection.obj
 0001:0000d9c0       ?getWidget@changeDetection@@MBEPAVQWidget@@XZ 1000e9c0 f   changeDetection.obj
 0001:0000d9d0       ?dialogClosed@changeDetection@@IAEXXZ 1000e9d0 f   changeDetection.obj
 0001:0000d9e0       ??C?$Service@VDesktopServices@@@@QBEPAVDesktopServices@@XZ 1000e9e0 f i changeDetection.obj
 0001:0000d9f0       ?capacity@?$vector@V?$basic_string@DU?$char_traits@D@std@@V?$allocator@D@2@@std@@V?$allocator@V?$basic_string@DU?$char_traits@D@std@@V?$allocator@D@2@@std@@@2@@std@@QBEIXZ 1000e9f0 f i changeDetection.obj
 0001:0000da10       ?size@?$vector@V?$basic_string@DU?$char_traits@D@std@@V?$allocator@D@2@@std@@V?$allocator@V?$basic_string@DU?$char_traits@D@std@@V?$allocator@D@2@@std@@@2@@std@@QBEIXZ 1000ea10 f i changeDetection.obj
 0001:0000da30       ?_Inside@?$vector@V?$basic_string@DU?$char_traits@D@std@@V?$allocator@D@2@@std@@V?$allocator@V?$basic_string@DU?$char_traits@D@std@@V?$allocator@D@2@@std@@@2@@std@@IBE_NPBV?$basic_string@DU?$char_traits@D@std@@V?$allocator@D@2@@2@@Z 1000ea30 f i changeDetection.obj
 0001:0000da50       ?_Orphan_range@?$vector@V?$basic_string@DU?$char_traits@D@std@@V?$allocator@D@2@@std@@V?$allocator@V?$basic_string@DU?$char_traits@D@std@@V?$allocator@D@2@@std@@@2@@std@@IBEXPAV?$basic_string@DU?$char_traits@D@std@@V?$allocator@D@2@@2@0@Z 1000ea50 f i changeDetection.obj
 0001:0000da60       ??1?$_Vector_val@V?$basic_string@DU?$char_traits@D@std@@V?$allocator@D@2@@std@@V?$allocator@V?$basic_string@DU?$char_traits@D@std@@V?$allocator@D@2@@std@@@2@@std@@QAE@XZ 1000ea60 f i changeDetection.obj
 0001:0000da70       ??0?$allocator@V?$basic_string@DU?$char_traits@D@std@@V?$allocator@D@2@@std@@@std@@QAE@XZ 1000ea70 f i changeDetection.obj
 0001:0000da80       ??0?$allocator@V?$basic_string@DU?$char_traits@D@std@@V?$allocator@D@2@@std@@@std@@QAE@ABV01@@Z 1000ea80 f i changeDetection.obj
 0001:0000da90       ?deallocate@?$allocator@V?$basic_string@DU?$char_traits@D@std@@V?$allocator@D@2@@std@@@std@@QAEXPAV?$basic_string@DU?$char_traits@D@std@@V?$allocator@D@2@@2@I@Z 1000ea90 f i changeDetection.obj
 0001:0000daa0       ?get_allocator@?$basic_string@DU?$char_traits@D@std@@V?$allocator@D@2@@std@@QBE?AV?$allocator@D@2@XZ 1000eaa0 f i changeDetection.obj
 0001:0000dab0       ?_Xlen@?$vector@V?$basic_string@DU?$char_traits@D@std@@V?$allocator@D@2@@std@@V?$allocator@V?$basic_string@DU?$char_traits@D@std@@V?$allocator@D@2@@std@@@2@@std@@IBEXXZ 1000eab0 f i changeDetection.obj
 0001:0000dac0       ?max_size@?$allocator@V?$basic_string@DU?$char_traits@D@std@@V?$allocator@D@2@@std@@@std@@QBEIXZ 1000eac0 f i changeDetection.obj
 0001:0000dad0       ??$forward@V?$allocator@D@std@@@std@@YA$$QAV?$allocator@D@0@AAV10@@Z 1000ead0 f i changeDetection.obj
 0001:0000dae0       ??$forward@V?$basic_string@DU?$char_traits@D@std@@V?$allocator@D@2@@std@@@std@@YA$$QAV?$basic_string@DU?$char_traits@D@std@@V?$allocator@D@2@@0@AAV10@@Z 1000eae0 f i changeDetection.obj
 0001:0000daf0       ??$addressof@$$CBV?$basic_string@DU?$char_traits@D@std@@V?$allocator@D@2@@std@@@std@@YAPBV?$basic_string@DU?$char_traits@D@std@@V?$allocator@D@2@@0@ABV10@@Z 1000eaf0 f i changeDetection.obj
 0001:0000db00       ??$_Allocate@V?$basic_string@DU?$char_traits@D@std@@V?$allocator@D@2@@std@@@std@@YAPAV?$basic_string@DU?$char_traits@D@std@@V?$allocator@D@2@@0@IPAV10@@Z 1000eb00 f i changeDetection.obj
 0001:0000db70       ??$_Ptr_cat@V?$basic_string@DU?$char_traits@D@std@@V?$allocator@D@2@@std@@V12@@std@@YA?AU_Nonscalar_ptr_iterator_tag@0@PAV?$basic_string@DU?$char_traits@D@std@@V?$allocator@D@2@@0@0@Z 1000eb70 f i changeDetection.obj
 0001:0000db80       ??$forward@AAV?$basic_string@DU?$char_traits@D@std@@V?$allocator@D@2@@std@@@std@@YAAAV?$basic_string@DU?$char_traits@D@std@@V?$allocator@D@2@@0@AAV10@@Z 1000eb80 f i changeDetection.obj
 0001:0000db90       ??$forward@ABV?$basic_string@DU?$char_traits@D@std@@V?$allocator@D@2@@std@@@std@@YAABV?$basic_string@DU?$char_traits@D@std@@V?$allocator@D@2@@0@ABV10@@Z 1000eb90 f i changeDetection.obj
 0001:0000dba0       ??$?8DD@std@@YA_NABV?$allocator@D@0@0@Z 1000eba0 f i changeDetection.obj
 0001:0000dbb0       ??$_Val_type@PAV?$basic_string@DU?$char_traits@D@std@@V?$allocator@D@2@@std@@@std@@YAPAV?$basic_string@DU?$char_traits@D@std@@V?$allocator@D@2@@0@PAV10@@Z 1000ebb0 f i changeDetection.obj
 0001:0000dbc0       ??_EchangeDetection@@W7AEPAXI@Z 1000ebc0 f i changeDetection.obj
 0001:0000dbd0       ??_EchangeDetection@@WM@AEPAXI@Z 1000ebd0 f i changeDetection.obj
 0001:0000dbe0       ??_GchangeDetection@@UAEPAXI@Z 1000ebe0 f i changeDetection.obj
 0001:0000dbe0       ??_EchangeDetection@@UAEPAXI@Z 1000ebe0 f i changeDetection.obj
 0001:0000dc60       ?execute@changeDetection@@UAE_NPAVPlugInArgList@@0@Z 1000ec60 f   changeDetection.obj
 0001:0000dd20       ??0?$_Vector_val@V?$basic_string@DU?$char_traits@D@std@@V?$allocator@D@2@@std@@V?$allocator@V?$basic_string@DU?$char_traits@D@std@@V?$allocator@D@2@@std@@@2@@std@@QAE@V?$allocator@V?$basic_string@DU?$char_traits@D@std@@V?$allocator@D@2@@std@@@1@@Z 1000ed20 f i changeDetection.obj
 0001:0000dd30       ?max_size@?$vector@V?$basic_string@DU?$char_traits@D@std@@V?$allocator@D@2@@std@@V?$allocator@V?$basic_string@DU?$char_traits@D@std@@V?$allocator@D@2@@std@@@2@@std@@QBEIXZ 1000ed30 f i changeDetection.obj
 0001:0000dd40       ?_Grow_to@?$vector@V?$basic_string@DU?$char_traits@D@std@@V?$allocator@D@2@@std@@V?$allocator@V?$basic_string@DU?$char_traits@D@std@@V?$allocator@D@2@@std@@@2@@std@@IBEII@Z 1000ed40 f i changeDetection.obj
 0001:0000dd80       ?allocate@?$allocator@V?$basic_string@DU?$char_traits@D@std@@V?$allocator@D@2@@std@@@std@@QAEPAV?$basic_string@DU?$char_traits@D@std@@V?$allocator@D@2@@2@I@Z 1000ed80 f i changeDetection.obj
 0001:0000ddf0       ??$?9DD@std@@YA_NABV?$allocator@D@0@0@Z 1000edf0 f i changeDetection.obj
 0001:0000de00       ??0?$vector@V?$basic_string@DU?$char_traits@D@std@@V?$allocator@D@2@@std@@V?$allocator@V?$basic_string@DU?$char_traits@D@std@@V?$allocator@D@2@@std@@@2@@std@@QAE@XZ 1000ee00 f i changeDetection.obj
 0001:0000de10       ??_G?$basic_string@DU?$char_traits@D@std@@V?$allocator@D@2@@std@@QAEPAXI@Z 1000ee10 f i changeDetection.obj
 0001:0000de50       ??$_Destroy@V?$basic_string@DU?$char_traits@D@std@@V?$allocator@D@2@@std@@@std@@YAXPAV?$basic_string@DU?$char_traits@D@std@@V?$allocator@D@2@@0@@Z 1000ee50 f i changeDetection.obj
 0001:0000de80       ?destroy@?$allocator@V?$basic_string@DU?$char_traits@D@std@@V?$allocator@D@2@@std@@@std@@QAEXPAV?$basic_string@DU?$char_traits@D@std@@V?$allocator@D@2@@2@@Z 1000ee80 f i changeDetection.obj
 0001:0000deb0       ??0?$basic_string@DU?$char_traits@D@std@@V?$allocator@D@2@@std@@QAE@ABV01@@Z 1000eeb0 f i changeDetection.obj
 0001:0000dee0       ??0?$basic_string@DU?$char_traits@D@std@@V?$allocator@D@2@@std@@QAE@PBD@Z 1000eee0 f i changeDetection.obj
 0001:0000df20       ?assign@?$basic_string@DU?$char_traits@D@std@@V?$allocator@D@2@@std@@QAEAAV12@ABV12@@Z 1000ef20 f i changeDetection.obj
 0001:0000df40       ??$construct@AAV?$basic_string@DU?$char_traits@D@std@@V?$allocator@D@2@@std@@@?$allocator@V?$basic_string@DU?$char_traits@D@std@@V?$allocator@D@2@@std@@@std@@QAEXPAV?$basic_string@DU?$char_traits@D@std@@V?$allocator@D@2@@1@AAV21@@Z 1000ef40 f i changeDetection.obj
 0001:0000dfa0       ??$_Construct@V?$basic_string@DU?$char_traits@D@std@@V?$allocator@D@2@@std@@ABV12@@std@@YAXPAV?$basic_string@DU?$char_traits@D@std@@V?$allocator@D@2@@0@ABV10@@Z 1000efa0 f i changeDetection.obj
 0001:0000e000       ??$_Dest_val@V?$allocator@V?$basic_string@DU?$char_traits@D@std@@V?$allocator@D@2@@std@@@std@@V?$basic_string@DU?$char_traits@D@std@@V?$allocator@D@2@@2@@std@@YAXAAV?$allocator@V?$basic_string@DU?$char_traits@D@std@@V?$allocator@D@2@@std@@@0@PAV?$basic_string@DU?$char_traits@D@std@@V?$allocator@D@2@@0@@Z 1000f000 f i changeDetection.obj
 0001:0000e030       ??0changeDetection@@QAE@XZ 1000f030 f   changeDetection.obj
 0001:0000e310       ??4?$basic_string@DU?$char_traits@D@std@@V?$allocator@D@2@@std@@QAEAAV01@ABV01@@Z 1000f310 f i changeDetection.obj
 0001:0000e330       ?assign@?$basic_string@DU?$char_traits@D@std@@V?$allocator@D@2@@std@@QAEAAV12@$$QAV12@@Z 1000f330 f i changeDetection.obj
 0001:0000e3b0       ??$_Cons_val@V?$allocator@V?$basic_string@DU?$char_traits@D@std@@V?$allocator@D@2@@std@@@std@@V?$basic_string@DU?$char_traits@D@std@@V?$allocator@D@2@@2@AAV32@@std@@YAXAAV?$allocator@V?$basic_string@DU?$char_traits@D@std@@V?$allocator@D@2@@std@@@0@PAV?$basic_string@DU?$char_traits@D@std@@V?$allocator@D@2@@0@AAV20@@Z 1000f3b0 f i changeDetection.obj
 0001:0000e400       ?construct@?$allocator@V?$basic_string@DU?$char_traits@D@std@@V?$allocator@D@2@@std@@@std@@QAEXPAV?$basic_string@DU?$char_traits@D@std@@V?$allocator@D@2@@2@ABV32@@Z 1000f400 f i changeDetection.obj
 0001:0000e460       ??$_Destroy_range@V?$allocator@V?$basic_string@DU?$char_traits@D@std@@V?$allocator@D@2@@std@@@std@@@std@@YAXPAV?$basic_string@DU?$char_traits@D@std@@V?$allocator@D@2@@0@0AAV?$allocator@V?$basic_string@DU?$char_traits@D@std@@V?$allocator@D@2@@std@@@0@U_Nonscalar_ptr_iterator_tag@0@@Z 1000f460 f i changeDetection.obj
 0001:0000e4a0       ??0?$basic_string@DU?$char_traits@D@std@@V?$allocator@D@2@@std@@QAE@$$QAV01@@Z 1000f4a0 f i changeDetection.obj
 0001:0000e4d0       ??$_Cons_val@V?$allocator@V?$basic_string@DU?$char_traits@D@std@@V?$allocator@D@2@@std@@@std@@V?$basic_string@DU?$char_traits@D@std@@V?$allocator@D@2@@2@ABV32@@std@@YAXAAV?$allocator@V?$basic_string@DU?$char_traits@D@std@@V?$allocator@D@2@@std@@@0@PAV?$basic_string@DU?$char_traits@D@std@@V?$allocator@D@2@@0@ABV20@@Z 1000f4d0 f i changeDetection.obj
 0001:0000e530       ??$_Destroy_range@V?$allocator@V?$basic_string@DU?$char_traits@D@std@@V?$allocator@D@2@@std@@@std@@@std@@YAXPAV?$basic_string@DU?$char_traits@D@std@@V?$allocator@D@2@@0@0AAV?$allocator@V?$basic_string@DU?$char_traits@D@std@@V?$allocator@D@2@@std@@@0@@Z 1000f530 f i changeDetection.obj
 0001:0000e550       ?construct@?$allocator@V?$basic_string@DU?$char_traits@D@std@@V?$allocator@D@2@@std@@@std@@QAEXPAV?$basic_string@DU?$char_traits@D@std@@V?$allocator@D@2@@2@$$QAV32@@Z 1000f550 f i changeDetection.obj
 0001:0000e5a0       ?_Destroy@?$vector@V?$basic_string@DU?$char_traits@D@std@@V?$allocator@D@2@@std@@V?$allocator@V?$basic_string@DU?$char_traits@D@std@@V?$allocator@D@2@@std@@@2@@std@@IAEXPAV?$basic_string@DU?$char_traits@D@std@@V?$allocator@D@2@@2@0@Z 1000f5a0 f i changeDetection.obj
 0001:0000e5c0       ?_Tidy@?$vector@V?$basic_string@DU?$char_traits@D@std@@V?$allocator@D@2@@std@@V?$allocator@V?$basic_string@DU?$char_traits@D@std@@V?$allocator@D@2@@std@@@2@@std@@IAEXXZ 1000f5c0 f i changeDetection.obj
 0001:0000e600       ??$_Cons_val@V?$allocator@V?$basic_string@DU?$char_traits@D@std@@V?$allocator@D@2@@std@@@std@@V?$basic_string@DU?$char_traits@D@std@@V?$allocator@D@2@@2@V32@@std@@YAXAAV?$allocator@V?$basic_string@DU?$char_traits@D@std@@V?$allocator@D@2@@std@@@0@PAV?$basic_string@DU?$char_traits@D@std@@V?$allocator@D@2@@0@$$QAV20@@Z 1000f600 f i changeDetection.obj
 0001:0000e650       ??$_Uninit_move@PAV?$basic_string@DU?$char_traits@D@std@@V?$allocator@D@2@@std@@PAV12@V?$allocator@V?$basic_string@DU?$char_traits@D@std@@V?$allocator@D@2@@std@@@2@V12@@std@@YAPAV?$basic_string@DU?$char_traits@D@std@@V?$allocator@D@2@@0@PAV10@00AAV?$allocator@V?$basic_string@DU?$char_traits@D@std@@V?$allocator@D@2@@std@@@0@0U_Nonscalar_ptr_iterator_tag@0@@Z 1000f650 f i changeDetection.obj
 0001:0000e710       ??1?$vector@V?$basic_string@DU?$char_traits@D@std@@V?$allocator@D@2@@std@@V?$allocator@V?$basic_string@DU?$char_traits@D@std@@V?$allocator@D@2@@std@@@2@@std@@QAE@XZ 1000f710 f i changeDetection.obj
 0001:0000e750       ??$_Uninitialized_move@PAV?$basic_string@DU?$char_traits@D@std@@V?$allocator@D@2@@std@@PAV12@V?$allocator@V?$basic_string@DU?$char_traits@D@std@@V?$allocator@D@2@@std@@@2@@std@@YAPAV?$basic_string@DU?$char_traits@D@std@@V?$allocator@D@2@@0@PAV10@00AAV?$allocator@V?$basic_string@DU?$char_traits@D@std@@V?$allocator@D@2@@std@@@0@@Z 1000f750 f i changeDetection.obj
 0001:0000e780       ??1BasicPlugInFactory@@UAE@XZ 1000f780 f i changeDetection.obj
 0001:0000e7d0       ??0?$_Vector_const_iterator@V?$_Vector_val@V?$basic_string@DU?$char_traits@D@std@@V?$allocator@D@2@@std@@V?$allocator@V?$basic_string@DU?$char_traits@D@std@@V?$allocator@D@2@@std@@@2@@std@@@std@@QAE@PAV?$basic_string@DU?$char_traits@D@std@@V?$allocator@D@2@@1@PBU_Container_base0@1@@Z 1000f7d0 f i changeDetection.obj
 0001:0000e7e0       ??D?$_Vector_const_iterator@V?$_Vector_val@V?$basic_string@DU?$char_traits@D@std@@V?$allocator@D@2@@std@@V?$allocator@V?$basic_string@DU?$char_traits@D@std@@V?$allocator@D@2@@std@@@2@@std@@@std@@QBEABV?$basic_string@DU?$char_traits@D@std@@V?$allocator@D@2@@1@XZ 1000f7e0 f i changeDetection.obj
 0001:0000e7f0       ??E?$_Vector_const_iterator@V?$_Vector_val@V?$basic_string@DU?$char_traits@D@std@@V?$allocator@D@2@@std@@V?$allocator@V?$basic_string@DU?$char_traits@D@std@@V?$allocator@D@2@@std@@@2@@std@@@std@@QAEAAV01@XZ 1000f7f0 f i changeDetection.obj
 0001:0000e800       ?_Compat@?$_Vector_const_iterator@V?$_Vector_val@V?$basic_string@DU?$char_traits@D@std@@V?$allocator@D@2@@std@@V?$allocator@V?$basic_string@DU?$char_traits@D@std@@V?$allocator@D@2@@std@@@2@@std@@@std@@QBEXABV12@@Z 1000f800 f i changeDetection.obj
 0001:0000e810       ??$_Ptr_cat@V?$_Vector_const_iterator@V?$_Vector_val@V?$basic_string@DU?$char_traits@D@std@@V?$allocator@D@2@@std@@V?$allocator@V?$basic_string@DU?$char_traits@D@std@@V?$allocator@D@2@@std@@@2@@std@@@std@@PAV?$basic_string@DU?$char_traits@D@std@@V?$allocator@D@2@@2@@std@@YA?AU_Nonscalar_ptr_iterator_tag@0@AAV?$_Vector_const_iterator@V?$_Vector_val@V?$basic_string@DU?$char_traits@D@std@@V?$allocator@D@2@@std@@V?$allocator@V?$basic_string@DU?$char_traits@D@std@@V?$allocator@D@2@@std@@@2@@std@@@0@AAPAV?$basic_string@DU?$char_traits@D@std@@V?$allocator@D@2@@0@@Z 1000f810 f i changeDetection.obj
 0001:0000e820       ?begin@?$vector@V?$basic_string@DU?$char_traits@D@std@@V?$allocator@D@2@@std@@V?$allocator@V?$basic_string@DU?$char_traits@D@std@@V?$allocator@D@2@@std@@@2@@std@@QBE?AV?$_Vector_const_iterator@V?$_Vector_val@V?$basic_string@DU?$char_traits@D@std@@V?$allocator@D@2@@std@@V?$allocator@V?$basic_string@DU?$char_traits@D@std@@V?$allocator@D@2@@std@@@2@@std@@@2@XZ 1000f820 f i changeDetection.obj
 0001:0000e830       ?end@?$vector@V?$basic_string@DU?$char_traits@D@std@@V?$allocator@D@2@@std@@V?$allocator@V?$basic_string@DU?$char_traits@D@std@@V?$allocator@D@2@@std@@@2@@std@@QBE?AV?$_Vector_const_iterator@V?$_Vector_val@V?$basic_string@DU?$char_traits@D@std@@V?$allocator@D@2@@std@@V?$allocator@V?$basic_string@DU?$char_traits@D@std@@V?$allocator@D@2@@std@@@2@@std@@@2@XZ 1000f830 f i changeDetection.obj
 0001:0000e840       ??8?$_Vector_const_iterator@V?$_Vector_val@V?$basic_string@DU?$char_traits@D@std@@V?$allocator@D@2@@std@@V?$allocator@V?$basic_string@DU?$char_traits@D@std@@V?$allocator@D@2@@std@@@2@@std@@@std@@QBE_NABV01@@Z 1000f840 f i changeDetection.obj
 0001:0000e850       ?_Buy@?$vector@V?$basic_string@DU?$char_traits@D@std@@V?$allocator@D@2@@std@@V?$allocator@V?$basic_string@DU?$char_traits@D@std@@V?$allocator@D@2@@std@@@2@@std@@IAE_NI@Z 1000f850 f i changeDetection.obj
 0001:0000e8b0       ??9?$_Vector_const_iterator@V?$_Vector_val@V?$basic_string@DU?$char_traits@D@std@@V?$allocator@D@2@@std@@V?$allocator@V?$basic_string@DU?$char_traits@D@std@@V?$allocator@D@2@@std@@@2@@std@@@std@@QBE_NABV01@@Z 1000f8b0 f i changeDetection.obj
 0001:0000e8c0       ??$_Uninit_copy@V?$_Vector_const_iterator@V?$_Vector_val@V?$basic_string@DU?$char_traits@D@std@@V?$allocator@D@2@@std@@V?$allocator@V?$basic_string@DU?$char_traits@D@std@@V?$allocator@D@2@@std@@@2@@std@@@std@@PAV?$basic_string@DU?$char_traits@D@std@@V?$allocator@D@2@@2@V?$allocator@V?$basic_string@DU?$char_traits@D@std@@V?$allocator@D@2@@std@@@2@@std@@YAPAV?$basic_string@DU?$char_traits@D@std@@V?$allocator@D@2@@0@V?$_Vector_const_iterator@V?$_Vector_val@V?$basic_string@DU?$char_traits@D@std@@V?$allocator@D@2@@std@@V?$allocator@V?$basic_string@DU?$char_traits@D@std@@V?$allocator@D@2@@std@@@2@@std@@@0@0PAV10@AAV?$allocator@V?$basic_string@DU?$char_traits@D@std@@V?$allocator@D@2@@std@@@0@U_Nonscalar_ptr_iterator_tag@0@@Z 1000f8c0 f i changeDetection.obj
 0001:0000e970       ??$_Uninitialized_copy@V?$_Vector_const_iterator@V?$_Vector_val@V?$basic_string@DU?$char_traits@D@std@@V?$allocator@D@2@@std@@V?$allocator@V?$basic_string@DU?$char_traits@D@std@@V?$allocator@D@2@@std@@@2@@std@@@std@@PAV?$basic_string@DU?$char_traits@D@std@@V?$allocator@D@2@@2@V?$allocator@V?$basic_string@DU?$char_traits@D@std@@V?$allocator@D@2@@std@@@2@@std@@YAPAV?$basic_string@DU?$char_traits@D@std@@V?$allocator@D@2@@0@V?$_Vector_const_iterator@V?$_Vector_val@V?$basic_string@DU?$char_traits@D@std@@V?$allocator@D@2@@std@@V?$allocator@V?$basic_string@DU?$char_traits@D@std@@V?$allocator@D@2@@std@@@2@@std@@@0@0PAV10@AAV?$allocator@V?$basic_string@DU?$char_traits@D@std@@V?$allocator@D@2@@std@@@0@@Z 1000f970 f i changeDetection.obj
 0001:0000e9a0       ??$_Ucopy@V?$_Vector_const_iterator@V?$_Vector_val@V?$basic_string@DU?$char_traits@D@std@@V?$allocator@D@2@@std@@V?$allocator@V?$basic_string@DU?$char_traits@D@std@@V?$allocator@D@2@@std@@@2@@std@@@std@@@?$vector@V?$basic_string@DU?$char_traits@D@std@@V?$allocator@D@2@@std@@V?$allocator@V?$basic_string@DU?$char_traits@D@std@@V?$allocator@D@2@@std@@@2@@std@@IAEPAV?$basic_string@DU?$char_traits@D@std@@V?$allocator@D@2@@1@V?$_Vector_const_iterator@V?$_Vector_val@V?$basic_string@DU?$char_traits@D@std@@V?$allocator@D@2@@std@@V?$allocator@V?$basic_string@DU?$char_traits@D@std@@V?$allocator@D@2@@std@@@2@@std@@@1@0PAV21@@Z 1000f9a0 f i changeDetection.obj
 0001:0000e9d0       ??_GBasicPlugInFactory@@UAEPAXI@Z 1000f9d0 f i changeDetection.obj
 0001:0000e9d0       ??_EBasicPlugInFactory@@UAEPAXI@Z 1000f9d0 f i changeDetection.obj
 0001:0000ea30       ??1changeDetectionPlugInFactory@OpticksCDFPlugin@@UAE@XZ 1000fa30 f i changeDetection.obj
 0001:0000ea80       ??0?$vector@V?$basic_string@DU?$char_traits@D@std@@V?$allocator@D@2@@std@@V?$allocator@V?$basic_string@DU?$char_traits@D@std@@V?$allocator@D@2@@std@@@2@@std@@QAE@ABV01@@Z 1000fa80 f i changeDetection.obj
 0001:0000eb60       ??$_Umove@PAV?$basic_string@DU?$char_traits@D@std@@V?$allocator@D@2@@std@@@?$vector@V?$basic_string@DU?$char_traits@D@std@@V?$allocator@D@2@@std@@V?$allocator@V?$basic_string@DU?$char_traits@D@std@@V?$allocator@D@2@@std@@@2@@std@@IAEPAV?$basic_string@DU?$char_traits@D@std@@V?$allocator@D@2@@1@PAV21@00@Z 1000fb60 f i changeDetection.obj
 0001:0000eb90       ?getPlugInNames@BasicPlugInFactory@@UAE?AV?$vector@V?$basic_string@DU?$char_traits@D@std@@V?$allocator@D@2@@std@@V?$allocator@V?$basic_string@DU?$char_traits@D@std@@V?$allocator@D@2@@std@@@2@@std@@XZ 1000fb90 f i changeDetection.obj
 0001:0000ebb0       ?reserve@?$vector@V?$basic_string@DU?$char_traits@D@std@@V?$allocator@D@2@@std@@V?$allocator@V?$basic_string@DU?$char_traits@D@std@@V?$allocator@D@2@@std@@@2@@std@@QAEXI@Z 1000fbb0 f i changeDetection.obj
 0001:0000ecc0       ?_Reserve@?$vector@V?$basic_string@DU?$char_traits@D@std@@V?$allocator@D@2@@std@@V?$allocator@V?$basic_string@DU?$char_traits@D@std@@V?$allocator@D@2@@std@@@2@@std@@IAEXI@Z 1000fcc0 f i changeDetection.obj
 0001:0000ed50       ?push_back@?$vector@V?$basic_string@DU?$char_traits@D@std@@V?$allocator@D@2@@std@@V?$allocator@V?$basic_string@DU?$char_traits@D@std@@V?$allocator@D@2@@std@@@2@@std@@QAEXABV?$basic_string@DU?$char_traits@D@std@@V?$allocator@D@2@@2@@Z 1000fd50 f i changeDetection.obj
 0001:0000ee20       ?addPlugInName@BasicPlugInFactory@@AAEXV?$basic_string@DU?$char_traits@D@std@@V?$allocator@D@2@@std@@@Z 1000fe20 f i changeDetection.obj
 0001:0000ee70       ??0BasicPlugInFactory@@QAE@ABV?$basic_string@DU?$char_traits@D@std@@V?$allocator@D@2@@std@@@Z 1000fe70 f i changeDetection.obj
 0001:0000ef10       ??0changeDetectionPlugInFactory@OpticksCDFPlugin@@QAE@ABV?$basic_string@DU?$char_traits@D@std@@V?$allocator@D@2@@std@@@Z 1000ff10 f i changeDetection.obj
 0001:0000ef70       ?createPlugIn@changeDetectionPlugInFactory@OpticksCDFPlugin@@UAEPAVPlugIn@@ABV?$basic_string@DU?$char_traits@D@std@@V?$allocator@D@2@@std@@@Z 1000ff70 f i changeDetection.obj
 0001:0000efe0       ??_GchangeDetectionPlugInFactory@OpticksCDFPlugin@@UAEPAXI@Z 1000ffe0 f i changeDetection.obj
 0001:0000efe0       ??_EchangeDetectionPlugInFactory@OpticksCDFPlugin@@UAEPAXI@Z 1000ffe0 f i changeDetection.obj
 0001:0000f040       _fabsf                     10010040 f i codes.obj
 0001:0000f050       _floorf                    10010050 f i codes.obj
 0001:0000f070       _sqrtf                     10010070 f i codes.obj
 0001:0000f090       ?fabs@@YAMM@Z              10010090 f i codes.obj
 0001:0000f0a0       ?sqrt@@YAMM@Z              100100a0 f i codes.obj
 0001:0000f0c0       ??0_Container_proxy@std@@QAE@XZ 100100c0 f i codes.obj
 0001:0000f0d0       ??0_Iterator_base12@std@@QAE@XZ 100100d0 f i codes.obj
 0001:0000f0e0       ??1_Iterator_base12@std@@QAE@XZ 100100e0 f i codes.obj
 0001:0000f0f0       ?_Adopt@_Iterator_base12@std@@QAEXPBU_Container_base12@2@@Z 100100f0 f i codes.obj
 0001:0000f100       ?_Getcont@_Iterator_base12@std@@QBEPBU_Container_base12@2@XZ 10010100 f i codes.obj
 0001:0000f110       ??0QRunnable@@QAE@XZ       10010110 f i codes.obj
 0001:0000f120       ??1QRunnable@@UAE@XZ       10010120 f i codes.obj
 0001:0000f130       ??_EQRunnable@@UAEPAXI@Z   10010130 f i codes.obj
 0001:0000f130       ??_GQRunnable@@UAEPAXI@Z   10010130 f i codes.obj
 0001:0000f150       ??0?$QFutureInterface@X@@QAE@W4State@QFutureInterfaceBase@@@Z 10010150 f i codes.obj
 0001:0000f170       ??1?$QFutureInterface@X@@UAE@XZ 10010170 f i codes.obj
 0001:0000f180       ??0?$QFuture@X@@QAE@PAVQFutureInterfaceBase@@@Z 10010180 f i codes.obj
 0001:0000f1a0       ??0?$QFuture@X@@QAE@ABV0@@Z 100101a0 f i codes.obj
 0001:0000f1c0       ??1?$QFuture@X@@QAE@XZ     100101c0 f i codes.obj
 0001:0000f1d0       ?waitForFinished@?$QFuture@X@@QAEXXZ 100101d0 f i codes.obj
 0001:0000f1e0       ??4?$QFuture@X@@QAEAAV0@ABV0@@Z 100101e0 f i codes.obj
 0001:0000f200       ?future@?$QFutureInterface@X@@QAE?AV?$QFuture@X@@XZ 10010200 f i codes.obj
 0001:0000f220       ??0Object@@QAE@HHHHHH@Z    10010220 f i codes.obj
 0001:0000f2c0       ?dot_product@@YANPAN0H@Z   100102c0 f   codes.obj
 0001:0000f310       ?MatrixSubtractRow@@YAXPAUMatrixStruct@@PAN@Z 10010310 f   codes.obj
 0001:0000f350       ?MatrixMinMax@@YAXPAUMatrixStruct@@PAN1@Z 10010350 f   codes.obj
 0001:0000f3c0       ?MatrixTruncate@@YAXPAUMatrixStruct@@NN@Z 100103c0 f   codes.obj
 0001:0000f420       ?MatrixTruncRescale@@YAXPAUMatrixStruct@@NNNN@Z 10010420 f   codes.obj
 0001:0000f4b0       ?MatrixApplyFunc@@YAXPAUMatrixStruct@@P6ANN@Z@Z 100104b0 f   codes.obj
 0001:0000f500       ?MatrixSum@@YANPAUMatrixStruct@@@Z 10010500 f   codes.obj
 0001:0000f570       ?MatrixMean@@YANPAUMatrixStruct@@@Z 10010570 f   codes.obj
 0001:0000f590       ?MatrixAddValue@@YAXPAUMatrixStruct@@N@Z 10010590 f   codes.obj
 0001:0000f5d0       ?MatrixFill@@YAXPAUMatrixStruct@@N@Z 100105d0 f   codes.obj
 0001:0000f610       ?MatrixScale@@YAXPAUMatrixStruct@@N@Z 10010610 f   codes.obj
 0001:0000f650       ?MatrixReadImage@@YAXPAUMatrixStruct@@PAU_iobuf@@@Z 10010650 f   codes.obj
 0001:0000f740       ?MatrixWriteImage@@YAXPAUMatrixStruct@@PAU_iobuf@@@Z 10010740 f   codes.obj
 0001:0000f800       ?MatrixWriteVector@@YAXPAUMatrixStruct@@PAU_iobuf@@@Z 10010800 f   codes.obj
 0001:0000f850       ?MatrixWrite@@YAXPAUMatrixStruct@@PAU_iobuf@@@Z 10010850 f   codes.obj
 0001:0000f8b0       ?MatrixFromArray@@YAPAUMatrixStruct@@HHPAN@Z 100108b0 f   codes.obj
 0001:0000f910       ?MatrixCreate@@YAPAUMatrixStruct@@HH@Z 10010910 f   codes.obj
 0001:0000f960       ?MatrixFree@@YAXPAUMatrixStruct@@@Z 10010960 f   codes.obj
 0001:0000f990       ?getImageRows@Image@@QAEHXZ 10010990 f   codes.obj
 0001:0000f9a0       ?getImageCols@Image@@QAEHXZ 100109a0 f   codes.obj
 0001:0000f9b0       ?readPPMImage@@YAPAPAPAEQAHPADH@Z 100109b0 f   codes.obj
 0001:0000fca0       ?createSegmentedImageInfo@Image@@QAEXPAPAH@Z 10010ca0 f   codes.obj
 0001:0000fcf0       ?getNOB@Image@@QAEHXZ      10010cf0 f   codes.obj
 0001:0000fd00       ?getPixelData@Image@@QAEPAEHH@Z 10010d00 f   codes.obj
 0001:0000fd20       ?setObjectInfo@Object@@QAEXPAVImage@@@Z 10010d20 f   codes.obj
 0001:0000fd90       ??_E?$QFuture@X@@QAEPAXI@Z 10010d90 f i codes.obj
 0001:0000fdf0       ?calculateMean@Object@@QAEXH@Z 10010df0 f   codes.obj
 0001:0000ff10       ?valid_peak@@YAHPAHPANN@Z  10010f10 f   codes.obj
 0001:0000ff50       ?sd_histo@@YANPANHHH@Z     10010f50 f   codes.obj
 0001:000102e0       ?dir_histogram@@YAPANPAUMatrixStruct@@HH@Z 100112e0 f   codes.obj
 0001:00010550       ?new_dir_histogram@@YAPANPAUMatrixStruct@@H@Z 10011550 f   codes.obj
 0001:000107c0       ?Contrast@@YANPAUMatrixStruct@@@Z 100117c0 f   codes.obj
 0001:000108f0       ?nbr_diff@@YAPAUMatrixStruct@@PAU1@H@Z 100118f0 f   codes.obj
 0001:00010a00       ?nbr_avg@@YAPAUMatrixStruct@@PAU1@H@Z 10011a00 f   codes.obj
 0001:00010b00       ?size@?$vector@V?$vector@HV?$allocator@H@std@@@std@@V?$allocator@V?$vector@HV?$allocator@H@std@@@std@@@2@@std@@QBEIXZ 10011b00 f i codes.obj
 0001:00010b10       ??A?$vector@V?$vector@HV?$allocator@H@std@@@std@@V?$allocator@V?$vector@HV?$allocator@H@std@@@std@@@2@@std@@QAEAAV?$vector@HV?$allocator@H@std@@@1@I@Z 10011b10 f i codes.obj
 0001:00010b20       ??A?$vector@MV?$allocator@M@std@@@std@@QAEAAMI@Z 10011b20 f i codes.obj
 0001:00010b30       ?size@?$vector@V?$vector@MV?$allocator@M@std@@@std@@V?$allocator@V?$vector@MV?$allocator@M@std@@@std@@@2@@std@@QBEIXZ 10011b30 f i codes.obj
 0001:00010b40       ??A?$vector@V?$vector@MV?$allocator@M@std@@@std@@V?$allocator@V?$vector@MV?$allocator@M@std@@@std@@@2@@std@@QAEAAV?$vector@MV?$allocator@M@std@@@1@I@Z 10011b40 f i codes.obj
 0001:00010b50       ?size@?$deque@HV?$allocator@H@std@@@std@@QBEIXZ 10011b50 f i codes.obj
 0001:00010b60       ?_Inside@?$vector@V?$vector@HV?$allocator@H@std@@@std@@V?$allocator@V?$vector@HV?$allocator@H@std@@@std@@@2@@std@@IBE_NPBV?$vector@HV?$allocator@H@std@@@2@@Z 10011b60 f i codes.obj
 0001:00010b80       ?_Orphan_range@?$vector@V?$vector@HV?$allocator@H@std@@@std@@V?$allocator@V?$vector@HV?$allocator@H@std@@@std@@@2@@std@@IBEXPAV?$vector@HV?$allocator@H@std@@@2@0@Z 10011b80 f i codes.obj
 0001:00010b90       ??1?$_Vector_val@V?$vector@HV?$allocator@H@std@@@std@@V?$allocator@V?$vector@HV?$allocator@H@std@@@std@@@2@@std@@QAE@XZ 10011b90 f i codes.obj
 0001:00010ba0       ??0?$allocator@V?$vector@HV?$allocator@H@std@@@std@@@std@@QAE@XZ 10011ba0 f i codes.obj
 0001:00010bb0       ??0?$allocator@V?$vector@HV?$allocator@H@std@@@std@@@std@@QAE@ABV01@@Z 10011bb0 f i codes.obj
 0001:00010bc0       ??1?$_Vector_val@MV?$allocator@M@std@@@std@@QAE@XZ 10011bc0 f i codes.obj
 0001:00010bd0       ??0?$allocator@M@std@@QAE@XZ 10011bd0 f i codes.obj
 0001:00010be0       ?_Inside@?$vector@V?$vector@MV?$allocator@M@std@@@std@@V?$allocator@V?$vector@MV?$allocator@M@std@@@std@@@2@@std@@IBE_NPBV?$vector@MV?$allocator@M@std@@@2@@Z 10011be0 f i codes.obj
 0001:00010c00       ?_Orphan_range@?$vector@V?$vector@MV?$allocator@M@std@@@std@@V?$allocator@V?$vector@MV?$allocator@M@std@@@std@@@2@@std@@IBEXPAV?$vector@MV?$allocator@M@std@@@2@0@Z 10011c00 f i codes.obj
 0001:00010c10       ??1?$_Vector_val@V?$vector@MV?$allocator@M@std@@@std@@V?$allocator@V?$vector@MV?$allocator@M@std@@@std@@@2@@std@@QAE@XZ 10011c10 f i codes.obj
 0001:00010c20       ??0?$allocator@V?$vector@MV?$allocator@M@std@@@std@@@std@@QAE@XZ 10011c20 f i codes.obj
 0001:00010c30       ??0?$allocator@V?$vector@MV?$allocator@M@std@@@std@@@std@@QAE@ABV01@@Z 10011c30 f i codes.obj
 0001:00010c40       ??1?$_Deque_const_iterator@HV?$allocator@H@std@@@std@@QAE@XZ 10011c40 f i codes.obj
 0001:00010c50       ?empty@?$deque@HV?$allocator@H@std@@@std@@QBE_NXZ 10011c50 f i codes.obj
 0001:00010c60       ?deallocate@?$allocator@PAH@std@@QAEXPAPAHI@Z 10011c60 f i codes.obj
 0001:00010c70       ?capacity@?$vector@V?$vector@HV?$allocator@H@std@@@std@@V?$allocator@V?$vector@HV?$allocator@H@std@@@std@@@2@@std@@QBEIXZ 10011c70 f i codes.obj
 0001:00010c80       ?get_allocator@?$vector@V?$vector@HV?$allocator@H@std@@@std@@V?$allocator@V?$vector@HV?$allocator@H@std@@@std@@@2@@std@@QBE?AV?$allocator@V?$vector@HV?$allocator@H@std@@@std@@@2@XZ 10011c80 f i codes.obj
 0001:00010c90       ?_Xlen@?$vector@V?$vector@HV?$allocator@H@std@@@std@@V?$allocator@V?$vector@HV?$allocator@H@std@@@std@@@2@@std@@IBEXXZ 10011c90 f i codes.obj
 0001:00010ca0       ?deallocate@?$allocator@V?$vector@HV?$allocator@H@std@@@std@@@std@@QAEXPAV?$vector@HV?$allocator@H@std@@@2@I@Z 10011ca0 f i codes.obj
 0001:00010cb0       ?size@?$vector@MV?$allocator@M@std@@@std@@QBEIXZ 10011cb0 f i codes.obj
 0001:00010cc0       ??0?$allocator@M@std@@QAE@ABV01@@Z 10011cc0 f i codes.obj
 0001:00010cd0       ?deallocate@?$allocator@M@std@@QAEXPAMI@Z 10011cd0 f i codes.obj
 0001:00010ce0       ?capacity@?$vector@V?$vector@MV?$allocator@M@std@@@std@@V?$allocator@V?$vector@MV?$allocator@M@std@@@std@@@2@@std@@QBEIXZ 10011ce0 f i codes.obj
 0001:00010cf0       ?get_allocator@?$vector@V?$vector@MV?$allocator@M@std@@@std@@V?$allocator@V?$vector@MV?$allocator@M@std@@@std@@@2@@std@@QBE?AV?$allocator@V?$vector@MV?$allocator@M@std@@@std@@@2@XZ 10011cf0 f i codes.obj
 0001:00010d00       ?_Xlen@?$vector@V?$vector@MV?$allocator@M@std@@@std@@V?$allocator@V?$vector@MV?$allocator@M@std@@@std@@@2@@std@@IBEXXZ 10011d00 f i codes.obj
 0001:00010d10       ?deallocate@?$allocator@V?$vector@MV?$allocator@M@std@@@std@@@std@@QAEXPAV?$vector@MV?$allocator@M@std@@@2@I@Z 10011d10 f i codes.obj
 0001:00010d20       ?deallocate@?$allocator@U_Container_proxy@std@@@std@@QAEXPAU_Container_proxy@2@I@Z 10011d20 f i codes.obj
 0001:00010d30       ?_Xlen@?$deque@HV?$allocator@H@std@@@std@@IBEXXZ 10011d30 f i codes.obj
 0001:00010d40       ?max_size@?$allocator@V?$vector@HV?$allocator@H@std@@@std@@@std@@QBEIXZ 10011d40 f i codes.obj
 0001:00010d50       ?capacity@?$vector@MV?$allocator@M@std@@@std@@QBEIXZ 10011d50 f i codes.obj
 0001:00010d60       ?_Xlen@?$vector@MV?$allocator@M@std@@@std@@IBEXXZ 10011d60 f i codes.obj
 0001:00010d70       ?max_size@?$allocator@V?$vector@MV?$allocator@M@std@@@std@@@std@@QBEIXZ 10011d70 f i codes.obj
 0001:00010d80       ??D?$_Deque_const_iterator@HV?$allocator@H@std@@@std@@QBEABHXZ 10011d80 f i codes.obj
 0001:00010db0       ??D?$_Vector_const_iterator@V?$_Vector_val@V?$vector@HV?$allocator@H@std@@@std@@V?$allocator@V?$vector@HV?$allocator@H@std@@@std@@@2@@std@@@std@@QBEABV?$vector@HV?$allocator@H@std@@@1@XZ 10011db0 f i codes.obj
 0001:00010dc0       ??E?$_Vector_const_iterator@V?$_Vector_val@V?$vector@HV?$allocator@H@std@@@std@@V?$allocator@V?$vector@HV?$allocator@H@std@@@std@@@2@@std@@@std@@QAEAAV01@XZ 10011dc0 f i codes.obj
 0001:00010dd0       ??D?$_Vector_const_iterator@V?$_Vector_val@V?$vector@MV?$allocator@M@std@@@std@@V?$allocator@V?$vector@MV?$allocator@M@std@@@std@@@2@@std@@@std@@QBEABV?$vector@MV?$allocator@M@std@@@1@XZ 10011dd0 f i codes.obj
 0001:00010de0       ??E?$_Vector_const_iterator@V?$_Vector_val@V?$vector@MV?$allocator@M@std@@@std@@V?$allocator@V?$vector@MV?$allocator@M@std@@@std@@@2@@std@@@std@@QAEAAV01@XZ 10011de0 f i codes.obj
 0001:00010df0       ?max_size@?$allocator@M@std@@QBEIXZ 10011df0 f i codes.obj
 0001:00010e00       ??0?$_Vector_const_iterator@V?$_Vector_val@V?$vector@HV?$allocator@H@std@@@std@@V?$allocator@V?$vector@HV?$allocator@H@std@@@std@@@2@@std@@@std@@QAE@PAV?$vector@HV?$allocator@H@std@@@1@PBU_Container_base0@1@@Z 10011e00 f i codes.obj
 0001:00010e10       ?_Compat@?$_Vector_const_iterator@V?$_Vector_val@V?$vector@HV?$allocator@H@std@@@std@@V?$allocator@V?$vector@HV?$allocator@H@std@@@std@@@2@@std@@@std@@QBEXABV12@@Z 10011e10 f i codes.obj
 0001:00010e20       ??0?$_Vector_const_iterator@V?$_Vector_val@MV?$allocator@M@std@@@std@@@std@@QAE@PAMPBU_Container_base0@1@@Z 10011e20 f i codes.obj
 0001:00010e30       ??Y?$_Vector_const_iterator@V?$_Vector_val@MV?$allocator@M@std@@@std@@@std@@QAEAAV01@H@Z 10011e30 f i codes.obj
 0001:00010e50       ??0?$_Vector_const_iterator@V?$_Vector_val@V?$vector@MV?$allocator@M@std@@@std@@V?$allocator@V?$vector@MV?$allocator@M@std@@@std@@@2@@std@@@std@@QAE@PAV?$vector@MV?$allocator@M@std@@@1@PBU_Container_base0@1@@Z 10011e50 f i codes.obj
 0001:00010e60       ?_Compat@?$_Vector_const_iterator@V?$_Vector_val@V?$vector@MV?$allocator@M@std@@@std@@V?$allocator@V?$vector@MV?$allocator@M@std@@@std@@@2@@std@@@std@@QBEXABV12@@Z 10011e60 f i codes.obj
 0001:00010e70       ?_Setcont@?$_Deque_const_iterator@HV?$allocator@H@std@@@std@@QAEXPBV?$deque@HV?$allocator@H@std@@@2@@Z 10011e70 f i codes.obj
 0001:00010e80       ?_Compat@?$_Vector_const_iterator@V?$_Vector_val@MV?$allocator@M@std@@@std@@@std@@QBEXABV12@@Z 10011e80 f i codes.obj
 0001:00010e90       ??$_Pow_int@N@@YANNH@Z     10011e90 f i codes.obj
 0001:00010ec0       ??$move@AAH@std@@YA$$QAHAAH@Z 10011ec0 f i codes.obj
 0001:00010ed0       ??$forward@V?$vector@V?$vector@HV?$allocator@H@std@@@std@@V?$allocator@V?$vector@HV?$allocator@H@std@@@std@@@2@@std@@@std@@YA$$QAV?$vector@V?$vector@HV?$allocator@H@std@@@std@@V?$allocator@V?$vector@HV?$allocator@H@std@@@std@@@2@@0@AAV10@@Z 10011ed0 f i codes.obj
 0001:00010ee0       ??$addressof@$$CBV?$vector@HV?$allocator@H@std@@@std@@@std@@YAPBV?$vector@HV?$allocator@H@std@@@0@ABV10@@Z 10011ee0 f i codes.obj
 0001:00010ef0       ??$forward@V?$vector@V?$vector@MV?$allocator@M@std@@@std@@V?$allocator@V?$vector@MV?$allocator@M@std@@@std@@@2@@std@@@std@@YA$$QAV?$vector@V?$vector@MV?$allocator@M@std@@@std@@V?$allocator@V?$vector@MV?$allocator@M@std@@@std@@@2@@0@AAV10@@Z 10011ef0 f i codes.obj
 0001:00010f00       ??$addressof@$$CBV?$vector@MV?$allocator@M@std@@@std@@@std@@YAPBV?$vector@MV?$allocator@M@std@@@0@ABV10@@Z 10011f00 f i codes.obj
 0001:00010f10       ??$forward@H@std@@YA$$QAHAAH@Z 10011f10 f i codes.obj
 0001:00010f20       ??$?0H@?$allocator@U_Container_proxy@std@@@std@@QAE@ABV?$allocator@H@1@@Z 10011f20 f i codes.obj
 0001:00010f30       ??$forward@V?$vector@HV?$allocator@H@std@@@std@@@std@@YA$$QAV?$vector@HV?$allocator@H@std@@@0@AAV10@@Z 10011f30 f i codes.obj
 0001:00010f40       ??$forward@V?$vector@MV?$allocator@M@std@@@std@@@std@@YA$$QAV?$vector@MV?$allocator@M@std@@@0@AAV10@@Z 10011f40 f i codes.obj
 0001:00010f50       ??$?0H@?$allocator@PAH@std@@QAE@ABV?$allocator@H@1@@Z 10011f50 f i codes.obj
 0001:00010f60       ??$addressof@V?$vector@HV?$allocator@H@std@@@std@@@std@@YAPAV?$vector@HV?$allocator@H@std@@@0@AAV10@@Z 10011f60 f i codes.obj
 0001:00010f70       ??$addressof@V?$vector@MV?$allocator@M@std@@@std@@@std@@YAPAV?$vector@MV?$allocator@M@std@@@0@AAV10@@Z 10011f70 f i codes.obj
 0001:00010f80       ??$_Allocate@PAH@std@@YAPAPAHIPAPAH@Z 10011f80 f i codes.obj
 0001:00010fe0       ??$_Allocate@V?$vector@HV?$allocator@H@std@@@std@@@std@@YAPAV?$vector@HV?$allocator@H@std@@@0@IPAV10@@Z 10011fe0 f i codes.obj
 0001:00011040       ??$_Allocate@V?$vector@MV?$allocator@M@std@@@std@@@std@@YAPAV?$vector@MV?$allocator@M@std@@@0@IPAV10@@Z 10012040 f i codes.obj
 0001:000110a0       ??$_Allocate@U_Container_proxy@std@@@std@@YAPAU_Container_proxy@0@IPAU10@@Z 100120a0 f i codes.obj
 0001:00011100       ??$_Allocate@M@std@@YAPAMIPAM@Z 10012100 f i codes.obj
 0001:00011160       ?start@?$RunFunctionTaskBase@X@QtConcurrent@@QAE?AV?$QFuture@X@@XZ 10012160 f i codes.obj
 0001:00011200       ?construct@?$allocator@H@std@@QAEXPAH$$QAH@Z 10012200 f i codes.obj
 0001:00011220       ??0?$RunFunctionTaskBase@X@QtConcurrent@@QAE@XZ 10012220 f i codes.obj
 0001:00011250       ?run@?$RunFunctionTaskBase@X@QtConcurrent@@UAEXXZ 10012250 f i codes.obj
 0001:00011260       ??1?$RunFunctionTaskBase@X@QtConcurrent@@UAE@XZ 10012260 f i codes.obj
 0001:00011270       ??_G?$RunFunctionTaskBase@X@QtConcurrent@@UAEPAXI@Z 10012270 f i codes.obj
 0001:00011270       ??_E?$RunFunctionTaskBase@X@QtConcurrent@@UAEPAXI@Z 10012270 f i codes.obj
 0001:000112a0       ?begin@?$vector@V?$vector@HV?$allocator@H@std@@@std@@V?$allocator@V?$vector@HV?$allocator@H@std@@@std@@@2@@std@@QBE?AV?$_Vector_const_iterator@V?$_Vector_val@V?$vector@HV?$allocator@H@std@@@std@@V?$allocator@V?$vector@HV?$allocator@H@std@@@std@@@2@@std@@@2@XZ 100122a0 f i codes.obj
 0001:000112b0       ?end@?$vector@V?$vector@HV?$allocator@H@std@@@std@@V?$allocator@V?$vector@HV?$allocator@H@std@@@std@@@2@@std@@QBE?AV?$_Vector_const_iterator@V?$_Vector_val@V?$vector@HV?$allocator@H@std@@@std@@V?$allocator@V?$vector@HV?$allocator@H@std@@@std@@@2@@std@@@2@XZ 100122b0 f i codes.obj
 0001:000112c0       ?get_allocator@?$vector@HV?$allocator@H@std@@@std@@QBE?AV?$allocator@H@2@XZ 100122c0 f i codes.obj
 0001:000112d0       ?get_allocator@?$vector@MV?$allocator@M@std@@@std@@QBE?AV?$allocator@M@2@XZ 100122d0 f i codes.obj
 0001:000112e0       ?_Inside@?$vector@MV?$allocator@M@std@@@std@@IBE_NPBM@Z 100122e0 f i codes.obj
 0001:00011300       ?_Orphan_range@?$vector@MV?$allocator@M@std@@@std@@IBEXPAM0@Z 10012300 f i codes.obj
 0001:00011310       ??D?$_Vector_const_iterator@V?$_Vector_val@MV?$allocator@M@std@@@std@@@std@@QBEABMXZ 10012310 f i codes.obj
 0001:00011320       ??E?$_Vector_const_iterator@V?$_Vector_val@MV?$allocator@M@std@@@std@@@std@@QAEAAV01@XZ 10012320 f i codes.obj
 0001:00011330       ??$forward@AAV?$vector@HV?$allocator@H@std@@@std@@@std@@YAAAV?$vector@HV?$allocator@H@std@@@0@AAV10@@Z 10012330 f i codes.obj
 0001:00011340       ??$forward@ABV?$vector@HV?$allocator@H@std@@@std@@@std@@YAABV?$vector@HV?$allocator@H@std@@@0@ABV10@@Z 10012340 f i codes.obj
 0001:00011350       ??$forward@AAV?$vector@MV?$allocator@M@std@@@std@@@std@@YAAAV?$vector@MV?$allocator@M@std@@@0@AAV10@@Z 10012350 f i codes.obj
 0001:00011360       ??$forward@ABV?$vector@MV?$allocator@M@std@@@std@@@std@@YAABV?$vector@MV?$allocator@M@std@@@0@ABV10@@Z 10012360 f i codes.obj
 0001:00011370       ??$?8V?$vector@HV?$allocator@H@std@@@std@@V01@@std@@YA_NABV?$allocator@V?$vector@HV?$allocator@H@std@@@std@@@0@0@Z 10012370 f i codes.obj
 0001:00011380       ??$_Val_type@PAM@std@@YAPAMPAM@Z 10012380 f i codes.obj
 0001:00011390       ??$_Ptr_cat@MM@std@@YA?AU_Scalar_ptr_iterator_tag@0@PAM0@Z 10012390 f i codes.obj
 0001:000113a0       ??$?8V?$vector@MV?$allocator@M@std@@@std@@V01@@std@@YA_NABV?$allocator@V?$vector@MV?$allocator@M@std@@@std@@@0@0@Z 100123a0 f i codes.obj
 0001:000113b0       ??$_Ptr_cat@PAHPAH@std@@YA?AU_Scalar_ptr_iterator_tag@0@PAPAH0@Z 100123b0 f i codes.obj
 0001:000113c0       ??$_Uninit_copy@PAHPAH@std@@YAPAPAHPAPAH00AAV?$allocator@PAH@0@U_Scalar_ptr_iterator_tag@0@@Z 100123c0 f i codes.obj
 0001:000113f0       ??$_Val_type@PAPAH@std@@YAPAPAHPAPAH@Z 100123f0 f i codes.obj
 0001:00011400       ??$_Destroy_range@V?$allocator@PAH@std@@@std@@YAXPAPAH0AAV?$allocator@PAH@0@U_Scalar_ptr_iterator_tag@0@@Z 10012400 f i codes.obj
 0001:00011410       ??$forward@U_Container_proxy@std@@@std@@YA$$QAU_Container_proxy@0@AAU10@@Z 10012410 f i codes.obj
 0001:00011420       ??$_Ptr_cat@V?$vector@HV?$allocator@H@std@@@std@@V12@@std@@YA?AU_Nonscalar_ptr_iterator_tag@0@PAV?$vector@HV?$allocator@H@std@@@0@0@Z 10012420 f i codes.obj
 0001:00011430       ??$_Move@PAMPAM@std@@YAPAMPAM00U_Scalar_ptr_iterator_tag@0@@Z 10012430 f i codes.obj
 0001:00011460       ??$_Destroy_range@V?$allocator@M@std@@@std@@YAXPAM0AAV?$allocator@M@0@U_Scalar_ptr_iterator_tag@0@@Z 10012460 f i codes.obj
 0001:00011470       ??$_Ptr_cat@V?$vector@MV?$allocator@M@std@@@std@@V12@@std@@YA?AU_Nonscalar_ptr_iterator_tag@0@PAV?$vector@MV?$allocator@M@std@@@0@0@Z 10012470 f i codes.obj
 0001:00011480       ??$_Destroy@PAH@std@@YAXPAPAH@Z 10012480 f i codes.obj
 0001:00011490       ??$_Destroy@U_Container_proxy@std@@@std@@YAXPAU_Container_proxy@0@@Z 10012490 f i codes.obj
 0001:000114a0       ??$forward@M@std@@YA$$QAMAAM@Z 100124a0 f i codes.obj
 0001:000114b0       ??$addressof@H@std@@YAPAHAAH@Z 100124b0 f i codes.obj
 0001:000114c0       ??$addressof@M@std@@YAPAMAAM@Z 100124c0 f i codes.obj
 0001:000114d0       ?construct@?$allocator@M@std@@QAEXPAM$$QAM@Z 100124d0 f i codes.obj
 0001:000114f0       ?begin@?$vector@MV?$allocator@M@std@@@std@@QBE?AV?$_Vector_const_iterator@V?$_Vector_val@MV?$allocator@M@std@@@std@@@2@XZ 100124f0 f i codes.obj
 0001:00011500       ?end@?$vector@MV?$allocator@M@std@@@std@@QBE?AV?$_Vector_const_iterator@V?$_Vector_val@MV?$allocator@M@std@@@std@@@2@XZ 10012500 f i codes.obj
 0001:00011510       ??$_Fill_n@PAHIH@std@@YAXPAHIABH@Z 10012510 f i codes.obj
 0001:00011530       ??$_Fill_n@PAMIM@std@@YAXPAMIABM@Z 10012530 f i codes.obj
 0001:00011550       ??$_Fill_n@PAPAHIPAH@std@@YAXPAPAHIABQAH@Z 10012550 f i codes.obj
 0001:00011570       ??$_Val_type@PAV?$vector@HV?$allocator@H@std@@@std@@@std@@YAPAV?$vector@HV?$allocator@H@std@@@0@PAV10@@Z 10012570 f i codes.obj
 0001:00011580       ??$_Val_type@PAV?$vector@MV?$allocator@M@std@@@std@@@std@@YAPAV?$vector@MV?$allocator@M@std@@@0@PAV10@@Z 10012580 f i codes.obj
 0001:00011590       ??$move@AAV?$vector@HV?$allocator@H@std@@@std@@@std@@YA$$QAV?$vector@HV?$allocator@H@std@@@0@AAV10@@Z 10012590 f i codes.obj
 0001:000115a0       ??$_Uninit_move@MMM@std@@YAPAMPAM00AAV?$allocator@M@0@0U_Scalar_ptr_iterator_tag@0@@Z 100125a0 f i codes.obj
 0001:000115d0       ??$move@AAV?$vector@MV?$allocator@M@std@@@std@@@std@@YA$$QAV?$vector@MV?$allocator@M@std@@@0@AAV10@@Z 100125d0 f i codes.obj
 0001:000115e0       ??$?8HH@std@@YA_NABV?$allocator@H@0@0@Z 100125e0 f i codes.obj
 0001:000115f0       ??$?8MM@std@@YA_NABV?$allocator@M@0@0@Z 100125f0 f i codes.obj
 0001:00011600       ??$_Ptr_cat@V?$_Vector_const_iterator@V?$_Vector_val@V?$vector@HV?$allocator@H@std@@@std@@V?$allocator@V?$vector@HV?$allocator@H@std@@@std@@@2@@std@@@std@@PAV?$vector@HV?$allocator@H@std@@@2@@std@@YA?AU_Nonscalar_ptr_iterator_tag@0@AAV?$_Vector_const_iterator@V?$_Vector_val@V?$vector@HV?$allocator@H@std@@@std@@V?$allocator@V?$vector@HV?$allocator@H@std@@@std@@@2@@std@@@0@AAPAV?$vector@HV?$allocator@H@std@@@0@@Z 10012600 f i codes.obj
 0001:00011610       ??$_Ptr_cat@V?$_Vector_const_iterator@V?$_Vector_val@MV?$allocator@M@std@@@std@@@std@@PAM@std@@YA?AU_Nonscalar_ptr_iterator_tag@0@AAV?$_Vector_const_iterator@V?$_Vector_val@MV?$allocator@M@std@@@std@@@0@AAPAM@Z 10012610 f i codes.obj
 0001:00011620       ??$forward@ABM@std@@YAABMABM@Z 10012620 f i codes.obj
 0001:00011630       ??$_Construct@MABM@std@@YAXPAMABM@Z 10012630 f i codes.obj
 0001:00011650       ??$_Destroy@M@std@@YAXPAM@Z 10012650 f i codes.obj
 0001:00011660       ??_E?$RunFunctionTaskBase@X@QtConcurrent@@W7AEPAXI@Z 10012660 f i codes.obj
 0001:00011670       ?pow@@YANNH@Z              10012670 f i codes.obj
 0001:000116a0       ?canceledResult@?$QFutureInterface@X@@SA?AV1@XZ 100126a0 f i codes.obj
 0001:000116d0       ??_G?$QFutureInterface@X@@UAEPAXI@Z 100126d0 f i codes.obj
 0001:000116d0       ??_E?$QFutureInterface@X@@UAEPAXI@Z 100126d0 f i codes.obj
 0001:000116f0       ??0?$QFuture@X@@QAE@XZ     100126f0 f i codes.obj
 0001:00011750       ?MatrixFilter@@YAPAUMatrixStruct@@PAU1@0@Z 10012750 f   codes.obj
 0001:00011980       ?MatrixColSum@@YAPAUMatrixStruct@@PAU1@@Z 10012980 f   codes.obj
 0001:00011a50       ?MatrixColMean@@YAPAUMatrixStruct@@PAU1@@Z 10012a50 f   codes.obj
 0001:00011a80       ?MatrixRescale@@YAXPAUMatrixStruct@@NN@Z 10012a80 f   codes.obj
 0001:00011b00       ?MatrixCopy@@YAPAUMatrixStruct@@PAU1@@Z 10012b00 f   codes.obj
 0001:00011b80       ?Directionality@@YAXPAUMatrixStruct@@HHNPAHPAN@Z 10012b80 f   codes.obj
 0001:00012090       ?size@?$queue@HV?$deque@HV?$allocator@H@std@@@std@@@std@@QBEIXZ 10013090 f i codes.obj
 0001:000120a0       ??0?$_Vector_val@V?$vector@HV?$allocator@H@std@@@std@@V?$allocator@V?$vector@HV?$allocator@H@std@@@std@@@2@@std@@QAE@V?$allocator@V?$vector@HV?$allocator@H@std@@@std@@@1@@Z 100130a0 f i codes.obj
 0001:000120b0       ??0?$_Vector_val@MV?$allocator@M@std@@@std@@QAE@V?$allocator@M@1@@Z 100130b0 f i codes.obj
 0001:000120c0       ??0?$_Vector_val@V?$vector@MV?$allocator@M@std@@@std@@V?$allocator@V?$vector@MV?$allocator@M@std@@@std@@@2@@std@@QAE@V?$allocator@V?$vector@MV?$allocator@M@std@@@std@@@1@@Z 100130c0 f i codes.obj
 0001:000120d0       ??1?$_Deque_iterator@HV?$allocator@H@std@@@std@@QAE@XZ 100130d0 f i codes.obj
 0001:000120e0       ?max_size@?$vector@V?$vector@HV?$allocator@H@std@@@std@@V?$allocator@V?$vector@HV?$allocator@H@std@@@std@@@2@@std@@QBEIXZ 100130e0 f i codes.obj
 0001:000120f0       ?_Grow_to@?$vector@V?$vector@HV?$allocator@H@std@@@std@@V?$allocator@V?$vector@HV?$allocator@H@std@@@std@@@2@@std@@IBEII@Z 100130f0 f i codes.obj
 0001:00012120       ?max_size@?$vector@V?$vector@MV?$allocator@M@std@@@std@@V?$allocator@V?$vector@MV?$allocator@M@std@@@std@@@2@@std@@QBEIXZ 10013120 f i codes.obj
 0001:00012130       ?_Grow_to@?$vector@V?$vector@MV?$allocator@M@std@@@std@@V?$allocator@V?$vector@MV?$allocator@M@std@@@std@@@2@@std@@IBEII@Z 10013130 f i codes.obj
 0001:00012160       ??D?$_Deque_iterator@HV?$allocator@H@std@@@std@@QBEAAHXZ 10013160 f i codes.obj
 0001:00012190       ??D?$_Vector_iterator@V?$_Vector_val@V?$vector@HV?$allocator@H@std@@@std@@V?$allocator@V?$vector@HV?$allocator@H@std@@@std@@@2@@std@@@std@@QBEAAV?$vector@HV?$allocator@H@std@@@1@XZ 10013190 f i codes.obj
 0001:000121a0       ??E?$_Vector_iterator@V?$_Vector_val@V?$vector@HV?$allocator@H@std@@@std@@V?$allocator@V?$vector@HV?$allocator@H@std@@@std@@@2@@std@@@std@@QAEAAV01@XZ 100131a0 f i codes.obj
 0001:000121b0       ??D?$_Vector_iterator@V?$_Vector_val@V?$vector@MV?$allocator@M@std@@@std@@V?$allocator@V?$vector@MV?$allocator@M@std@@@std@@@2@@std@@@std@@QBEAAV?$vector@MV?$allocator@M@std@@@1@XZ 100131b0 f i codes.obj
 0001:000121c0       ??E?$_Vector_iterator@V?$_Vector_val@V?$vector@MV?$allocator@M@std@@@std@@V?$allocator@V?$vector@MV?$allocator@M@std@@@std@@@2@@std@@@std@@QAEAAV01@XZ 100131c0 f i codes.obj
 0001:000121d0       ?max_size@?$deque@HV?$allocator@H@std@@@std@@QBEIXZ 100131d0 f i codes.obj
 0001:000121e0       ?allocate@?$allocator@PAH@std@@QAEPAPAHI@Z 100131e0 f i codes.obj
 0001:00012240       ?allocate@?$allocator@V?$vector@HV?$allocator@H@std@@@std@@@std@@QAEPAV?$vector@HV?$allocator@H@std@@@2@I@Z 10013240 f i codes.obj
 0001:000122a0       ?max_size@?$vector@MV?$allocator@M@std@@@std@@QBEIXZ 100132a0 f i codes.obj
 0001:000122b0       ?_Grow_to@?$vector@MV?$allocator@M@std@@@std@@IBEII@Z 100132b0 f i codes.obj
 0001:000122e0       ?allocate@?$allocator@V?$vector@MV?$allocator@M@std@@@std@@@std@@QAEPAV?$vector@MV?$allocator@M@std@@@2@I@Z 100132e0 f i codes.obj
 0001:00012340       ?allocate@?$allocator@U_Container_proxy@std@@@std@@QAEPAU_Container_proxy@2@I@Z 10013340 f i codes.obj
 0001:000123a0       ??0?$_Vector_iterator@V?$_Vector_val@V?$vector@HV?$allocator@H@std@@@std@@V?$allocator@V?$vector@HV?$allocator@H@std@@@std@@@2@@std@@@std@@QAE@PAV?$vector@HV?$allocator@H@std@@@1@PBU_Container_base0@1@@Z 100133a0 f i codes.obj
 0001:000123b0       ??8?$_Vector_const_iterator@V?$_Vector_val@V?$vector@HV?$allocator@H@std@@@std@@V?$allocator@V?$vector@HV?$allocator@H@std@@@std@@@2@@std@@@std@@QBE_NABV01@@Z 100133b0 f i codes.obj
 0001:000123c0       ??0?$_Vector_iterator@V?$_Vector_val@MV?$allocator@M@std@@@std@@@std@@QAE@PAMPBU_Container_base0@1@@Z 100133c0 f i codes.obj
 0001:000123d0       ??Y?$_Vector_iterator@V?$_Vector_val@MV?$allocator@M@std@@@std@@@std@@QAEAAV01@H@Z 100133d0 f i codes.obj
 0001:000123f0       ??0?$_Vector_iterator@V?$_Vector_val@V?$vector@MV?$allocator@M@std@@@std@@V?$allocator@V?$vector@MV?$allocator@M@std@@@std@@@2@@std@@@std@@QAE@PAV?$vector@MV?$allocator@M@std@@@1@PBU_Container_base0@1@@Z 100133f0 f i codes.obj
 0001:00012400       ??8?$_Vector_const_iterator@V?$_Vector_val@V?$vector@MV?$allocator@M@std@@@std@@V?$allocator@V?$vector@MV?$allocator@M@std@@@std@@@2@@std@@@std@@QBE_NABV01@@Z 10013400 f i codes.obj
 0001:00012410       ?_Make_iter@?$vector@V?$vector@HV?$allocator@H@std@@@std@@V?$allocator@V?$vector@HV?$allocator@H@std@@@std@@@2@@std@@QBE?AV?$_Vector_iterator@V?$_Vector_val@V?$vector@HV?$allocator@H@std@@@std@@V?$allocator@V?$vector@HV?$allocator@H@std@@@std@@@2@@std@@@2@V?$_Vector_const_iterator@V?$_Vector_val@V?$vector@HV?$allocator@H@std@@@std@@V?$allocator@V?$vector@HV?$allocator@H@std@@@std@@@2@@std@@@2@@Z 10013410 f i codes.obj
 0001:00012420       ?allocate@?$allocator@M@std@@QAEPAMI@Z 10013420 f i codes.obj
 0001:00012480       ?_Make_iter@?$vector@V?$vector@MV?$allocator@M@std@@@std@@V?$allocator@V?$vector@MV?$allocator@M@std@@@std@@@2@@std@@QBE?AV?$_Vector_iterator@V?$_Vector_val@V?$vector@MV?$allocator@M@std@@@std@@V?$allocator@V?$vector@MV?$allocator@M@std@@@std@@@2@@std@@@2@V?$_Vector_const_iterator@V?$_Vector_val@V?$vector@MV?$allocator@M@std@@@std@@V?$allocator@V?$vector@MV?$allocator@M@std@@@std@@@2@@std@@@2@@Z 10013480 f i codes.obj
 0001:00012490       ??0?$_Deque_const_iterator@HV?$allocator@H@std@@@std@@QAE@IPBU_Container_base12@1@@Z 10013490 f i codes.obj
 0001:000124c0       ??8?$_Vector_const_iterator@V?$_Vector_val@MV?$allocator@M@std@@@std@@@std@@QBE_NABV01@@Z 100134c0 f i codes.obj
 0001:000124d0       ??$_Cons_val@V?$allocator@H@std@@HH@std@@YAXAAV?$allocator@H@0@PAH$$QAH@Z 100134d0 f i codes.obj
 0001:000124f0       ??$?9V?$vector@HV?$allocator@H@std@@@std@@V01@@std@@YA_NABV?$allocator@V?$vector@HV?$allocator@H@std@@@std@@@0@0@Z 100134f0 f i codes.obj
 0001:00012500       ??$?9V?$vector@MV?$allocator@M@std@@@std@@V01@@std@@YA_NABV?$allocator@V?$vector@MV?$allocator@M@std@@@std@@@0@0@Z 10013500 f i codes.obj
 0001:00012510       ??$_Uninitialized_copy@PAPAHPAPAHV?$allocator@PAH@std@@@std@@YAPAPAHPAPAH00AAV?$allocator@PAH@0@@Z 10013510 f i codes.obj
 0001:00012540       ??$_Destroy_range@V?$allocator@PAH@std@@@std@@YAXPAPAH0AAV?$allocator@PAH@0@@Z 10013540 f i codes.obj
 0001:00012550       ??$_Move@PAMPAM@std@@YAPAMPAM00@Z 10013550 f i codes.obj
 0001:00012580       ??$_Destroy_range@V?$allocator@M@std@@@std@@YAXPAM0AAV?$allocator@M@0@@Z 10013580 f i codes.obj
 0001:00012590       ?destroy@?$allocator@PAH@std@@QAEXPAPAH@Z 10013590 f i codes.obj
 0001:000125a0       ?construct@?$allocator@U_Container_proxy@std@@@std@@QAEXPAU_Container_proxy@2@$$QAU32@@Z 100135a0 f i codes.obj
 0001:000125c0       ?destroy@?$allocator@U_Container_proxy@std@@@std@@QAEXPAU_Container_proxy@2@@Z 100135c0 f i codes.obj
 0001:000125d0       ??0?$RunFunctionTask@X@QtConcurrent@@QAE@XZ 100135d0 f i codes.obj
 0001:00012600       ?reportFinished@?$QFutureInterface@X@@QAEXPAX@Z 10013600 f i codes.obj
 0001:00012610       ?run@?$RunFunctionTask@X@QtConcurrent@@UAEXXZ 10013610 f i codes.obj
 0001:00012640       ??_E?$RunFunctionTask@X@QtConcurrent@@W7AEPAXI@Z 10013640 f i codes.obj
 0001:00012650       ??1?$RunFunctionTask@X@QtConcurrent@@UAE@XZ 10013650 f i codes.obj
 0001:00012660       ??_G?$RunFunctionTask@X@QtConcurrent@@UAEPAXI@Z 10013660 f i codes.obj
 0001:00012660       ??_E?$RunFunctionTask@X@QtConcurrent@@UAEPAXI@Z 10013660 f i codes.obj
 0001:00012690       ?_Buy@?$vector@V?$vector@HV?$allocator@H@std@@@std@@V?$allocator@V?$vector@HV?$allocator@H@std@@@std@@@2@@std@@IAE_NI@Z 10013690 f i codes.obj
 0001:000126e0       ??D?$_Vector_iterator@V?$_Vector_val@MV?$allocator@M@std@@@std@@@std@@QBEAAMXZ 100136e0 f i codes.obj
 0001:000126f0       ??E?$_Vector_iterator@V?$_Vector_val@MV?$allocator@M@std@@@std@@@std@@QAEAAV01@XZ 100136f0 f i codes.obj
 0001:00012700       ??$_Uninit_def_fill_n@HIHH@std@@YAXPAHIPBHAAV?$allocator@H@0@0U_Scalar_ptr_iterator_tag@0@@Z 10013700 f i codes.obj
 0001:00012720       ??$_Uninit_def_fill_n@MIMM@std@@YAXPAMIPBMAAV?$allocator@M@0@0U_Scalar_ptr_iterator_tag@0@@Z 10013720 f i codes.obj
 0001:00012740       ??$_Uninit_def_fill_n@PAHIPAHPAH@std@@YAXPAPAHIPBQAHAAV?$allocator@PAH@0@0U_Scalar_ptr_iterator_tag@0@@Z 10013740 f i codes.obj
 0001:00012760       ??$_Uninitialized_move@PAMPAMV?$allocator@M@std@@@std@@YAPAMPAM00AAV?$allocator@M@0@@Z 10013760 f i codes.obj
 0001:00012790       ??$?9HH@std@@YA_NABV?$allocator@H@0@0@Z 10013790 f i codes.obj
 0001:000127a0       ??$?9MM@std@@YA_NABV?$allocator@M@0@0@Z 100137a0 f i codes.obj
 0001:000127b0       ??$_Cons_val@V?$allocator@M@std@@MM@std@@YAXAAV?$allocator@M@0@PAM$$QAM@Z 100137b0 f i codes.obj
 0001:000127d0       ?_Buy@?$vector@MV?$allocator@M@std@@@std@@IAE_NI@Z 100137d0 f i codes.obj
 0001:00012820       ?construct@?$allocator@M@std@@QAEXPAMABM@Z 10013820 f i codes.obj
 0001:00012840       ?destroy@?$allocator@M@std@@QAEXPAM@Z 10013840 f i codes.obj
 0001:00012850       ?MatrixSub@@YAPAUMatrixStruct@@PAU1@HHHH@Z 10013850 f   codes.obj
 0001:00012a10       ?Coarseness@@YANPAUMatrixStruct@@HN@Z 10013a10 f   codes.obj
 0001:00012d30       ?createAttribute@Object@@QAEXH@Z 10013d30 f   codes.obj
 0001:00013710       ??0?$vector@V?$vector@HV?$allocator@H@std@@@std@@V?$allocator@V?$vector@HV?$allocator@H@std@@@std@@@2@@std@@QAE@XZ 10014710 f i codes.obj
 0001:00013720       ??0?$vector@V?$vector@MV?$allocator@M@std@@@std@@V?$allocator@V?$vector@MV?$allocator@M@std@@@std@@@2@@std@@QAE@XZ 10014720 f i codes.obj
 0001:00013730       ?begin@?$vector@V?$vector@HV?$allocator@H@std@@@std@@V?$allocator@V?$vector@HV?$allocator@H@std@@@std@@@2@@std@@QAE?AV?$_Vector_iterator@V?$_Vector_val@V?$vector@HV?$allocator@H@std@@@std@@V?$allocator@V?$vector@HV?$allocator@H@std@@@std@@@2@@std@@@2@XZ 10014730 f i codes.obj
 0001:00013740       ?end@?$vector@V?$vector@HV?$allocator@H@std@@@std@@V?$allocator@V?$vector@HV?$allocator@H@std@@@std@@@2@@std@@QAE?AV?$_Vector_iterator@V?$_Vector_val@V?$vector@HV?$allocator@H@std@@@std@@V?$allocator@V?$vector@HV?$allocator@H@std@@@std@@@2@@std@@@2@XZ 10014740 f i codes.obj
 0001:00013750       ?begin@?$vector@MV?$allocator@M@std@@@std@@QAE?AV?$_Vector_iterator@V?$_Vector_val@MV?$allocator@M@std@@@std@@@2@XZ 10014750 f i codes.obj
 0001:00013760       ?end@?$vector@MV?$allocator@M@std@@@std@@QAE?AV?$_Vector_iterator@V?$_Vector_val@MV?$allocator@M@std@@@std@@@2@XZ 10014760 f i codes.obj
 0001:00013770       ?_Destroy@?$vector@MV?$allocator@M@std@@@std@@IAEXPAM0@Z 10014770 f i codes.obj
 0001:00013780       ?begin@?$vector@V?$vector@MV?$allocator@M@std@@@std@@V?$allocator@V?$vector@MV?$allocator@M@std@@@std@@@2@@std@@QAE?AV?$_Vector_iterator@V?$_Vector_val@V?$vector@MV?$allocator@M@std@@@std@@V?$allocator@V?$vector@MV?$allocator@M@std@@@std@@@2@@std@@@2@XZ 10014780 f i codes.obj
 0001:00013790       ?end@?$vector@V?$vector@MV?$allocator@M@std@@@std@@V?$allocator@V?$vector@MV?$allocator@M@std@@@std@@@2@@std@@QAE?AV?$_Vector_iterator@V?$_Vector_val@V?$vector@MV?$allocator@M@std@@@std@@V?$allocator@V?$vector@MV?$allocator@M@std@@@std@@@2@@std@@@2@XZ 10014790 f i codes.obj
 0001:000137a0       ??H?$_Vector_iterator@V?$_Vector_val@HV?$allocator@H@std@@@std@@@std@@QBE?AV01@H@Z 100147a0 f i codes.obj
 0001:000137c0       ??9?$_Vector_const_iterator@V?$_Vector_val@V?$vector@HV?$allocator@H@std@@@std@@V?$allocator@V?$vector@HV?$allocator@H@std@@@std@@@2@@std@@@std@@QBE_NABV01@@Z 100147c0 f i codes.obj
 0001:000137d0       ??H?$_Vector_iterator@V?$_Vector_val@MV?$allocator@M@std@@@std@@@std@@QBE?AV01@H@Z 100147d0 f i codes.obj
 0001:000137f0       ??9?$_Vector_const_iterator@V?$_Vector_val@V?$vector@MV?$allocator@M@std@@@std@@V?$allocator@V?$vector@MV?$allocator@M@std@@@std@@@2@@std@@@std@@QBE_NABV01@@Z 100147f0 f i codes.obj
 0001:00013800       ?_Make_iter@?$vector@MV?$allocator@M@std@@@std@@QBE?AV?$_Vector_iterator@V?$_Vector_val@MV?$allocator@M@std@@@std@@@2@V?$_Vector_const_iterator@V?$_Vector_val@MV?$allocator@M@std@@@std@@@2@@Z 10014800 f i codes.obj
 0001:00013810       ??0?$_Deque_iterator@HV?$allocator@H@std@@@std@@QAE@IPBU_Container_base12@1@@Z 10014810 f i codes.obj
 0001:00013840       ??9?$_Vector_const_iterator@V?$_Vector_val@MV?$allocator@M@std@@@std@@@std@@QBE_NABV01@@Z 10014840 f i codes.obj
 0001:00013850       ??$_Dest_val@V?$allocator@PAH@std@@PAH@std@@YAXAAV?$allocator@PAH@0@PAPAH@Z 10014850 f i codes.obj
 0001:00013860       ??$_Dest_val@V?$allocator@U_Container_proxy@std@@@std@@U_Container_proxy@2@@std@@YAXAAV?$allocator@U_Container_proxy@std@@@0@PAU_Container_proxy@0@@Z 10014860 f i codes.obj
 0001:00013870       ??$_Uninitialized_default_fill_n@PAHIHV?$allocator@H@std@@@std@@YAXPAHIPBHAAV?$allocator@H@0@@Z 10014870 f i codes.obj
 0001:00013890       ??$_Uninitialized_default_fill_n@PAMIMV?$allocator@M@std@@@std@@YAXPAMIPBMAAV?$allocator@M@0@@Z 10014890 f i codes.obj
 0001:000138b0       ??$_Uninitialized_default_fill_n@PAPAHIPAHV?$allocator@PAH@std@@@std@@YAXPAPAHIPBQAHAAV?$allocator@PAH@0@@Z 100148b0 f i codes.obj
 0001:000138d0       ??$_Cons_val@V?$allocator@U_Container_proxy@std@@@std@@U_Container_proxy@2@U32@@std@@YAXAAV?$allocator@U_Container_proxy@std@@@0@PAU_Container_proxy@0@$$QAU20@@Z 100148d0 f i codes.obj
 0001:000138f0       ??$_Umove@PAM@?$vector@MV?$allocator@M@std@@@std@@IAEPAMPAM00@Z 100148f0 f i codes.obj
 0001:00013920       ??$_Cons_val@V?$allocator@M@std@@MABM@std@@YAXAAV?$allocator@M@0@PAMABM@Z 10014920 f i codes.obj
 0001:00013940       ??$_Dest_val@V?$allocator@M@std@@M@std@@YAXAAV?$allocator@M@0@PAM@Z 10014940 f i codes.obj
 0001:00013950       ?pop_front@?$deque@HV?$allocator@H@std@@@std@@QAEXXZ 10014950 f i codes.obj
 0001:00013980       ??1?$_Deque_val@HV?$allocator@H@std@@@std@@QAE@XZ 10014980 f i codes.obj
 0001:000139a0       ?_Tidy@?$vector@MV?$allocator@M@std@@@std@@IAEXXZ 100149a0 f i codes.obj
 0001:000139d0       ?begin@?$deque@HV?$allocator@H@std@@@std@@QAE?AV?$_Deque_iterator@HV?$allocator@H@std@@@2@XZ 100149d0 f i codes.obj
 0001:000139f0       ?pop_back@?$deque@HV?$allocator@H@std@@@std@@QAEXXZ 100149f0 f i codes.obj
 0001:00013a10       ?_Growmap@?$deque@HV?$allocator@H@std@@@std@@IAEXI@Z 10014a10 f i codes.obj
 0001:00013b70       ??0?$_Deque_val@HV?$allocator@H@std@@@std@@QAE@V?$allocator@H@1@@Z 10014b70 f i codes.obj
 0001:00013c10       ?erase@?$vector@MV?$allocator@M@std@@@std@@QAE?AV?$_Vector_iterator@V?$_Vector_val@MV?$allocator@M@std@@@std@@@2@V?$_Vector_const_iterator@V?$_Vector_val@MV?$allocator@M@std@@@std@@@2@0@Z 10014c10 f i codes.obj
 0001:00013c60       ?reserve@?$vector@MV?$allocator@M@std@@@std@@QAEXI@Z 10014c60 f i codes.obj
 0001:00013ce0       ?clear@?$vector@MV?$allocator@M@std@@@std@@QAEXXZ 10014ce0 f i codes.obj
 0001:00013d20       ??$_Uninit_copy@V?$_Vector_const_iterator@V?$_Vector_val@MV?$allocator@M@std@@@std@@@std@@PAMV?$allocator@M@2@@std@@YAPAMV?$_Vector_const_iterator@V?$_Vector_val@MV?$allocator@M@std@@@std@@@0@0PAMAAV?$allocator@M@0@U_Nonscalar_ptr_iterator_tag@0@@Z 10014d20 f i codes.obj
 0001:00013d50       ?pop@?$queue@HV?$deque@HV?$allocator@H@std@@@std@@@std@@QAEXXZ 10014d50 f i codes.obj
 0001:00013d80       ??1?$vector@MV?$allocator@M@std@@@std@@QAE@XZ 10014d80 f i codes.obj
 0001:00013db0       ??0?$deque@HV?$allocator@H@std@@@std@@QAE@XZ 10014db0 f i codes.obj
 0001:00013e40       ?push_back@?$deque@HV?$allocator@H@std@@@std@@QAEX$$QAH@Z 10014e40 f i codes.obj
 0001:00013ef0       ?front@?$deque@HV?$allocator@H@std@@@std@@QAEAAHXZ 10014ef0 f i codes.obj
 0001:00013f30       ?_Tidy@?$deque@HV?$allocator@H@std@@@std@@IAEXXZ 10014f30 f i codes.obj
 0001:00013fa0       ?_Reserve@?$vector@MV?$allocator@M@std@@@std@@IAEXI@Z 10014fa0 f i codes.obj
 0001:00014010       ?push_back@?$vector@HV?$allocator@H@std@@@std@@QAEX$$QAH@Z 10015010 f i codes.obj
 0001:00014080       ?push_back@?$vector@MV?$allocator@M@std@@@std@@QAEX$$QAM@Z 10015080 f i codes.obj
 0001:000140f0       ??$_Uninitialized_copy@V?$_Vector_const_iterator@V?$_Vector_val@MV?$allocator@M@std@@@std@@@std@@PAMV?$allocator@M@2@@std@@YAPAMV?$_Vector_const_iterator@V?$_Vector_val@MV?$allocator@M@std@@@std@@@0@0PAMAAV?$allocator@M@0@@Z 100150f0 f i codes.obj
 0001:00014120       ??_G?$vector@HV?$allocator@H@std@@@std@@QAEPAXI@Z 10015120 f i codes.obj
 0001:00014160       ??_G?$vector@MV?$allocator@M@std@@@std@@QAEPAXI@Z 10015160 f i codes.obj
 0001:000141a0       ?push@?$queue@HV?$deque@HV?$allocator@H@std@@@std@@@std@@QAEX$$QAH@Z 100151a0 f i codes.obj
 0001:000141b0       ?front@?$queue@HV?$deque@HV?$allocator@H@std@@@std@@@std@@QAEAAHXZ 100151b0 f i codes.obj
 0001:000141f0       ??1?$deque@HV?$allocator@H@std@@@std@@QAE@XZ 100151f0 f i codes.obj
 0001:00014210       ?resize@?$vector@HV?$allocator@H@std@@@std@@QAEXI@Z 10015210 f i codes.obj
 0001:00014290       ?resize@?$vector@MV?$allocator@M@std@@@std@@QAEXI@Z 10015290 f i codes.obj
 0001:00014310       ?_Assign_rv@?$vector@HV?$allocator@H@std@@@std@@QAEX$$QAV12@@Z 10015310 f i codes.obj
 0001:00014360       ?_Assign_rv@?$vector@MV?$allocator@M@std@@@std@@QAEX$$QAV12@@Z 10015360 f i codes.obj
 0001:000143b0       ??4?$vector@HV?$allocator@H@std@@@std@@QAEAAV01@$$QAV01@@Z 100153b0 f i codes.obj
 0001:00014400       ??4?$vector@MV?$allocator@M@std@@@std@@QAEAAV01@$$QAV01@@Z 10015400 f i codes.obj
 0001:00014450       ??$_Ucopy@V?$_Vector_const_iterator@V?$_Vector_val@MV?$allocator@M@std@@@std@@@std@@@?$vector@MV?$allocator@M@std@@@std@@IAEPAMV?$_Vector_const_iterator@V?$_Vector_val@MV?$allocator@M@std@@@std@@@1@0PAM@Z 10015450 f i codes.obj
 0001:00014480       ??$_Destroy@V?$vector@HV?$allocator@H@std@@@std@@@std@@YAXPAV?$vector@HV?$allocator@H@std@@@0@@Z 10015480 f i codes.obj
 0001:000144b0       ??$_Destroy@V?$vector@MV?$allocator@M@std@@@std@@@std@@YAXPAV?$vector@MV?$allocator@M@std@@@0@@Z 100154b0 f i codes.obj
 0001:000144e0       ??1?$queue@HV?$deque@HV?$allocator@H@std@@@std@@@std@@QAE@XZ 100154e0 f i codes.obj
 0001:00014500       ??0?$queue@HV?$deque@HV?$allocator@H@std@@@std@@@std@@QAE@XZ 10015500 f i codes.obj
 0001:00014590       ??0?$vector@HV?$allocator@H@std@@@std@@QAE@I@Z 10015590 f i codes.obj
 0001:000145b0       ??0?$vector@MV?$allocator@M@std@@@std@@QAE@I@Z 100155b0 f i codes.obj
 0001:000145d0       ??0?$vector@HV?$allocator@H@std@@@std@@QAE@$$QAV01@@Z 100155d0 f i codes.obj
 0001:00014610       ??0?$vector@MV?$allocator@M@std@@@std@@QAE@$$QAV01@@Z 10015610 f i codes.obj
 0001:00014650       ??$_Move@PAV?$vector@HV?$allocator@H@std@@@std@@PAV12@@std@@YAPAV?$vector@HV?$allocator@H@std@@@0@PAV10@00U_Nonscalar_ptr_iterator_tag@0@@Z 10015650 f i codes.obj
 0001:000146c0       ??$_Move@PAV?$vector@MV?$allocator@M@std@@@std@@PAV12@@std@@YAPAV?$vector@MV?$allocator@M@std@@@0@PAV10@00U_Nonscalar_ptr_iterator_tag@0@@Z 100156c0 f i codes.obj
 0001:00014730       ??0?$vector@MV?$allocator@M@std@@@std@@QAE@ABV01@@Z 10015730 f i codes.obj
 0001:000147f0       ?destroy@?$allocator@V?$vector@HV?$allocator@H@std@@@std@@@std@@QAEXPAV?$vector@HV?$allocator@H@std@@@2@@Z 100157f0 f i codes.obj
 0001:00014820       ?destroy@?$allocator@V?$vector@MV?$allocator@M@std@@@std@@@std@@QAEXPAV?$vector@MV?$allocator@M@std@@@2@@Z 10015820 f i codes.obj
 0001:00014850       ?fillRegionStitchChunks@@YAXPAPAH0HHH0HHVImage@@@Z 10015850 f   codes.obj
 0001:00014e40       ?stitchChunks@@YAPAPAHPADHHVImage@@@Z 10015e40 f   codes.obj
 0001:00015070       ?fillRegionNewLabels@@YAHPAPAH0HHHH0HH@Z 10016070 f   codes.obj
 0001:000154b0       ?prepareNewLabels@@YAPAPAHPADHH@Z 100164b0 f   codes.obj
 0001:00015680       ?fillRegionObjectInfo@@YAXPAPAH0AAPAPAHHHHHHAAV?$vector@HV?$allocator@H@std@@@std@@HH@Z 10016680 f   codes.obj
 0001:00015960       ?fillRegionChanged@@YAXHHQAH0PAPAH1AAPAPAHHHHHHAAV?$vector@MV?$allocator@M@std@@@std@@@Z 10016960 f   codes.obj
 0001:00015c80       ??$_Move@PAV?$vector@HV?$allocator@H@std@@@std@@PAV12@@std@@YAPAV?$vector@HV?$allocator@H@std@@@0@PAV10@00@Z 10016c80 f i codes.obj
 0001:00015ca0       ??$_Move@PAV?$vector@MV?$allocator@M@std@@@std@@PAV12@@std@@YAPAV?$vector@MV?$allocator@M@std@@@0@PAV10@00@Z 10016ca0 f i codes.obj
 0001:00015cc0       ?construct@?$allocator@V?$vector@HV?$allocator@H@std@@@std@@@std@@QAEXPAV?$vector@HV?$allocator@H@std@@@2@$$QAV32@@Z 10016cc0 f i codes.obj
 0001:00015d30       ?construct@?$allocator@V?$vector@MV?$allocator@M@std@@@std@@@std@@QAEXPAV?$vector@MV?$allocator@M@std@@@2@$$QAV32@@Z 10016d30 f i codes.obj
 0001:00015da0       ??$construct@AAV?$vector@HV?$allocator@H@std@@@std@@@?$allocator@V?$vector@HV?$allocator@H@std@@@std@@@std@@QAEXPAV?$vector@HV?$allocator@H@std@@@1@AAV21@@Z 10016da0 f i codes.obj
 0001:00015df0       ??$construct@AAV?$vector@MV?$allocator@M@std@@@std@@@?$allocator@V?$vector@MV?$allocator@M@std@@@std@@@std@@QAEXPAV?$vector@MV?$allocator@M@std@@@1@AAV21@@Z 10016df0 f i codes.obj
 0001:00015e40       ??$_Construct@V?$vector@HV?$allocator@H@std@@@std@@ABV12@@std@@YAXPAV?$vector@HV?$allocator@H@std@@@0@ABV10@@Z 10016e40 f i codes.obj
 0001:00015e90       ??$_Construct@V?$vector@MV?$allocator@M@std@@@std@@ABV12@@std@@YAXPAV?$vector@MV?$allocator@M@std@@@0@ABV10@@Z 10016e90 f i codes.obj
 0001:00015ee0       ??$_Dest_val@V?$allocator@V?$vector@HV?$allocator@H@std@@@std@@@std@@V?$vector@HV?$allocator@H@std@@@2@@std@@YAXAAV?$allocator@V?$vector@HV?$allocator@H@std@@@std@@@0@PAV?$vector@HV?$allocator@H@std@@@0@@Z 10016ee0 f i codes.obj
 0001:00015f10       ??$_Dest_val@V?$allocator@V?$vector@MV?$allocator@M@std@@@std@@@std@@V?$vector@MV?$allocator@M@std@@@2@@std@@YAXAAV?$allocator@V?$vector@MV?$allocator@M@std@@@std@@@0@PAV?$vector@MV?$allocator@M@std@@@0@@Z 10016f10 f i codes.obj
 0001:00015f40       ??$_Cons_val@V?$allocator@V?$vector@HV?$allocator@H@std@@@std@@@std@@V?$vector@HV?$allocator@H@std@@@2@AAV32@@std@@YAXAAV?$allocator@V?$vector@HV?$allocator@H@std@@@std@@@0@PAV?$vector@HV?$allocator@H@std@@@0@AAV20@@Z 10016f40 f i codes.obj
 0001:00015f90       ??$_Cons_val@V?$allocator@V?$vector@MV?$allocator@M@std@@@std@@@std@@V?$vector@MV?$allocator@M@std@@@2@AAV32@@std@@YAXAAV?$allocator@V?$vector@MV?$allocator@M@std@@@std@@@0@PAV?$vector@MV?$allocator@M@std@@@0@AAV20@@Z 10016f90 f i codes.obj
 0001:00015fe0       ??$_Cons_val@V?$allocator@V?$vector@HV?$allocator@H@std@@@std@@@std@@V?$vector@HV?$allocator@H@std@@@2@V32@@std@@YAXAAV?$allocator@V?$vector@HV?$allocator@H@std@@@std@@@0@PAV?$vector@HV?$allocator@H@std@@@0@$$QAV20@@Z 10016fe0 f i codes.obj
 0001:00016050       ??$_Cons_val@V?$allocator@V?$vector@MV?$allocator@M@std@@@std@@@std@@V?$vector@MV?$allocator@M@std@@@2@V32@@std@@YAXAAV?$allocator@V?$vector@MV?$allocator@M@std@@@std@@@0@PAV?$vector@MV?$allocator@M@std@@@0@$$QAV20@@Z 10017050 f i codes.obj
 0001:000160c0       ?construct@?$allocator@V?$vector@HV?$allocator@H@std@@@std@@@std@@QAEXPAV?$vector@HV?$allocator@H@std@@@2@ABV32@@Z 100170c0 f i codes.obj
 0001:00016110       ?construct@?$allocator@V?$vector@MV?$allocator@M@std@@@std@@@std@@QAEXPAV?$vector@MV?$allocator@M@std@@@2@ABV32@@Z 10017110 f i codes.obj
 0001:00016160       ??$_Destroy_range@V?$allocator@V?$vector@HV?$allocator@H@std@@@std@@@std@@@std@@YAXPAV?$vector@HV?$allocator@H@std@@@0@0AAV?$allocator@V?$vector@HV?$allocator@H@std@@@std@@@0@U_Nonscalar_ptr_iterator_tag@0@@Z 10017160 f i codes.obj
 0001:000161a0       ??$_Destroy_range@V?$allocator@V?$vector@MV?$allocator@M@std@@@std@@@std@@@std@@YAXPAV?$vector@MV?$allocator@M@std@@@0@0AAV?$allocator@V?$vector@MV?$allocator@M@std@@@std@@@0@U_Nonscalar_ptr_iterator_tag@0@@Z 100171a0 f i codes.obj
 0001:000161e0       ??$_Uninit_move@PAV?$vector@HV?$allocator@H@std@@@std@@PAV12@V?$allocator@V?$vector@HV?$allocator@H@std@@@std@@@2@V12@@std@@YAPAV?$vector@HV?$allocator@H@std@@@0@PAV10@00AAV?$allocator@V?$vector@HV?$allocator@H@std@@@std@@@0@0U_Nonscalar_ptr_iterator_tag@0@@Z 100171e0 f i codes.obj
 0001:00016260       ??$_Uninit_move@PAV?$vector@MV?$allocator@M@std@@@std@@PAV12@V?$allocator@V?$vector@MV?$allocator@M@std@@@std@@@2@V12@@std@@YAPAV?$vector@MV?$allocator@M@std@@@0@PAV10@00AAV?$allocator@V?$vector@MV?$allocator@M@std@@@std@@@0@0U_Nonscalar_ptr_iterator_tag@0@@Z 10017260 f i codes.obj
 0001:000162e0       ??$_Cons_val@V?$allocator@V?$vector@HV?$allocator@H@std@@@std@@@std@@V?$vector@HV?$allocator@H@std@@@2@ABV32@@std@@YAXAAV?$allocator@V?$vector@HV?$allocator@H@std@@@std@@@0@PAV?$vector@HV?$allocator@H@std@@@0@ABV20@@Z 100172e0 f i codes.obj
 0001:00016330       ??$_Cons_val@V?$allocator@V?$vector@MV?$allocator@M@std@@@std@@@std@@V?$vector@MV?$allocator@M@std@@@2@ABV32@@std@@YAXAAV?$allocator@V?$vector@MV?$allocator@M@std@@@std@@@0@PAV?$vector@MV?$allocator@M@std@@@0@ABV20@@Z 10017330 f i codes.obj
 0001:00016380       ??$_Destroy_range@V?$allocator@V?$vector@HV?$allocator@H@std@@@std@@@std@@@std@@YAXPAV?$vector@HV?$allocator@H@std@@@0@0AAV?$allocator@V?$vector@HV?$allocator@H@std@@@std@@@0@@Z 10017380 f i codes.obj
 0001:000163c0       ??$_Destroy_range@V?$allocator@V?$vector@MV?$allocator@M@std@@@std@@@std@@@std@@YAXPAV?$vector@MV?$allocator@M@std@@@0@0AAV?$allocator@V?$vector@MV?$allocator@M@std@@@std@@@0@@Z 100173c0 f i codes.obj
 0001:00016400       ??$_Uninitialized_move@PAV?$vector@HV?$allocator@H@std@@@std@@PAV12@V?$allocator@V?$vector@HV?$allocator@H@std@@@std@@@2@@std@@YAPAV?$vector@HV?$allocator@H@std@@@0@PAV10@00AAV?$allocator@V?$vector@HV?$allocator@H@std@@@std@@@0@@Z 10017400 f i codes.obj
 0001:00016430       ??$_Uninitialized_move@PAV?$vector@MV?$allocator@M@std@@@std@@PAV12@V?$allocator@V?$vector@MV?$allocator@M@std@@@std@@@2@@std@@YAPAV?$vector@MV?$allocator@M@std@@@0@PAV10@00AAV?$allocator@V?$vector@MV?$allocator@M@std@@@std@@@0@@Z 10017430 f i codes.obj
 0001:00016460       ??$_Uninit_copy@V?$_Vector_const_iterator@V?$_Vector_val@V?$vector@HV?$allocator@H@std@@@std@@V?$allocator@V?$vector@HV?$allocator@H@std@@@std@@@2@@std@@@std@@PAV?$vector@HV?$allocator@H@std@@@2@V?$allocator@V?$vector@HV?$allocator@H@std@@@std@@@2@@std@@YAPAV?$vector@HV?$allocator@H@std@@@0@V?$_Vector_const_iterator@V?$_Vector_val@V?$vector@HV?$allocator@H@std@@@std@@V?$allocator@V?$vector@HV?$allocator@H@std@@@std@@@2@@std@@@0@0PAV10@AAV?$allocator@V?$vector@HV?$allocator@H@std@@@std@@@0@U_Nonscalar_ptr_iterator_tag@0@@Z 10017460 f i codes.obj
 0001:00016500       ?_Destroy@?$vector@V?$vector@HV?$allocator@H@std@@@std@@V?$allocator@V?$vector@HV?$allocator@H@std@@@std@@@2@@std@@IAEXPAV?$vector@HV?$allocator@H@std@@@2@0@Z 10017500 f i codes.obj
 0001:00016540       ?_Destroy@?$vector@V?$vector@MV?$allocator@M@std@@@std@@V?$allocator@V?$vector@MV?$allocator@M@std@@@std@@@2@@std@@IAEXPAV?$vector@MV?$allocator@M@std@@@2@0@Z 10017540 f i codes.obj
 0001:00016580       ?erase@?$vector@V?$vector@HV?$allocator@H@std@@@std@@V?$allocator@V?$vector@HV?$allocator@H@std@@@std@@@2@@std@@QAE?AV?$_Vector_iterator@V?$_Vector_val@V?$vector@HV?$allocator@H@std@@@std@@V?$allocator@V?$vector@HV?$allocator@H@std@@@std@@@2@@std@@@2@V?$_Vector_const_iterator@V?$_Vector_val@V?$vector@HV?$allocator@H@std@@@std@@V?$allocator@V?$vector@HV?$allocator@H@std@@@std@@@2@@std@@@2@0@Z 10017580 f i codes.obj
 0001:000165d0       ?erase@?$vector@V?$vector@MV?$allocator@M@std@@@std@@V?$allocator@V?$vector@MV?$allocator@M@std@@@std@@@2@@std@@QAE?AV?$_Vector_iterator@V?$_Vector_val@V?$vector@MV?$allocator@M@std@@@std@@V?$allocator@V?$vector@MV?$allocator@M@std@@@std@@@2@@std@@@2@V?$_Vector_const_iterator@V?$_Vector_val@V?$vector@MV?$allocator@M@std@@@std@@V?$allocator@V?$vector@MV?$allocator@M@std@@@std@@@2@@std@@@2@0@Z 100175d0 f i codes.obj
 0001:00016620       ??$_Umove@PAV?$vector@HV?$allocator@H@std@@@std@@@?$vector@V?$vector@HV?$allocator@H@std@@@std@@V?$allocator@V?$vector@HV?$allocator@H@std@@@std@@@2@@std@@IAEPAV?$vector@HV?$allocator@H@std@@@1@PAV21@00@Z 10017620 f i codes.obj
 0001:00016650       ??$_Umove@PAV?$vector@MV?$allocator@M@std@@@std@@@?$vector@V?$vector@MV?$allocator@M@std@@@std@@V?$allocator@V?$vector@MV?$allocator@M@std@@@std@@@2@@std@@IAEPAV?$vector@MV?$allocator@M@std@@@1@PAV21@00@Z 10017650 f i codes.obj
 0001:00016680       ??$_Uninitialized_copy@V?$_Vector_const_iterator@V?$_Vector_val@V?$vector@HV?$allocator@H@std@@@std@@V?$allocator@V?$vector@HV?$allocator@H@std@@@std@@@2@@std@@@std@@PAV?$vector@HV?$allocator@H@std@@@2@V?$allocator@V?$vector@HV?$allocator@H@std@@@std@@@2@@std@@YAPAV?$vector@HV?$allocator@H@std@@@0@V?$_Vector_const_iterator@V?$_Vector_val@V?$vector@HV?$allocator@H@std@@@std@@V?$allocator@V?$vector@HV?$allocator@H@std@@@std@@@2@@std@@@0@0PAV10@AAV?$allocator@V?$vector@HV?$allocator@H@std@@@std@@@0@@Z 10017680 f i codes.obj
 0001:000166b0       ?_Tidy@?$vector@V?$vector@HV?$allocator@H@std@@@std@@V?$allocator@V?$vector@HV?$allocator@H@std@@@std@@@2@@std@@IAEXXZ 100176b0 f i codes.obj
 0001:000166f0       ?_Tidy@?$vector@V?$vector@MV?$allocator@M@std@@@std@@V?$allocator@V?$vector@MV?$allocator@M@std@@@std@@@2@@std@@IAEXXZ 100176f0 f i codes.obj
 0001:00016730       ?reserve@?$vector@V?$vector@HV?$allocator@H@std@@@std@@V?$allocator@V?$vector@HV?$allocator@H@std@@@std@@@2@@std@@QAEXI@Z 10017730 f i codes.obj
 0001:00016810       ?clear@?$vector@V?$vector@HV?$allocator@H@std@@@std@@V?$allocator@V?$vector@HV?$allocator@H@std@@@std@@@2@@std@@QAEXXZ 10017810 f i codes.obj
 0001:00016850       ?reserve@?$vector@V?$vector@MV?$allocator@M@std@@@std@@V?$allocator@V?$vector@MV?$allocator@M@std@@@std@@@2@@std@@QAEXI@Z 10017850 f i codes.obj
 0001:00016930       ?clear@?$vector@V?$vector@MV?$allocator@M@std@@@std@@V?$allocator@V?$vector@MV?$allocator@M@std@@@std@@@2@@std@@QAEXXZ 10017930 f i codes.obj
 0001:00016970       ??$_Ucopy@V?$_Vector_const_iterator@V?$_Vector_val@V?$vector@HV?$allocator@H@std@@@std@@V?$allocator@V?$vector@HV?$allocator@H@std@@@std@@@2@@std@@@std@@@?$vector@V?$vector@HV?$allocator@H@std@@@std@@V?$allocator@V?$vector@HV?$allocator@H@std@@@std@@@2@@std@@IAEPAV?$vector@HV?$allocator@H@std@@@1@V?$_Vector_const_iterator@V?$_Vector_val@V?$vector@HV?$allocator@H@std@@@std@@V?$allocator@V?$vector@HV?$allocator@H@std@@@std@@@2@@std@@@1@0PAV21@@Z 10017970 f i codes.obj
 0001:000169a0       ??1?$vector@V?$vector@HV?$allocator@H@std@@@std@@V?$allocator@V?$vector@HV?$allocator@H@std@@@std@@@2@@std@@QAE@XZ 100179a0 f i codes.obj
 0001:000169e0       ??1?$vector@V?$vector@MV?$allocator@M@std@@@std@@V?$allocator@V?$vector@MV?$allocator@M@std@@@std@@@2@@std@@QAE@XZ 100179e0 f i codes.obj
 0001:00016a20       ?_Reserve@?$vector@V?$vector@HV?$allocator@H@std@@@std@@V?$allocator@V?$vector@HV?$allocator@H@std@@@std@@@2@@std@@IAEXI@Z 10017a20 f i codes.obj
 0001:00016a90       ?_Reserve@?$vector@V?$vector@MV?$allocator@M@std@@@std@@V?$allocator@V?$vector@MV?$allocator@M@std@@@std@@@2@@std@@IAEXI@Z 10017a90 f i codes.obj
 0001:00016b00       ?push_back@?$vector@V?$vector@HV?$allocator@H@std@@@std@@V?$allocator@V?$vector@HV?$allocator@H@std@@@std@@@2@@std@@QAEX$$QAV?$vector@HV?$allocator@H@std@@@2@@Z 10017b00 f i codes.obj
 0001:00016bb0       ?push_back@?$vector@V?$vector@MV?$allocator@M@std@@@std@@V?$allocator@V?$vector@MV?$allocator@M@std@@@std@@@2@@std@@QAEX$$QAV?$vector@MV?$allocator@M@std@@@2@@Z 10017bb0 f i codes.obj
 0001:00016c60       ??0?$vector@V?$vector@HV?$allocator@H@std@@@std@@V?$allocator@V?$vector@HV?$allocator@H@std@@@std@@@2@@std@@QAE@ABV01@@Z 10017c60 f i codes.obj
 0001:00016d20       ?callCreateAttribute@Image@@QAEXV?$vector@V?$vector@HV?$allocator@H@std@@@std@@V?$allocator@V?$vector@HV?$allocator@H@std@@@std@@@2@@std@@HH@Z 10017d20 f   codes.obj
 0001:00016ed0       ?callCalculateMean@Image@@QAEXV?$vector@V?$vector@HV?$allocator@H@std@@@std@@V?$allocator@V?$vector@HV?$allocator@H@std@@@std@@@2@@std@@HH@Z 10017ed0 f   codes.obj
 0001:00017080       ?changeReporting@@YAPAHHHMMV?$vector@V?$vector@MV?$allocator@M@std@@@std@@V?$allocator@V?$vector@MV?$allocator@M@std@@@std@@@2@@std@@PAPAH@Z 10018080 f   codes.obj
 0001:00017240       ?push_back@?$vector@V?$vector@HV?$allocator@H@std@@@std@@V?$allocator@V?$vector@HV?$allocator@H@std@@@std@@@2@@std@@QAEXABV?$vector@HV?$allocator@H@std@@@2@@Z 10018240 f i codes.obj
 0001:000172e0       ?push_back@?$vector@V?$vector@MV?$allocator@M@std@@@std@@V?$allocator@V?$vector@MV?$allocator@M@std@@@std@@@2@@std@@QAEXABV?$vector@MV?$allocator@M@std@@@2@@Z 100182e0 f i codes.obj
 0001:00017380       ?_Assign_rv@?$vector@V?$vector@HV?$allocator@H@std@@@std@@V?$allocator@V?$vector@HV?$allocator@H@std@@@std@@@2@@std@@QAEX$$QAV12@@Z 10018380 f i codes.obj
 0001:000173e0       ?_Assign_rv@?$vector@V?$vector@MV?$allocator@M@std@@@std@@V?$allocator@V?$vector@MV?$allocator@M@std@@@std@@@2@@std@@QAEX$$QAV12@@Z 100183e0 f i codes.obj
 0001:00017440       ??0?$VoidStoredMemberFunctionPointerCall3@XVImage@@V?$vector@V?$vector@HV?$allocator@H@std@@@std@@V?$allocator@V?$vector@HV?$allocator@H@std@@@std@@@2@@std@@V23@HHHH@QtConcurrent@@QAE@P8Image@@AEXV?$vector@V?$vector@HV?$allocator@H@std@@@std@@V?$allocator@V?$vector@HV?$allocator@H@std@@@std@@@2@@std@@HH@ZPAV2@ABV34@ABH4@Z 10018440 f i codes.obj
 0001:000174d0       ??_E?$VoidStoredMemberFunctionPointerCall3@XVImage@@V?$vector@V?$vector@HV?$allocator@H@std@@@std@@V?$allocator@V?$vector@HV?$allocator@H@std@@@std@@@2@@std@@V23@HHHH@QtConcurrent@@W7AEPAXI@Z 100184d0 f i codes.obj
 0001:000174e0       ??1?$VoidStoredMemberFunctionPointerCall3@XVImage@@V?$vector@V?$vector@HV?$allocator@H@std@@@std@@V?$allocator@V?$vector@HV?$allocator@H@std@@@std@@@2@@std@@V23@HHHH@QtConcurrent@@UAE@XZ 100184e0 f i codes.obj
 0001:00017530       ?runFunctor@?$VoidStoredMemberFunctionPointerCall3@XVImage@@V?$vector@V?$vector@HV?$allocator@H@std@@@std@@V?$allocator@V?$vector@HV?$allocator@H@std@@@std@@@2@@std@@V23@HHHH@QtConcurrent@@UAEXXZ 10018530 f i codes.obj
 0001:00017560       ??_G?$VoidStoredMemberFunctionPointerCall3@XVImage@@V?$vector@V?$vector@HV?$allocator@H@std@@@std@@V?$allocator@V?$vector@HV?$allocator@H@std@@@std@@@2@@std@@V23@HHHH@QtConcurrent@@UAEPAXI@Z 10018560 f i codes.obj
 0001:00017560       ??_E?$VoidStoredMemberFunctionPointerCall3@XVImage@@V?$vector@V?$vector@HV?$allocator@H@std@@@std@@V?$allocator@V?$vector@HV?$allocator@H@std@@@std@@@2@@std@@V23@HHHH@QtConcurrent@@UAEPAXI@Z 10018560 f i codes.obj
 0001:000175c0       ??0?$vector@V?$vector@HV?$allocator@H@std@@@std@@V?$allocator@V?$vector@HV?$allocator@H@std@@@std@@@2@@std@@QAE@$$QAV01@@Z 100185c0 f i codes.obj
 0001:00017600       ??0?$vector@V?$vector@MV?$allocator@M@std@@@std@@V?$allocator@V?$vector@MV?$allocator@M@std@@@std@@@2@@std@@QAE@$$QAV01@@Z 10018600 f i codes.obj
 0001:00017640       ??$run@XVImage@@V?$vector@V?$vector@HV?$allocator@H@std@@@std@@V?$allocator@V?$vector@HV?$allocator@H@std@@@std@@@2@@std@@V23@HHHH@QtConcurrent@@YA?AV?$QFuture@X@@PAVImage@@P82@AEXV?$vector@V?$vector@HV?$allocator@H@std@@@std@@V?$allocator@V?$vector@HV?$allocator@H@std@@@std@@@2@@std@@HH@ZABV34@ABH4@Z 10018640 f i codes.obj
 0001:000176c0       ?prepareObjectInfo@@YA?AV?$vector@V?$vector@HV?$allocator@H@std@@@std@@V?$allocator@V?$vector@HV?$allocator@H@std@@@std@@@2@@std@@HHPAPAH0AAPAPAHAAH@Z 100186c0 f   codes.obj
 0001:000178e0       ?createFusedObjects@Image@@QAEXHV?$vector@V?$vector@HV?$allocator@H@std@@@std@@V?$allocator@V?$vector@HV?$allocator@H@std@@@std@@@2@@std@@HPAPAPAE1@Z 100188e0 f   codes.obj
 0001:00017bc0       ?createObjects@Image@@QAEXHV?$vector@V?$vector@HV?$allocator@H@std@@@std@@V?$allocator@V?$vector@HV?$allocator@H@std@@@std@@@2@@std@@H@Z 10018bc0 f   codes.obj
 0001:00017ea0       ?changed@@YA?AV?$vector@V?$vector@MV?$allocator@M@std@@@std@@V?$allocator@V?$vector@MV?$allocator@M@std@@@std@@@2@@std@@HHPAPAH0QAH1HH@Z 10018ea0 f   codes.obj
 0001:00018180       ??1Fusion@@UAE@XZ          10019180 f   Fusion.obj
 0001:000181e0       ?getWidget@Fusion@@MBEPAVQWidget@@XZ 100191e0 f   Fusion.obj
 0001:000181f0       ?dialogClosed@Fusion@@IAEXXZ 100191f0 f   Fusion.obj
 0001:00018200       ??_EFusion@@W7AEPAXI@Z     10019200 f i Fusion.obj
 0001:00018210       ??_EFusion@@WM@AEPAXI@Z    10019210 f i Fusion.obj
 0001:00018220       ??_GFusion@@UAEPAXI@Z      10019220 f i Fusion.obj
 0001:00018220       ??_EFusion@@UAEPAXI@Z      10019220 f i Fusion.obj
 0001:000182a0       ?execute@Fusion@@UAE_NPAVPlugInArgList@@0@Z 100192a0 f   Fusion.obj
 0001:00018360       ??0Fusion@@QAE@XZ          10019360 f   Fusion.obj
 0001:00018640       ??1FusionPlugInFactory@OpticksCDFPlugin@@UAE@XZ 10019640 f i Fusion.obj
 0001:00018690       ??0FusionPlugInFactory@OpticksCDFPlugin@@QAE@ABV?$basic_string@DU?$char_traits@D@std@@V?$allocator@D@2@@std@@@Z 10019690 f i Fusion.obj
 0001:000186f0       ?createPlugIn@FusionPlugInFactory@OpticksCDFPlugin@@UAEPAVPlugIn@@ABV?$basic_string@DU?$char_traits@D@std@@V?$allocator@D@2@@std@@@Z 100196f0 f i Fusion.obj
 0001:00018760       ??_EFusionPlugInFactory@OpticksCDFPlugin@@UAEPAXI@Z 10019760 f i Fusion.obj
 0001:00018760       ??_GFusionPlugInFactory@OpticksCDFPlugin@@UAEPAXI@Z 10019760 f i Fusion.obj
 0001:000187c0       ??1missing_data@@UAE@XZ    100197c0 f   missing_data.obj
 0001:00018820       ?getWidget@missing_data@@MBEPAVQWidget@@XZ 10019820 f   missing_data.obj
 0001:00018830       ?dialogClosed@missing_data@@IAEXXZ 10019830 f   missing_data.obj
 0001:00018840       ??_Emissing_data@@W7AEPAXI@Z 10019840 f i missing_data.obj
 0001:00018850       ??_Emissing_data@@WM@AEPAXI@Z 10019850 f i missing_data.obj
 0001:00018860       ??_Emissing_data@@UAEPAXI@Z 10019860 f i missing_data.obj
 0001:00018860       ??_Gmissing_data@@UAEPAXI@Z 10019860 f i missing_data.obj
 0001:000188e0       ?execute@missing_data@@UAE_NPAVPlugInArgList@@0@Z 100198e0 f   missing_data.obj
 0001:000189a0       ??0missing_data@@QAE@XZ    100199a0 f   missing_data.obj
 0001:00018c80       ??1missing_dataPlugInFactory@OpticksCDFPlugin@@UAE@XZ 10019c80 f i missing_data.obj
 0001:00018cd0       ??0missing_dataPlugInFactory@OpticksCDFPlugin@@QAE@ABV?$basic_string@DU?$char_traits@D@std@@V?$allocator@D@2@@std@@@Z 10019cd0 f i missing_data.obj
 0001:00018d30       ?createPlugIn@missing_dataPlugInFactory@OpticksCDFPlugin@@UAEPAVPlugIn@@ABV?$basic_string@DU?$char_traits@D@std@@V?$allocator@D@2@@std@@@Z 10019d30 f i missing_data.obj
 0001:00018da0       ??_Gmissing_dataPlugInFactory@OpticksCDFPlugin@@UAEPAXI@Z 10019da0 f i missing_data.obj
 0001:00018da0       ??_Emissing_dataPlugInFactory@OpticksCDFPlugin@@UAEPAXI@Z 10019da0 f i missing_data.obj
 0001:00018e00       ?qt_noop@@YAXXZ            10019e00 f i mainwindow_cd.obj
 0001:00018e10       ??0Image@@QAE@XZ           10019e10 f i mainwindow_cd.obj
 0001:00018e30       ??0Image@@QAE@HHHPAPAPAE@Z 10019e30 f i mainwindow_cd.obj
 0001:00018ea0       ?tr@MainWindow_cd@@SA?AVQString@@PBD0@Z 10019ea0 f i mainwindow_cd.obj
 0001:00018ed0       ?retranslateUi@Ui_MainWindow_cd@@QAEXPAVQDialog@@@Z 10019ed0 f i mainwindow_cd.obj
 0001:000196e0       ?on_radioButton_clicked@MainWindow_cd@@AAEXXZ 1001a6e0 f   mainwindow_cd.obj
 0001:00019700       ?on_radioButton_2_clicked@MainWindow_cd@@AAEXXZ 1001a700 f   mainwindow_cd.obj
 0001:00019720       ??0?$QFlags@W4OpenModeFlag@QIODevice@@@@QAE@W4OpenModeFlag@QIODevice@@@Z 1001a720 f i mainwindow_cd.obj
 0001:00019730       ??0?$QFlags@W4Option@QFileDialog@@@@QAE@ABV0@@Z 1001a730 f i mainwindow_cd.obj
 0001:00019740       ??0?$QFlags@W4Option@QFileDialog@@@@QAE@W4Option@QFileDialog@@@Z 1001a740 f i mainwindow_cd.obj
 0001:00019750       ??0?$QFlags@W4Option@QFileDialog@@@@QAE@PAPAX@Z 1001a750 f i mainwindow_cd.obj
 0001:00019760       ??U?$QFlags@W4Option@QFileDialog@@@@QBE?AV0@W4Option@QFileDialog@@@Z 1001a760 f i mainwindow_cd.obj
 0001:00019770       ??0?$QFlags@W4StandardButton@QMessageBox@@@@QAE@W4StandardButton@QMessageBox@@@Z 1001a770 f i mainwindow_cd.obj
 0001:00019780       ?isEmpty@?$QList@VQString@@@@QBE_NXZ 1001a780 f i mainwindow_cd.obj
 0001:00019790       ??Fiterator@?$QList@VQString@@@@QAEAAV01@XZ 1001a790 f i mainwindow_cd.obj
 0001:000197a0       ??0iterator@?$QList@VQString@@@@QAE@PAUNode@1@@Z 1001a7a0 f i mainwindow_cd.obj
 0001:000197b0       ?t@Node@?$QList@VQString@@@@QAEAAVQString@@XZ 1001a7b0 f i mainwindow_cd.obj
 0001:000197c0       ??_GQString@@QAEPAXI@Z     1001a7c0 f i mainwindow_cd.obj
 0001:000197f0       ?node_destruct@?$QList@VQString@@@@AAEXPAUNode@1@0@Z 1001a7f0 f i mainwindow_cd.obj
 0001:00019830       ??$_Ptr_cat@V?$_Vector_const_iterator@V?$_Vector_val@V?$vector@MV?$allocator@M@std@@@std@@V?$allocator@V?$vector@MV?$allocator@M@std@@@std@@@2@@std@@@std@@PAV?$vector@MV?$allocator@M@std@@@2@@std@@YA?AU_Nonscalar_ptr_iterator_tag@0@AAV?$_Vector_const_iterator@V?$_Vector_val@V?$vector@MV?$allocator@M@std@@@std@@V?$allocator@V?$vector@MV?$allocator@M@std@@@std@@@2@@std@@@0@AAPAV?$vector@MV?$allocator@M@std@@@0@@Z 1001a830 f i mainwindow_cd.obj
 0001:00019840       ?setupUi@Ui_MainWindow_cd@@QAEXPAVQDialog@@@Z 1001a840 f i mainwindow_cd.obj
 0001:0001bc50       ??U@YA?AV?$QFlags@W4Option@QFileDialog@@@@W4Option@QFileDialog@@0@Z 1001cc50 f i mainwindow_cd.obj
 0001:0001bc60       ?on_pushButton_clicked@MainWindow_cd@@AAEXXZ 1001cc60 f   mainwindow_cd.obj
 0001:0001bdb0       ?on_pushButton_4_clicked@MainWindow_cd@@AAEXXZ 1001cdb0 f   mainwindow_cd.obj
 0001:0001bf40       ?on_pushButton_5_clicked@MainWindow_cd@@AAEXXZ 1001cf40 f   mainwindow_cd.obj
 0001:0001c0c0       ?c_str@?$basic_string@DU?$char_traits@D@std@@V?$allocator@D@2@@std@@QBEPBDXZ 1001d0c0 f i mainwindow_cd.obj
 0001:0001c0d0       ?begin@?$vector@V?$vector@MV?$allocator@M@std@@@std@@V?$allocator@V?$vector@MV?$allocator@M@std@@@std@@@2@@std@@QBE?AV?$_Vector_const_iterator@V?$_Vector_val@V?$vector@MV?$allocator@M@std@@@std@@V?$allocator@V?$vector@MV?$allocator@M@std@@@std@@@2@@std@@@2@XZ 1001d0d0 f i mainwindow_cd.obj
 0001:0001c0e0       ?end@?$vector@V?$vector@MV?$allocator@M@std@@@std@@V?$allocator@V?$vector@MV?$allocator@M@std@@@std@@@2@@std@@QBE?AV?$_Vector_const_iterator@V?$_Vector_val@V?$vector@MV?$allocator@M@std@@@std@@V?$allocator@V?$vector@MV?$allocator@M@std@@@std@@@2@@std@@@2@XZ 1001d0e0 f i mainwindow_cd.obj
 0001:0001c0f0       ??Diterator@?$QList@VQString@@@@QBEAAVQString@@XZ 1001d0f0 f i mainwindow_cd.obj
 0001:0001c100       ?free@?$QList@VQString@@@@AAEXPAUData@QListData@@@Z 1001d100 f i mainwindow_cd.obj
 0001:0001c160       ?node_copy@?$QList@VQString@@@@AAEXPAUNode@1@00@Z 1001d160 f i mainwindow_cd.obj
 0001:0001c200       ?_Buy@?$vector@V?$vector@MV?$allocator@M@std@@@std@@V?$allocator@V?$vector@MV?$allocator@M@std@@@std@@@2@@std@@IAE_NI@Z 1001d200 f i mainwindow_cd.obj
 0001:0001c250       ??1?$QList@VQString@@@@QAE@XZ 1001d250 f i mainwindow_cd.obj
 0001:0001c270       ?detach_helper@?$QList@VQString@@@@AAEXH@Z 1001d270 f i mainwindow_cd.obj
 0001:0001c320       ??1QStringList@@QAE@XZ     1001d320 f i mainwindow_cd.obj
 0001:0001c340       ?detach_helper@?$QList@VQString@@@@AAEXXZ 1001d340 f i mainwindow_cd.obj
 0001:0001c350       ?Show_process@MainWindow_cd@@AAEXV?$basic_string@DU?$char_traits@D@std@@V?$allocator@D@2@@std@@@Z 1001d350 f   mainwindow_cd.obj
 0001:0001c480       ??0?$QList@VQString@@@@QAE@ABV0@@Z 1001d480 f i mainwindow_cd.obj
 0001:0001c4b0       ?detach@?$QList@VQString@@@@QAEXXZ 1001d4b0 f i mainwindow_cd.obj
 0001:0001c4d0       ?begin@?$QList@VQString@@@@QAE?AViterator@1@XZ 1001d4d0 f i mainwindow_cd.obj
 0001:0001c500       ?end@?$QList@VQString@@@@QAE?AViterator@1@XZ 1001d500 f i mainwindow_cd.obj
 0001:0001c530       ?first@?$QList@VQString@@@@QAEAAVQString@@XZ 1001d530 f i mainwindow_cd.obj
 0001:0001c580       ?last@?$QList@VQString@@@@QAEAAVQString@@XZ 1001d580 f i mainwindow_cd.obj
 0001:0001c5d0       ?on_pushButton_2_clicked@MainWindow_cd@@AAEXXZ 1001d5d0 f   mainwindow_cd.obj
 0001:0001d7b0       ??$_Uninit_copy@V?$_Vector_const_iterator@V?$_Vector_val@V?$vector@MV?$allocator@M@std@@@std@@V?$allocator@V?$vector@MV?$allocator@M@std@@@std@@@2@@std@@@std@@PAV?$vector@MV?$allocator@M@std@@@2@V?$allocator@V?$vector@MV?$allocator@M@std@@@std@@@2@@std@@YAPAV?$vector@MV?$allocator@M@std@@@0@V?$_Vector_const_iterator@V?$_Vector_val@V?$vector@MV?$allocator@M@std@@@std@@V?$allocator@V?$vector@MV?$allocator@M@std@@@std@@@2@@std@@@0@0PAV10@AAV?$allocator@V?$vector@MV?$allocator@M@std@@@std@@@0@U_Nonscalar_ptr_iterator_tag@0@@Z 1001e7b0 f i mainwindow_cd.obj
 0001:0001d850       ??$_Uninitialized_copy@V?$_Vector_const_iterator@V?$_Vector_val@V?$vector@MV?$allocator@M@std@@@std@@V?$allocator@V?$vector@MV?$allocator@M@std@@@std@@@2@@std@@@std@@PAV?$vector@MV?$allocator@M@std@@@2@V?$allocator@V?$vector@MV?$allocator@M@std@@@std@@@2@@std@@YAPAV?$vector@MV?$allocator@M@std@@@0@V?$_Vector_const_iterator@V?$_Vector_val@V?$vector@MV?$allocator@M@std@@@std@@V?$allocator@V?$vector@MV?$allocator@M@std@@@std@@@2@@std@@@0@0PAV10@AAV?$allocator@V?$vector@MV?$allocator@M@std@@@std@@@0@@Z 1001e850 f i mainwindow_cd.obj
 0001:0001d880       ??$_Ucopy@V?$_Vector_const_iterator@V?$_Vector_val@V?$vector@MV?$allocator@M@std@@@std@@V?$allocator@V?$vector@MV?$allocator@M@std@@@std@@@2@@std@@@std@@@?$vector@V?$vector@MV?$allocator@M@std@@@std@@V?$allocator@V?$vector@MV?$allocator@M@std@@@std@@@2@@std@@IAEPAV?$vector@MV?$allocator@M@std@@@1@V?$_Vector_const_iterator@V?$_Vector_val@V?$vector@MV?$allocator@M@std@@@std@@V?$allocator@V?$vector@MV?$allocator@M@std@@@std@@@2@@std@@@1@0PAV21@@Z 1001e880 f i mainwindow_cd.obj
 0001:0001d8b0       ??0MainWindow_cd@@QAE@PAVQWidget@@@Z 1001e8b0 f   mainwindow_cd.obj
 0001:0001daf0       ??_EMainWindow_cd@@W7AEPAXI@Z 1001eaf0 f i mainwindow_cd.obj
 0001:0001db00       ??1MainWindow_cd@@UAE@XZ   1001eb00 f   mainwindow_cd.obj
 0001:0001ddb0       ??0?$vector@V?$vector@MV?$allocator@M@std@@@std@@V?$allocator@V?$vector@MV?$allocator@M@std@@@std@@@2@@std@@QAE@ABV01@@Z 1001edb0 f i mainwindow_cd.obj
 0001:0001de70       ??_GMainWindow_cd@@UAEPAXI@Z 1001ee70 f i mainwindow_cd.obj
 0001:0001de70       ??_EMainWindow_cd@@UAEPAXI@Z 1001ee70 f i mainwindow_cd.obj
 0001:0001de90       ??4?$vector@V?$vector@MV?$allocator@M@std@@@std@@V?$allocator@V?$vector@MV?$allocator@M@std@@@std@@@2@@std@@QAEAAV01@$$QAV01@@Z 1001ee90 f i mainwindow_cd.obj
 0001:0001def0       ??4?$vector@V?$vector@HV?$allocator@H@std@@@std@@V?$allocator@V?$vector@HV?$allocator@H@std@@@std@@@2@@std@@QAEAAV01@$$QAV01@@Z 1001eef0 f i mainwindow_cd.obj
 0001:0001df70       ?on_pushButton_3_clicked@MainWindow_cd@@AAEXXZ 1001ef70 f   mainwindow_cd.obj
 0001:0001f0a0       _powf                      100200a0 f i mainwindow_cr.obj
 0001:0001f0c0       ?tr@MainWindow_cr@@SA?AVQString@@PBD0@Z 100200c0 f i mainwindow_cr.obj
 0001:0001f0f0       ?retranslateUi@Ui_MainWindow_cr@@QAEXPAVQDialog@@@Z 100200f0 f i mainwindow_cr.obj
 0001:0001f3f0       ?readPPMImage@@YAPAPAPAHQAHPADH@Z 100203f0 f   mainwindow_cr.obj
 0001:0001f6d0       ?dilate@@YAXPAPAPAHAAPAPAPAHQAHH@Z 100206d0 f   mainwindow_cr.obj
 0001:0001f850       ?cloud_detection@@YAPAPAPAHQAHPAPAPAHH@Z 10020850 f   mainwindow_cr.obj
 0001:0001fa70       ?distance@@YAMPAPAPAHHHHH@Z 10020a70 f   mainwindow_cr.obj
 0001:0001fb40       ?maxfilter@@YAPAPAPAHPAPAPAH0QAH@Z 10020b40 f   mainwindow_cr.obj
 0001:0001fee0       ?writePPMImage@@YAXPAPAPAHQAH@Z 10020ee0 f   mainwindow_cr.obj
 0001:0001ffa0       ??1MainWindow_cr@@UAE@XZ   10020fa0 f   mainwindow_cr.obj
 0001:00020040       ??0?$QFlags@W4WindowType@Qt@@@@QAE@W4WindowType@Qt@@@Z 10021040 f i mainwindow_cr.obj
 0001:00020050       ??Y?$_Vector_const_iterator@V?$_Vector_val@V?$vector@HV?$allocator@H@std@@@std@@V?$allocator@V?$vector@HV?$allocator@H@std@@@std@@@2@@std@@@std@@QAEAAV01@H@Z 10021050 f i mainwindow_cr.obj
 0001:00020060       ??_EMainWindow_cr@@W7AEPAXI@Z 10021060 f i mainwindow_cr.obj
 0001:00020070       ?setupUi@Ui_MainWindow_cr@@QAEXPAVQDialog@@@Z 10021070 f i mainwindow_cr.obj
 0001:00020c40       ??_GQMdiArea@@UAEPAXI@Z    10021c40 f i mainwindow_cr.obj
 0001:00020c40       ??_EQMdiArea@@UAEPAXI@Z    10021c40 f i mainwindow_cr.obj
 0001:00020c60       ??_EQMdiArea@@W7AEPAXI@Z   10021c60 f i mainwindow_cr.obj
 0001:00020c70       ??0MainWindow_cr@@QAE@PAVQWidget@@@Z 10021c70 f   mainwindow_cr.obj
 0001:00020d60       ??_GMainWindow_cr@@UAEPAXI@Z 10021d60 f i mainwindow_cr.obj
 0001:00020d60       ??_EMainWindow_cr@@UAEPAXI@Z 10021d60 f i mainwindow_cr.obj
 0001:00020d80       ?on_pushButton_clicked@MainWindow_cr@@AAEXXZ 10021d80 f   mainwindow_cr.obj
 0001:00020f00       ?on_pushButton_3_clicked@MainWindow_cr@@AAEXXZ 10021f00 f   mainwindow_cr.obj
 0001:00021080       ?on_pushButton_2_clicked@MainWindow_cr@@AAEXXZ 10022080 f   mainwindow_cr.obj
 0001:00021180       ?on_pushButton_4_clicked@MainWindow_cr@@AAEXXZ 10022180 f   mainwindow_cr.obj
 0001:00021280       ?on_pushButton_6_clicked@MainWindow_cr@@AAEXXZ 10022280 f   mainwindow_cr.obj
 0001:00021340       ??Y?$_Vector_iterator@V?$_Vector_val@V?$vector@HV?$allocator@H@std@@@std@@V?$allocator@V?$vector@HV?$allocator@H@std@@@std@@@2@@std@@@std@@QAEAAV01@H@Z 10022340 f i mainwindow_cr.obj
 0001:00021350       ??H?$_Vector_iterator@V?$_Vector_val@V?$vector@HV?$allocator@H@std@@@std@@V?$allocator@V?$vector@HV?$allocator@H@std@@@std@@@2@@std@@@std@@QBE?AV01@H@Z 10022350 f i mainwindow_cr.obj
 0001:00021370       ??$_Uninit_def_fill_n@PAV?$vector@HV?$allocator@H@std@@@std@@IV12@V?$allocator@V?$vector@HV?$allocator@H@std@@@std@@@2@V12@@std@@YAXPAV?$vector@HV?$allocator@H@std@@@0@IPBV10@AAV?$allocator@V?$vector@HV?$allocator@H@std@@@std@@@0@0U_Nonscalar_ptr_iterator_tag@0@@Z 10022370 f i mainwindow_cr.obj
 0001:000213d0       ??$_Uninitialized_default_fill_n@PAV?$vector@HV?$allocator@H@std@@@std@@IV12@V?$allocator@V?$vector@HV?$allocator@H@std@@@std@@@2@@std@@YAXPAV?$vector@HV?$allocator@H@std@@@0@IPBV10@AAV?$allocator@V?$vector@HV?$allocator@H@std@@@std@@@0@@Z 100223d0 f i mainwindow_cr.obj
 0001:00021400       ?csf@@YAPAPAPAHPAPAPAH00QAH1V?$vector@V?$vector@HV?$allocator@H@std@@@std@@V?$allocator@V?$vector@HV?$allocator@H@std@@@std@@@2@@std@@22@Z 10022400 f   mainwindow_cr.obj
 0001:00021b10       ?resize@?$vector@V?$vector@HV?$allocator@H@std@@@std@@V?$allocator@V?$vector@HV?$allocator@H@std@@@std@@@2@@std@@QAEXI@Z 10022b10 f i mainwindow_cr.obj
 0001:00021bb0       ??0?$vector@V?$vector@HV?$allocator@H@std@@@std@@V?$allocator@V?$vector@HV?$allocator@H@std@@@std@@@2@@std@@QAE@I@Z 10022bb0 f i mainwindow_cr.obj
 0001:00021bd0       ?createOrderedQueue@@YA?AV?$vector@V?$vector@HV?$allocator@H@std@@@std@@V?$allocator@V?$vector@HV?$allocator@H@std@@@std@@@2@@std@@PAPAPAHQAHH@Z 10022bd0 f   mainwindow_cr.obj
 0001:00021d70       ?on_pushButton_5_clicked@MainWindow_cr@@AAEXXZ 10022d70 f   mainwindow_cr.obj
 0001:00022280       ?tr@MainWindow_fusion@@SA?AVQString@@PBD0@Z 10023280 f i mainwindow_fusion.obj
 0001:000222b0       ?retranslateUi@Ui_MainWindow_fusion@@QAEXPAVQDialog@@@Z 100232b0 f i mainwindow_fusion.obj
 0001:00022a70       ?on_radioButton_clicked@MainWindow_fusion@@AAEXXZ 10023a70 f   mainwindow_fusion.obj
 0001:00022a80       ?on_radioButton_2_clicked@MainWindow_fusion@@AAEXXZ 10023a80 f   mainwindow_fusion.obj
 0001:00022a90       ?on_checkBox_clicked@MainWindow_fusion@@AAEXXZ 10023a90 f   mainwindow_fusion.obj
 0001:00022aa0       ?Fusion_Brovey@MainWindow_fusion@@QAEXPAPAHAAPAPAPAEPAPAPAE2HHHHHH@Z 10023aa0 f   mainwindow_fusion.obj
 0001:00022bb0       ?GetMinor@MainWindow_fusion@@QAEXPAPAMAAPAPAMHHH@Z 10023bb0 f   mainwindow_fusion.obj
 0001:00022cc0       ?CalcDeterminant@MainWindow_fusion@@QAEMPAPAMH@Z 10023cc0 f   mainwindow_fusion.obj
 0001:00022e70       ?calculateMahaDist@MainWindow_fusion@@QAEMPAMPAPAM1HH@Z 10023e70 f   mainwindow_fusion.obj
 0001:000230e0       ?on_pushButton_3_clicked@MainWindow_fusion@@AAEXXZ 100240e0 f   mainwindow_fusion.obj
 0001:00023160       ??0?$QFlags@W4InputMethodHint@Qt@@@@QAE@W4InputMethodHint@Qt@@@Z 10024160 f i mainwindow_fusion.obj
 0001:00023170       ?size@?$_Tree@V?$_Tmap_traits@HV?$vector@HV?$allocator@H@std@@@std@@U?$less@H@2@V?$allocator@U?$pair@$$CBHV?$vector@HV?$allocator@H@std@@@std@@@std@@@2@$0A@@std@@@std@@QBEIXZ 10024170 f i mainwindow_fusion.obj
 0001:00023180       ?size@?$vector@EV?$allocator@E@std@@@std@@QBEIXZ 10024180 f i mainwindow_fusion.obj
 0001:00023190       ??A?$vector@EV?$allocator@E@std@@@std@@QAEAAEI@Z 10024190 f i mainwindow_fusion.obj
 0001:000231a0       ?size@?$vector@UPoint@MainWindow_fusion@@V?$allocator@UPoint@MainWindow_fusion@@@std@@@std@@QBEIXZ 100241a0 f i mainwindow_fusion.obj
 0001:000231c0       ??A?$vector@UPoint@MainWindow_fusion@@V?$allocator@UPoint@MainWindow_fusion@@@std@@@std@@QAEAAUPoint@MainWindow_fusion@@I@Z 100241c0 f i mainwindow_fusion.obj
 0001:000231d0       ??A?$vector@UCluster@MainWindow_fusion@@V?$allocator@UCluster@MainWindow_fusion@@@std@@@std@@QAEAAUCluster@MainWindow_fusion@@I@Z 100241d0 f i mainwindow_fusion.obj
 0001:000231e0       ??0?$allocator@U?$pair@$$CBHV?$vector@HV?$allocator@H@std@@@std@@@std@@@std@@QAE@XZ 100241e0 f i mainwindow_fusion.obj
 0001:000231f0       ??R?$less@H@std@@QBE_NABH0@Z 100241f0 f i mainwindow_fusion.obj
 0001:00023210       ?_Inside@?$vector@EV?$allocator@E@std@@@std@@IBE_NPBE@Z 10024210 f i mainwindow_fusion.obj
 0001:00023230       ?_Orphan_range@?$vector@EV?$allocator@E@std@@@std@@IBEXPAE0@Z 10024230 f i mainwindow_fusion.obj
 0001:00023240       ??1?$_Vector_val@EV?$allocator@E@std@@@std@@QAE@XZ 10024240 f i mainwindow_fusion.obj
 0001:00023250       ??0?$allocator@E@std@@QAE@XZ 10024250 f i mainwindow_fusion.obj
 0001:00023260       ??0?$allocator@E@std@@QAE@ABV01@@Z 10024260 f i mainwindow_fusion.obj
 0001:00023270       ?_Inside@?$vector@UPoint@MainWindow_fusion@@V?$allocator@UPoint@MainWindow_fusion@@@std@@@std@@IBE_NPBUPoint@MainWindow_fusion@@@Z 10024270 f i mainwindow_fusion.obj
 0001:00023290       ?_Orphan_range@?$vector@UPoint@MainWindow_fusion@@V?$allocator@UPoint@MainWindow_fusion@@@std@@@std@@IBEXPAUPoint@MainWindow_fusion@@0@Z 10024290 f i mainwindow_fusion.obj
 0001:000232a0       ??1?$_Vector_val@UPoint@MainWindow_fusion@@V?$allocator@UPoint@MainWindow_fusion@@@std@@@std@@QAE@XZ 100242a0 f i mainwindow_fusion.obj
 0001:000232b0       ??0?$allocator@UPoint@MainWindow_fusion@@@std@@QAE@XZ 100242b0 f i mainwindow_fusion.obj
 0001:000232c0       ?_Inside@?$vector@UCluster@MainWindow_fusion@@V?$allocator@UCluster@MainWindow_fusion@@@std@@@std@@IBE_NPBUCluster@MainWindow_fusion@@@Z 100242c0 f i mainwindow_fusion.obj
 0001:000232e0       ?_Orphan_range@?$vector@UCluster@MainWindow_fusion@@V?$allocator@UCluster@MainWindow_fusion@@@std@@@std@@IBEXPAUCluster@MainWindow_fusion@@0@Z 100242e0 f i mainwindow_fusion.obj
 0001:000232f0       ??1?$_Vector_val@UCluster@MainWindow_fusion@@V?$allocator@UCluster@MainWindow_fusion@@@std@@@std@@QAE@XZ 100242f0 f i mainwindow_fusion.obj
 0001:00023300       ??0?$allocator@UCluster@MainWindow_fusion@@@std@@QAE@XZ 10024300 f i mainwindow_fusion.obj
 0001:00023310       ??8?$_Tree_const_iterator@V?$_Tree_val@V?$_Tmap_traits@HV?$vector@HV?$allocator@H@std@@@std@@U?$less@H@2@V?$allocator@U?$pair@$$CBHV?$vector@HV?$allocator@H@std@@@std@@@std@@@2@$0A@@std@@@std@@@std@@QBE_NABV01@@Z 10024310 f i mainwindow_fusion.obj
 0001:00023320       ?_Mynode@?$_Tree_unchecked_const_iterator@V?$_Tree_val@V?$_Tmap_traits@HV?$vector@HV?$allocator@H@std@@@std@@U?$less@H@2@V?$allocator@U?$pair@$$CBHV?$vector@HV?$allocator@H@std@@@std@@@std@@@2@$0A@@std@@@std@@U_Iterator_base0@2@@std@@QBEPAU_Node@?$_Tree_nod@V?$_Tmap_traits@HV?$vector@HV?$allocator@H@std@@@std@@U?$less@H@2@V?$allocator@U?$pair@$$CBHV?$vector@HV?$allocator@H@std@@@std@@@std@@@2@$0A@@std@@@2@XZ 10024320 f i mainwindow_fusion.obj
 0001:00023330       ?_Isnil@?$_Tree_val@V?$_Tmap_traits@HV?$vector@HV?$allocator@H@std@@@std@@U?$less@H@2@V?$allocator@U?$pair@$$CBHV?$vector@HV?$allocator@H@std@@@std@@@std@@@2@$0A@@std@@@std@@SAAADPAU_Node@?$_Tree_nod@V?$_Tmap_traits@HV?$vector@HV?$allocator@H@std@@@std@@U?$less@H@2@V?$allocator@U?$pair@$$CBHV?$vector@HV?$allocator@H@std@@@std@@@std@@@2@$0A@@std@@@2@@Z 10024330 f i mainwindow_fusion.obj
 0001:00023340       ?_Left@?$_Tree_val@V?$_Tmap_traits@HV?$vector@HV?$allocator@H@std@@@std@@U?$less@H@2@V?$allocator@U?$pair@$$CBHV?$vector@HV?$allocator@H@std@@@std@@@std@@@2@$0A@@std@@@std@@SAAAPAU_Node@?$_Tree_nod@V?$_Tmap_traits@HV?$vector@HV?$allocator@H@std@@@std@@U?$less@H@2@V?$allocator@U?$pair@$$CBHV?$vector@HV?$allocator@H@std@@@std@@@std@@@2@$0A@@std@@@2@PAU342@@Z 10024340 f i mainwindow_fusion.obj
 0001:00023350       ?_Parent@?$_Tree_val@V?$_Tmap_traits@HV?$vector@HV?$allocator@H@std@@@std@@U?$less@H@2@V?$allocator@U?$pair@$$CBHV?$vector@HV?$allocator@H@std@@@std@@@std@@@2@$0A@@std@@@std@@SAAAPAU_Node@?$_Tree_nod@V?$_Tmap_traits@HV?$vector@HV?$allocator@H@std@@@std@@U?$less@H@2@V?$allocator@U?$pair@$$CBHV?$vector@HV?$allocator@H@std@@@std@@@std@@@2@$0A@@std@@@2@PAU342@@Z 10024350 f i mainwindow_fusion.obj
 0001:00023360       ?_Right@?$_Tree_val@V?$_Tmap_traits@HV?$vector@HV?$allocator@H@std@@@std@@U?$less@H@2@V?$allocator@U?$pair@$$CBHV?$vector@HV?$allocator@H@std@@@std@@@std@@@2@$0A@@std@@@std@@SAAAPAU_Node@?$_Tree_nod@V?$_Tmap_traits@HV?$vector@HV?$allocator@H@std@@@std@@U?$less@H@2@V?$allocator@U?$pair@$$CBHV?$vector@HV?$allocator@H@std@@@std@@@std@@@2@$0A@@std@@@2@PAU342@@Z 10024360 f i mainwindow_fusion.obj
 0001:00023370       ?_Myval@?$_Tree_val@V?$_Tmap_traits@HV?$vector@HV?$allocator@H@std@@@std@@U?$less@H@2@V?$allocator@U?$pair@$$CBHV?$vector@HV?$allocator@H@std@@@std@@@std@@@2@$0A@@std@@@std@@SAAAU?$pair@$$CBHV?$vector@HV?$allocator@H@std@@@std@@@2@PAU_Node@?$_Tree_nod@V?$_Tmap_traits@HV?$vector@HV?$allocator@H@std@@@std@@U?$less@H@2@V?$allocator@U?$pair@$$CBHV?$vector@HV?$allocator@H@std@@@std@@@std@@@2@$0A@@std@@@2@@Z 10024370 f i mainwindow_fusion.obj
 0001:00023380       ??0?$allocator@U?$pair@$$CBHV?$vector@HV?$allocator@H@std@@@std@@@std@@@std@@QAE@ABV01@@Z 10024380 f i mainwindow_fusion.obj
 0001:00023390       ?deallocate@?$allocator@U_Node@?$_Tree_nod@V?$_Tmap_traits@HV?$vector@HV?$allocator@H@std@@@std@@U?$less@H@2@V?$allocator@U?$pair@$$CBHV?$vector@HV?$allocator@H@std@@@std@@@std@@@2@$0A@@std@@@std@@@std@@QAEXPAU_Node@?$_Tree_nod@V?$_Tmap_traits@HV?$vector@HV?$allocator@H@std@@@std@@U?$less@H@2@V?$allocator@U?$pair@$$CBHV?$vector@HV?$allocator@H@std@@@std@@@std@@@2@$0A@@std@@@2@I@Z 10024390 f i mainwindow_fusion.obj
 0001:000233a0       ?capacity@?$vector@EV?$allocator@E@std@@@std@@QBEIXZ 100243a0 f i mainwindow_fusion.obj
 0001:000233b0       ?_Xlen@?$vector@EV?$allocator@E@std@@@std@@IBEXXZ 100243b0 f i mainwindow_fusion.obj
 0001:000233c0       ?deallocate@?$allocator@E@std@@QAEXPAEI@Z 100243c0 f i mainwindow_fusion.obj
 0001:000233d0       ??0?$_Vector_const_iterator@V?$_Vector_val@EV?$allocator@E@std@@@std@@@std@@QAE@PAEPBU_Container_base0@1@@Z 100243d0 f i mainwindow_fusion.obj
 0001:000233e0       ?capacity@?$vector@UPoint@MainWindow_fusion@@V?$allocator@UPoint@MainWindow_fusion@@@std@@@std@@QBEIXZ 100243e0 f i mainwindow_fusion.obj
 0001:00023400       ?_Xlen@?$vector@UPoint@MainWindow_fusion@@V?$allocator@UPoint@MainWindow_fusion@@@std@@@std@@IBEXXZ 10024400 f i mainwindow_fusion.obj
 0001:00023410       ??0?$allocator@UPoint@MainWindow_fusion@@@std@@QAE@ABV01@@Z 10024410 f i mainwindow_fusion.obj
 0001:00023420       ?deallocate@?$allocator@UPoint@MainWindow_fusion@@@std@@QAEXPAUPoint@MainWindow_fusion@@I@Z 10024420 f i mainwindow_fusion.obj
 0001:00023430       ?capacity@?$vector@UCluster@MainWindow_fusion@@V?$allocator@UCluster@MainWindow_fusion@@@std@@@std@@QBEIXZ 10024430 f i mainwindow_fusion.obj
 0001:00023450       ?size@?$vector@UCluster@MainWindow_fusion@@V?$allocator@UCluster@MainWindow_fusion@@@std@@@std@@QBEIXZ 10024450 f i mainwindow_fusion.obj
 0001:00023470       ?_Xlen@?$vector@UCluster@MainWindow_fusion@@V?$allocator@UCluster@MainWindow_fusion@@@std@@@std@@IBEXXZ 10024470 f i mainwindow_fusion.obj
 0001:00023480       ??0?$allocator@UCluster@MainWindow_fusion@@@std@@QAE@ABV01@@Z 10024480 f i mainwindow_fusion.obj
 0001:00023490       ?deallocate@?$allocator@UCluster@MainWindow_fusion@@@std@@QAEXPAUCluster@MainWindow_fusion@@I@Z 10024490 f i mainwindow_fusion.obj
 0001:000234a0       ??D?$_Tree_const_iterator@V?$_Tree_val@V?$_Tmap_traits@HV?$vector@HV?$allocator@H@std@@@std@@U?$less@H@2@V?$allocator@U?$pair@$$CBHV?$vector@HV?$allocator@H@std@@@std@@@std@@@2@$0A@@std@@@std@@@std@@QBEABU?$pair@$$CBHV?$vector@HV?$allocator@H@std@@@std@@@1@XZ 100244a0 f i mainwindow_fusion.obj
 0001:000234b0       ?_Color@?$_Tree_val@V?$_Tmap_traits@HV?$vector@HV?$allocator@H@std@@@std@@U?$less@H@2@V?$allocator@U?$pair@$$CBHV?$vector@HV?$allocator@H@std@@@std@@@std@@@2@$0A@@std@@@std@@SAAADPAU_Node@?$_Tree_nod@V?$_Tmap_traits@HV?$vector@HV?$allocator@H@std@@@std@@U?$less@H@2@V?$allocator@U?$pair@$$CBHV?$vector@HV?$allocator@H@std@@@std@@@std@@@2@$0A@@std@@@2@@Z 100244b0 f i mainwindow_fusion.obj
 0001:000234c0       ?max_size@?$allocator@E@std@@QBEIXZ 100244c0 f i mainwindow_fusion.obj
 0001:000234d0       ?max_size@?$allocator@UPoint@MainWindow_fusion@@@std@@QBEIXZ 100244d0 f i mainwindow_fusion.obj
 0001:000234e0       ?max_size@?$allocator@UCluster@MainWindow_fusion@@@std@@QBEIXZ 100244e0 f i mainwindow_fusion.obj
 0001:000234f0       ??9?$_Tree_const_iterator@V?$_Tree_val@V?$_Tmap_traits@HV?$vector@HV?$allocator@H@std@@@std@@U?$less@H@2@V?$allocator@U?$pair@$$CBHV?$vector@HV?$allocator@H@std@@@std@@@std@@@2@$0A@@std@@@std@@@std@@QBE_NABV01@@Z 100244f0 f i mainwindow_fusion.obj
 0001:00023500       ?_Max@?$_Tree_val@V?$_Tmap_traits@HV?$vector@HV?$allocator@H@std@@@std@@U?$less@H@2@V?$allocator@U?$pair@$$CBHV?$vector@HV?$allocator@H@std@@@std@@@std@@@2@$0A@@std@@@std@@SAPAU_Node@?$_Tree_nod@V?$_Tmap_traits@HV?$vector@HV?$allocator@H@std@@@std@@U?$less@H@2@V?$allocator@U?$pair@$$CBHV?$vector@HV?$allocator@H@std@@@std@@@std@@@2@$0A@@std@@@2@PAU342@@Z 10024500 f i mainwindow_fusion.obj
 0001:00023520       ?_Min@?$_Tree_val@V?$_Tmap_traits@HV?$vector@HV?$allocator@H@std@@@std@@U?$less@H@2@V?$allocator@U?$pair@$$CBHV?$vector@HV?$allocator@H@std@@@std@@@std@@@2@$0A@@std@@@std@@SAPAU_Node@?$_Tree_nod@V?$_Tmap_traits@HV?$vector@HV?$allocator@H@std@@@std@@U?$less@H@2@V?$allocator@U?$pair@$$CBHV?$vector@HV?$allocator@H@std@@@std@@@std@@@2@$0A@@std@@@2@PAU342@@Z 10024520 f i mainwindow_fusion.obj
 0001:00023540       ??0?$_Tmap_traits@HV?$vector@HV?$allocator@H@std@@@std@@U?$less@H@2@V?$allocator@U?$pair@$$CBHV?$vector@HV?$allocator@H@std@@@std@@@std@@@2@$0A@@std@@QAE@U?$less@H@1@@Z 10024540 f i mainwindow_fusion.obj
 0001:00023550       ?_Compat@?$_Vector_const_iterator@V?$_Vector_val@EV?$allocator@E@std@@@std@@@std@@QBEXABV12@@Z 10024550 f i mainwindow_fusion.obj
 0001:00023560       ??0?$_Tree_unchecked_const_iterator@V?$_Tree_val@V?$_Tmap_traits@HV?$vector@HV?$allocator@H@std@@@std@@U?$less@H@2@V?$allocator@U?$pair@$$CBHV?$vector@HV?$allocator@H@std@@@std@@@std@@@2@$0A@@std@@@std@@U_Iterator_base0@2@@std@@QAE@PAU_Node@?$_Tree_nod@V?$_Tmap_traits@HV?$vector@HV?$allocator@H@std@@@std@@U?$less@H@2@V?$allocator@U?$pair@$$CBHV?$vector@HV?$allocator@H@std@@@std@@@std@@@2@$0A@@std@@@1@PBV?$_Tree_val@V?$_Tmap_traits@HV?$vector@HV?$allocator@H@std@@@std@@U?$less@H@2@V?$allocator@U?$pair@$$CBHV?$vector@HV?$allocator@H@std@@@std@@@std@@@2@$0A@@std@@@1@@Z 10024560 f i mainwindow_fusion.obj
 0001:00023570       ??E?$_Tree_unchecked_const_iterator@V?$_Tree_val@V?$_Tmap_traits@HV?$vector@HV?$allocator@H@std@@@std@@U?$less@H@2@V?$allocator@U?$pair@$$CBHV?$vector@HV?$allocator@H@std@@@std@@@std@@@2@$0A@@std@@@std@@U_Iterator_base0@2@@std@@QAEAAV01@XZ 10024570 f i mainwindow_fusion.obj
 0001:000235c0       ??$addressof@$$CBE@std@@YAPBEABE@Z 100245c0 f i mainwindow_fusion.obj
 0001:000235d0       ??$addressof@$$CBUPoint@MainWindow_fusion@@@std@@YAPBUPoint@MainWindow_fusion@@ABU12@@Z 100245d0 f i mainwindow_fusion.obj
 0001:000235e0       ??$addressof@$$CBUCluster@MainWindow_fusion@@@std@@YAPBUCluster@MainWindow_fusion@@ABU12@@Z 100245e0 f i mainwindow_fusion.obj
 0001:000235f0       ??$addressof@U?$pair@$$CBHV?$vector@HV?$allocator@H@std@@@std@@@std@@@std@@YAPAU?$pair@$$CBHV?$vector@HV?$allocator@H@std@@@std@@@0@AAU10@@Z 100245f0 f i mainwindow_fusion.obj
 0001:00023600       ??$_Kfn@$$CBHV?$vector@HV?$allocator@H@std@@@std@@@?$_Tmap_traits@HV?$vector@HV?$allocator@H@std@@@std@@U?$less@H@2@V?$allocator@U?$pair@$$CBHV?$vector@HV?$allocator@H@std@@@std@@@std@@@2@$0A@@std@@SAABHABU?$pair@$$CBHV?$vector@HV?$allocator@H@std@@@std@@@1@@Z 10024600 f i mainwindow_fusion.obj
 0001:00023610       ??$_Allocate@E@std@@YAPAEIPAE@Z 10024610 f i mainwindow_fusion.obj
 0001:00023670       ??$?0U?$pair@$$CBHV?$vector@HV?$allocator@H@std@@@std@@@std@@@?$allocator@U_Node@?$_Tree_nod@V?$_Tmap_traits@HV?$vector@HV?$allocator@H@std@@@std@@U?$less@H@2@V?$allocator@U?$pair@$$CBHV?$vector@HV?$allocator@H@std@@@std@@@std@@@2@$0A@@std@@@std@@@std@@QAE@ABV?$allocator@U?$pair@$$CBHV?$vector@HV?$allocator@H@std@@@std@@@std@@@1@@Z 10024670 f i mainwindow_fusion.obj
 0001:00023680       ??$_Allocate@U_Node@?$_Tree_nod@V?$_Tmap_traits@HV?$vector@HV?$allocator@H@std@@@std@@U?$less@H@2@V?$allocator@U?$pair@$$CBHV?$vector@HV?$allocator@H@std@@@std@@@std@@@2@$0A@@std@@@std@@@std@@YAPAU_Node@?$_Tree_nod@V?$_Tmap_traits@HV?$vector@HV?$allocator@H@std@@@std@@U?$less@H@2@V?$allocator@U?$pair@$$CBHV?$vector@HV?$allocator@H@std@@@std@@@std@@@2@$0A@@std@@@0@IPAU120@@Z 10024680 f i mainwindow_fusion.obj
 0001:000236e0       ??$_Allocate@UPoint@MainWindow_fusion@@@std@@YAPAUPoint@MainWindow_fusion@@IPAU12@@Z 100246e0 f i mainwindow_fusion.obj
 0001:00023740       ??$_Allocate@UCluster@MainWindow_fusion@@@std@@YAPAUCluster@MainWindow_fusion@@IPAU12@@Z 10024740 f i mainwindow_fusion.obj
 0001:000237a0       ??G?$_Vector_const_iterator@V?$_Vector_val@EV?$allocator@E@std@@@std@@@std@@QBEHABV01@@Z 100247a0 f i mainwindow_fusion.obj
 0001:000237b0       ??0?$_Tree_unchecked_const_iterator@V?$_Tree_val@V?$_Tmap_traits@HV?$vector@HV?$allocator@H@std@@@std@@U?$less@H@2@V?$allocator@U?$pair@$$CBHV?$vector@HV?$allocator@H@std@@@std@@@std@@@2@$0A@@std@@@std@@U_Iterator_base0@2@@std@@QAE@XZ 100247b0 f i mainwindow_fusion.obj
 0001:000237c0       ??F?$_Tree_unchecked_const_iterator@V?$_Tree_val@V?$_Tmap_traits@HV?$vector@HV?$allocator@H@std@@@std@@U?$less@H@2@V?$allocator@U?$pair@$$CBHV?$vector@HV?$allocator@H@std@@@std@@@std@@@2@$0A@@std@@@std@@U_Iterator_base0@2@@std@@QAEAAV01@XZ 100247c0 f i mainwindow_fusion.obj
 0001:00023820       ?max_size@?$allocator@U?$pair@$$CBHV?$vector@HV?$allocator@H@std@@@std@@@std@@@std@@QBEIXZ 10024820 f i mainwindow_fusion.obj
 0001:00023830       ??$forward@U?$pair@$$CBHV?$vector@HV?$allocator@H@std@@@std@@@std@@@std@@YA$$QAU?$pair@$$CBHV?$vector@HV?$allocator@H@std@@@std@@@0@AAU10@@Z 10024830 f i mainwindow_fusion.obj
 0001:00023840       ??$forward@AAE@std@@YAAAEAAE@Z 10024840 f i mainwindow_fusion.obj
 0001:00023850       ??$construct@AAE@?$allocator@E@std@@QAEXPAEAAE@Z 10024850 f i mainwindow_fusion.obj
 0001:00023870       ??$forward@ABE@std@@YAABEABE@Z 10024870 f i mainwindow_fusion.obj
 0001:00023880       ??$_Copy_impl@PAHPAH@std@@YAPAHPAH00U_Scalar_ptr_iterator_tag@0@@Z 10024880 f i mainwindow_fusion.obj
 0001:000238b0       ??$forward@AAUPoint@MainWindow_fusion@@@std@@YAAAUPoint@MainWindow_fusion@@AAU12@@Z 100248b0 f i mainwindow_fusion.obj
 0001:000238c0       ??$construct@AAUPoint@MainWindow_fusion@@@?$allocator@UPoint@MainWindow_fusion@@@std@@QAEXPAUPoint@MainWindow_fusion@@AAU23@@Z 100248c0 f i mainwindow_fusion.obj
 0001:000238e0       ??$forward@ABUPoint@MainWindow_fusion@@@std@@YAABUPoint@MainWindow_fusion@@ABU12@@Z 100248e0 f i mainwindow_fusion.obj
 0001:000238f0       ??$forward@AAUCluster@MainWindow_fusion@@@std@@YAAAUCluster@MainWindow_fusion@@AAU12@@Z 100248f0 f i mainwindow_fusion.obj
 0001:00023900       ??$construct@AAUCluster@MainWindow_fusion@@@?$allocator@UCluster@MainWindow_fusion@@@std@@QAEXPAUCluster@MainWindow_fusion@@AAU23@@Z 10024900 f i mainwindow_fusion.obj
 0001:00023940       ??$forward@ABUCluster@MainWindow_fusion@@@std@@YAABUCluster@MainWindow_fusion@@ABU12@@Z 10024940 f i mainwindow_fusion.obj
 0001:00023950       ??$_Ptr_cat@EE@std@@YA?AU_Scalar_ptr_iterator_tag@0@PAE0@Z 10024950 f i mainwindow_fusion.obj
 0001:00023960       ??$_Move@PAEPAE@std@@YAPAEPAE00U_Scalar_ptr_iterator_tag@0@@Z 10024960 f i mainwindow_fusion.obj
 0001:00023990       ??$_Destroy_range@V?$allocator@E@std@@@std@@YAXPAE0AAV?$allocator@E@0@U_Scalar_ptr_iterator_tag@0@@Z 10024990 f i mainwindow_fusion.obj
 0001:000239a0       ??$_Ptr_cat@UPoint@MainWindow_fusion@@U12@@std@@YA?AU_Nonscalar_ptr_iterator_tag@0@PAUPoint@MainWindow_fusion@@0@Z 100249a0 f i mainwindow_fusion.obj
 0001:000239b0       ??$_Ptr_cat@UCluster@MainWindow_fusion@@U12@@std@@YA?AU_Nonscalar_ptr_iterator_tag@0@PAUCluster@MainWindow_fusion@@0@Z 100249b0 f i mainwindow_fusion.obj
 0001:000239c0       ??$_Move@AAD@std@@YA$$QADAAD@Z 100249c0 f i mainwindow_fusion.obj
 0001:000239d0       ??$_Construct@EABE@std@@YAXPAEABE@Z 100249d0 f i mainwindow_fusion.obj
 0001:000239f0       ??$_Construct@UPoint@MainWindow_fusion@@ABU12@@std@@YAXPAUPoint@MainWindow_fusion@@ABU12@@Z 100249f0 f i mainwindow_fusion.obj
 0001:00023a10       ??$_Construct@UCluster@MainWindow_fusion@@ABU12@@std@@YAXPAUCluster@MainWindow_fusion@@ABU12@@Z 10024a10 f i mainwindow_fusion.obj
 0001:00023a40       ??$move@AAV?$_Tree_iterator@V?$_Tree_val@V?$_Tmap_traits@HV?$vector@HV?$allocator@H@std@@@std@@U?$less@H@2@V?$allocator@U?$pair@$$CBHV?$vector@HV?$allocator@H@std@@@std@@@std@@@2@$0A@@std@@@std@@@std@@@std@@YA$$QAV?$_Tree_iterator@V?$_Tree_val@V?$_Tmap_traits@HV?$vector@HV?$allocator@H@std@@@std@@U?$less@H@2@V?$allocator@U?$pair@$$CBHV?$vector@HV?$allocator@H@std@@@std@@@std@@@2@$0A@@std@@@std@@@0@AAV10@@Z 10024a40 f i mainwindow_fusion.obj
 0001:00023a50       ??$move@AA_N@std@@YA$$QA_NAA_N@Z 10024a50 f i mainwindow_fusion.obj
 0001:00023a60       ?_Unchecked@?$_Vector_iterator@V?$_Vector_val@EV?$allocator@E@std@@@std@@@std@@QBEPAEXZ 10024a60 f i mainwindow_fusion.obj
 0001:00023a70       ??$_Ptr_cat@V?$_Vector_const_iterator@V?$_Vector_val@EV?$allocator@E@std@@@std@@@std@@PAE@std@@YA?AU_Nonscalar_ptr_iterator_tag@0@AAV?$_Vector_const_iterator@V?$_Vector_val@EV?$allocator@E@std@@@std@@@0@AAPAE@Z 10024a70 f i mainwindow_fusion.obj
 0001:00023a80       ??$_Uninit_copy@HH@std@@YAPAHPAH00AAV?$allocator@H@0@U_Scalar_ptr_iterator_tag@0@@Z 10024a80 f i mainwindow_fusion.obj
 0001:00023ab0       ??$_Val_type@PAE@std@@YAPAEPAE@Z 10024ab0 f i mainwindow_fusion.obj
 0001:00023ac0       ??$_Uninit_move@EEE@std@@YAPAEPAE00AAV?$allocator@E@0@0U_Scalar_ptr_iterator_tag@0@@Z 10024ac0 f i mainwindow_fusion.obj
 0001:00023ae0       ??$_Val_type@PAUPoint@MainWindow_fusion@@@std@@YAPAUPoint@MainWindow_fusion@@PAU12@@Z 10024ae0 f i mainwindow_fusion.obj
 0001:00023af0       ??$_Val_type@PAUCluster@MainWindow_fusion@@@std@@YAPAUCluster@MainWindow_fusion@@PAU12@@Z 10024af0 f i mainwindow_fusion.obj
 0001:00023b00       ??$forward@AAV?$_Tree_iterator@V?$_Tree_val@V?$_Tmap_traits@HV?$vector@HV?$allocator@H@std@@@std@@U?$less@H@2@V?$allocator@U?$pair@$$CBHV?$vector@HV?$allocator@H@std@@@std@@@std@@@2@$0A@@std@@@std@@@std@@@std@@YAAAV?$_Tree_iterator@V?$_Tree_val@V?$_Tmap_traits@HV?$vector@HV?$allocator@H@std@@@std@@U?$less@H@2@V?$allocator@U?$pair@$$CBHV?$vector@HV?$allocator@H@std@@@std@@@std@@@2@$0A@@std@@@std@@@0@AAV10@@Z 10024b00 f i mainwindow_fusion.obj
 0001:00023b10       ??$forward@_N@std@@YA$$QA_NAA_N@Z 10024b10 f i mainwindow_fusion.obj
 0001:00023b20       ??$?0AAV?$_Tree_iterator@V?$_Tree_val@V?$_Tmap_traits@HV?$vector@HV?$allocator@H@std@@@std@@U?$less@H@2@V?$allocator@U?$pair@$$CBHV?$vector@HV?$allocator@H@std@@@std@@@std@@@2@$0A@@std@@@std@@@std@@_N@?$_Pair_base@V?$_Tree_iterator@V?$_Tree_val@V?$_Tmap_traits@HV?$vector@HV?$allocator@H@std@@@std@@U?$less@H@2@V?$allocator@U?$pair@$$CBHV?$vector@HV?$allocator@H@std@@@std@@@std@@@2@$0A@@std@@@std@@@std@@_N@std@@QAE@AAV?$_Tree_iterator@V?$_Tree_val@V?$_Tmap_traits@HV?$vector@HV?$allocator@H@std@@@std@@U?$less@H@2@V?$allocator@U?$pair@$$CBHV?$vector@HV?$allocator@H@std@@@std@@@std@@@2@$0A@@std@@@std@@@1@$$QA_N@Z 10024b20 f i mainwindow_fusion.obj
 0001:00023b40       ??D?$_Vector_const_iterator@V?$_Vector_val@EV?$allocator@E@std@@@std@@@std@@QBEABEXZ 10024b40 f i mainwindow_fusion.obj
 0001:00023b50       ??E?$_Vector_const_iterator@V?$_Vector_val@EV?$allocator@E@std@@@std@@@std@@QAEAAV01@XZ 10024b50 f i mainwindow_fusion.obj
 0001:00023b60       ??$_Unchecked@PAE@std@@YAPAEPAE@Z 10024b60 f i mainwindow_fusion.obj
 0001:00023b70       ??$_Dist_type@PAE@std@@YAPAHPAE@Z 10024b70 f i mainwindow_fusion.obj
 0001:00023b80       ??$_Destroy@UPoint@MainWindow_fusion@@@std@@YAXPAUPoint@MainWindow_fusion@@@Z 10024b80 f i mainwindow_fusion.obj
 0001:00023b90       ??$_Destroy@UCluster@MainWindow_fusion@@@std@@YAXPAUCluster@MainWindow_fusion@@@Z 10024b90 f i mainwindow_fusion.obj
 0001:00023ba0       ??$forward@AAPAE@std@@YAAAPAEAAPAE@Z 10024ba0 f i mainwindow_fusion.obj
 0001:00023bb0       ??$?0AAPAEAAPAE@?$_Pair_base@PAEPAE@std@@QAE@AAPAE0@Z 10024bb0 f i mainwindow_fusion.obj
 0001:00023bd0       ??$_Move@AAE@std@@YA$$QAEAAE@Z 10024bd0 f i mainwindow_fusion.obj
 0001:00023be0       ??$forward@UPoint@MainWindow_fusion@@@std@@YA$$QAUPoint@MainWindow_fusion@@AAU12@@Z 10024be0 f i mainwindow_fusion.obj
 0001:00023bf0       ??$forward@UCluster@MainWindow_fusion@@@std@@YA$$QAUCluster@MainWindow_fusion@@AAU12@@Z 10024bf0 f i mainwindow_fusion.obj
 0001:00023c00       ??$forward@$$CBH@std@@YA$$QBHABH@Z 10024c00 f i mainwindow_fusion.obj
 0001:00023c10       ??$_Destroy@E@std@@YAXPAE@Z 10024c10 f i mainwindow_fusion.obj
 0001:00023c20       ??$move@ABH@std@@YA$$QBHABH@Z 10024c20 f i mainwindow_fusion.obj
 0001:00023c30       ??$_Push_heap@PAEHE@std@@YAXPAEHH$$QAE@Z 10024c30 f i mainwindow_fusion.obj
 0001:00023c80       ??$_Move_backward@PAEPAE@std@@YAPAEPAE00U_Scalar_ptr_iterator_tag@0@@Z 10024c80 f i mainwindow_fusion.obj
 0001:00023cc0       ?setupUi@Ui_MainWindow_fusion@@QAEXPAVQDialog@@@Z 10024cc0 f i mainwindow_fusion.obj
 0001:00025f90       ??_EQCheckBox@@UAEPAXI@Z   10026f90 f i mainwindow_fusion.obj
 0001:00025f90       ??_GQCheckBox@@UAEPAXI@Z   10026f90 f i mainwindow_fusion.obj
 0001:00025fb0       ??_GQMenuBar@@UAEPAXI@Z    10026fb0 f i mainwindow_fusion.obj
 0001:00025fb0       ??_EQMenuBar@@UAEPAXI@Z    10026fb0 f i mainwindow_fusion.obj
 0001:00025fd0       ??_GQToolBar@@UAEPAXI@Z    10026fd0 f i mainwindow_fusion.obj
 0001:00025fd0       ??_EQToolBar@@UAEPAXI@Z    10026fd0 f i mainwindow_fusion.obj
 0001:00025ff0       ??_GQStatusBar@@UAEPAXI@Z  10026ff0 f i mainwindow_fusion.obj
 0001:00025ff0       ??_EQStatusBar@@UAEPAXI@Z  10026ff0 f i mainwindow_fusion.obj
 0001:00026010       ??_EQToolBar@@W7AEPAXI@Z   10027010 f i mainwindow_fusion.obj
 0001:00026020       ??_EQCheckBox@@W7AEPAXI@Z  10027020 f i mainwindow_fusion.obj
 0001:00026030       ??_EQStatusBar@@W7AEPAXI@Z 10027030 f i mainwindow_fusion.obj
 0001:00026040       ??_EQMenuBar@@W7AEPAXI@Z   10027040 f i mainwindow_fusion.obj
 0001:00026050       ?on_pushButton_dir_clicked@MainWindow_fusion@@AAEXXZ 10027050 f   mainwindow_fusion.obj
 0001:000261a0       ?FillBlackPixels@MainWindow_fusion@@QAEXAAPAPAPAEHHAAPAPAHH@Z 100271a0 f   mainwindow_fusion.obj
 0001:00026330       ?Smoothing_GLSI@MainWindow_fusion@@QAEXAAPAPAPAEPAPAHH0HH@Z 10027330 f   mainwindow_fusion.obj
 0001:000265c0       ?_Lmost@?$_Tree@V?$_Tmap_traits@HV?$vector@HV?$allocator@H@std@@@std@@U?$less@H@2@V?$allocator@U?$pair@$$CBHV?$vector@HV?$allocator@H@std@@@std@@@std@@@2@$0A@@std@@@std@@IBEAAPAU_Node@?$_Tree_nod@V?$_Tmap_traits@HV?$vector@HV?$allocator@H@std@@@std@@U?$less@H@2@V?$allocator@U?$pair@$$CBHV?$vector@HV?$allocator@H@std@@@std@@@std@@@2@$0A@@std@@@2@XZ 100275c0 f i mainwindow_fusion.obj
 0001:000265d0       ?_Rmost@?$_Tree@V?$_Tmap_traits@HV?$vector@HV?$allocator@H@std@@@std@@U?$less@H@2@V?$allocator@U?$pair@$$CBHV?$vector@HV?$allocator@H@std@@@std@@@std@@@2@$0A@@std@@@std@@IBEAAPAU_Node@?$_Tree_nod@V?$_Tmap_traits@HV?$vector@HV?$allocator@H@std@@@std@@U?$less@H@2@V?$allocator@U?$pair@$$CBHV?$vector@HV?$allocator@H@std@@@std@@@std@@@2@$0A@@std@@@2@XZ 100275d0 f i mainwindow_fusion.obj
 0001:000265e0       ?_Root@?$_Tree@V?$_Tmap_traits@HV?$vector@HV?$allocator@H@std@@@std@@U?$less@H@2@V?$allocator@U?$pair@$$CBHV?$vector@HV?$allocator@H@std@@@std@@@std@@@2@$0A@@std@@@std@@IBEAAPAU_Node@?$_Tree_nod@V?$_Tmap_traits@HV?$vector@HV?$allocator@H@std@@@std@@U?$less@H@2@V?$allocator@U?$pair@$$CBHV?$vector@HV?$allocator@H@std@@@std@@@std@@@2@$0A@@std@@@2@XZ 100275e0 f i mainwindow_fusion.obj
 0001:000265f0       ??1?$_Tree_val@V?$_Tmap_traits@HV?$vector@HV?$allocator@H@std@@@std@@U?$less@H@2@V?$allocator@U?$pair@$$CBHV?$vector@HV?$allocator@H@std@@@std@@@std@@@2@$0A@@std@@@std@@QAE@XZ 100275f0 f i mainwindow_fusion.obj
 0001:00026600       ?_Key@?$_Tree_val@V?$_Tmap_traits@HV?$vector@HV?$allocator@H@std@@@std@@U?$less@H@2@V?$allocator@U?$pair@$$CBHV?$vector@HV?$allocator@H@std@@@std@@@std@@@2@$0A@@std@@@std@@SAAAHPAU_Node@?$_Tree_nod@V?$_Tmap_traits@HV?$vector@HV?$allocator@H@std@@@std@@U?$less@H@2@V?$allocator@U?$pair@$$CBHV?$vector@HV?$allocator@H@std@@@std@@@std@@@2@$0A@@std@@@2@@Z 10027600 f i mainwindow_fusion.obj
 0001:00026610       ?begin@?$vector@EV?$allocator@E@std@@@std@@QBE?AV?$_Vector_const_iterator@V?$_Vector_val@EV?$allocator@E@std@@@std@@@2@XZ 10027610 f i mainwindow_fusion.obj
 0001:00026620       ?end@?$vector@EV?$allocator@E@std@@@std@@QBE?AV?$_Vector_const_iterator@V?$_Vector_val@EV?$allocator@E@std@@@std@@@2@XZ 10027620 f i mainwindow_fusion.obj
 0001:00026630       ??0?$_Vector_val@EV?$allocator@E@std@@@std@@QAE@V?$allocator@E@1@@Z 10027630 f i mainwindow_fusion.obj
 0001:00026640       ??0?$_Vector_iterator@V?$_Vector_val@EV?$allocator@E@std@@@std@@@std@@QAE@PAEPBU_Container_base0@1@@Z 10027640 f i mainwindow_fusion.obj
 0001:00026650       ??0?$_Vector_val@UPoint@MainWindow_fusion@@V?$allocator@UPoint@MainWindow_fusion@@@std@@@std@@QAE@V?$allocator@UPoint@MainWindow_fusion@@@1@@Z 10027650 f i mainwindow_fusion.obj
 0001:00026660       ??0?$_Vector_val@UCluster@MainWindow_fusion@@V?$allocator@UCluster@MainWindow_fusion@@@std@@@std@@QAE@V?$allocator@UCluster@MainWindow_fusion@@@1@@Z 10027660 f i mainwindow_fusion.obj
 0001:00026670       ??D?$_Tree_iterator@V?$_Tree_val@V?$_Tmap_traits@HV?$vector@HV?$allocator@H@std@@@std@@U?$less@H@2@V?$allocator@U?$pair@$$CBHV?$vector@HV?$allocator@H@std@@@std@@@std@@@2@$0A@@std@@@std@@@std@@QBEAAU?$pair@$$CBHV?$vector@HV?$allocator@H@std@@@std@@@1@XZ 10027670 f i mainwindow_fusion.obj
 0001:00026680       ?_Lbound@?$_Tree@V?$_Tmap_traits@HV?$vector@HV?$allocator@H@std@@@std@@U?$less@H@2@V?$allocator@U?$pair@$$CBHV?$vector@HV?$allocator@H@std@@@std@@@std@@@2@$0A@@std@@@std@@IAEPAU_Node@?$_Tree_nod@V?$_Tmap_traits@HV?$vector@HV?$allocator@H@std@@@std@@U?$less@H@2@V?$allocator@U?$pair@$$CBHV?$vector@HV?$allocator@H@std@@@std@@@std@@@2@$0A@@std@@@2@ABH@Z 10027680 f i mainwindow_fusion.obj
 0001:000266b0       ?_Make_iter@?$vector@EV?$allocator@E@std@@@std@@QBE?AV?$_Vector_iterator@V?$_Vector_val@EV?$allocator@E@std@@@std@@@2@V?$_Vector_const_iterator@V?$_Vector_val@EV?$allocator@E@std@@@std@@@2@@Z 100276b0 f i mainwindow_fusion.obj
 0001:000266c0       ?max_size@?$vector@EV?$allocator@E@std@@@std@@QBEIXZ 100276c0 f i mainwindow_fusion.obj
 0001:000266d0       ?_Grow_to@?$vector@EV?$allocator@E@std@@@std@@IBEII@Z 100276d0 f i mainwindow_fusion.obj
 0001:00026700       ?allocate@?$allocator@E@std@@QAEPAEI@Z 10027700 f i mainwindow_fusion.obj
 0001:00026760       ?max_size@?$vector@UPoint@MainWindow_fusion@@V?$allocator@UPoint@MainWindow_fusion@@@std@@@std@@QBEIXZ 10027760 f i mainwindow_fusion.obj
 0001:00026770       ?_Grow_to@?$vector@UPoint@MainWindow_fusion@@V?$allocator@UPoint@MainWindow_fusion@@@std@@@std@@IBEII@Z 10027770 f i mainwindow_fusion.obj
 0001:000267b0       ?max_size@?$vector@UCluster@MainWindow_fusion@@V?$allocator@UCluster@MainWindow_fusion@@@std@@@std@@QBEIXZ 100277b0 f i mainwindow_fusion.obj
 0001:000267c0       ?_Grow_to@?$vector@UCluster@MainWindow_fusion@@V?$allocator@UCluster@MainWindow_fusion@@@std@@@std@@IBEII@Z 100277c0 f i mainwindow_fusion.obj
 0001:00026800       ??0?$_Tree_nod@V?$_Tmap_traits@HV?$vector@HV?$allocator@H@std@@@std@@U?$less@H@2@V?$allocator@U?$pair@$$CBHV?$vector@HV?$allocator@H@std@@@std@@@std@@@2@$0A@@std@@@std@@QAE@ABU?$less@H@1@V?$allocator@U?$pair@$$CBHV?$vector@HV?$allocator@H@std@@@std@@@std@@@1@@Z 10027800 f i mainwindow_fusion.obj
 0001:00026810       ?allocate@?$allocator@U_Node@?$_Tree_nod@V?$_Tmap_traits@HV?$vector@HV?$allocator@H@std@@@std@@U?$less@H@2@V?$allocator@U?$pair@$$CBHV?$vector@HV?$allocator@H@std@@@std@@@std@@@2@$0A@@std@@@std@@@std@@QAEPAU_Node@?$_Tree_nod@V?$_Tmap_traits@HV?$vector@HV?$allocator@H@std@@@std@@U?$less@H@2@V?$allocator@U?$pair@$$CBHV?$vector@HV?$allocator@H@std@@@std@@@std@@@2@$0A@@std@@@2@I@Z 10027810 f i mainwindow_fusion.obj
 0001:00026870       ??8?$_Vector_const_iterator@V?$_Vector_val@EV?$allocator@E@std@@@std@@@std@@QBE_NABV01@@Z 10027870 f i mainwindow_fusion.obj
 0001:00026880       ?allocate@?$allocator@UPoint@MainWindow_fusion@@@std@@QAEPAUPoint@MainWindow_fusion@@I@Z 10027880 f i mainwindow_fusion.obj
 0001:000268e0       ?allocate@?$allocator@UCluster@MainWindow_fusion@@@std@@QAEPAUCluster@MainWindow_fusion@@I@Z 100278e0 f i mainwindow_fusion.obj
 0001:00026940       ??0?$_Tree_const_iterator@V?$_Tree_val@V?$_Tmap_traits@HV?$vector@HV?$allocator@H@std@@@std@@U?$less@H@2@V?$allocator@U?$pair@$$CBHV?$vector@HV?$allocator@H@std@@@std@@@std@@@2@$0A@@std@@@std@@@std@@QAE@PAU_Node@?$_Tree_nod@V?$_Tmap_traits@HV?$vector@HV?$allocator@H@std@@@std@@U?$less@H@2@V?$allocator@U?$pair@$$CBHV?$vector@HV?$allocator@H@std@@@std@@@std@@@2@$0A@@std@@@1@PBV?$_Tree_val@V?$_Tmap_traits@HV?$vector@HV?$allocator@H@std@@@std@@U?$less@H@2@V?$allocator@U?$pair@$$CBHV?$vector@HV?$allocator@H@std@@@std@@@std@@@2@$0A@@std@@@1@@Z 10027940 f i mainwindow_fusion.obj
 0001:00026950       ?_Lrotate@?$_Tree@V?$_Tmap_traits@HV?$vector@HV?$allocator@H@std@@@std@@U?$less@H@2@V?$allocator@U?$pair@$$CBHV?$vector@HV?$allocator@H@std@@@std@@@std@@@2@$0A@@std@@@std@@IAEXPAU_Node@?$_Tree_nod@V?$_Tmap_traits@HV?$vector@HV?$allocator@H@std@@@std@@U?$less@H@2@V?$allocator@U?$pair@$$CBHV?$vector@HV?$allocator@H@std@@@std@@@std@@@2@$0A@@std@@@2@@Z 10027950 f i mainwindow_fusion.obj
 0001:000269a0       ?_Rrotate@?$_Tree@V?$_Tmap_traits@HV?$vector@HV?$allocator@H@std@@@std@@U?$less@H@2@V?$allocator@U?$pair@$$CBHV?$vector@HV?$allocator@H@std@@@std@@@std@@@2@$0A@@std@@@std@@IAEXPAU_Node@?$_Tree_nod@V?$_Tmap_traits@HV?$vector@HV?$allocator@H@std@@@std@@U?$less@H@2@V?$allocator@U?$pair@$$CBHV?$vector@HV?$allocator@H@std@@@std@@@std@@@2@$0A@@std@@@2@@Z 100279a0 f i mainwindow_fusion.obj
 0001:00026a00       ??E?$_Tree_const_iterator@V?$_Tree_val@V?$_Tmap_traits@HV?$vector@HV?$allocator@H@std@@@std@@U?$less@H@2@V?$allocator@U?$pair@$$CBHV?$vector@HV?$allocator@H@std@@@std@@@std@@@2@$0A@@std@@@std@@@std@@QAEAAV01@XZ 10027a00 f i mainwindow_fusion.obj
 0001:00026a10       ??$_Cons_val@V?$allocator@E@std@@EAAE@std@@YAXAAV?$allocator@E@0@PAEAAE@Z 10027a10 f i mainwindow_fusion.obj
 0001:00026a30       ??$_Copy_impl@PAHPAH@std@@YAPAHPAH00@Z 10027a30 f i mainwindow_fusion.obj
 0001:00026a60       ??$_Cons_val@V?$allocator@UPoint@MainWindow_fusion@@@std@@UPoint@MainWindow_fusion@@AAU34@@std@@YAXAAV?$allocator@UPoint@MainWindow_fusion@@@0@PAUPoint@MainWindow_fusion@@AAU23@@Z 10027a60 f i mainwindow_fusion.obj
 0001:00026a80       ??$_Cons_val@V?$allocator@UCluster@MainWindow_fusion@@@std@@UCluster@MainWindow_fusion@@AAU34@@std@@YAXAAV?$allocator@UCluster@MainWindow_fusion@@@0@PAUCluster@MainWindow_fusion@@AAU23@@Z 10027a80 f i mainwindow_fusion.obj
 0001:00026ab0       ??$_Move@PAEPAE@std@@YAPAEPAE00@Z 10027ab0 f i mainwindow_fusion.obj
 0001:00026ae0       ??$_Destroy_range@V?$allocator@E@std@@@std@@YAXPAE0AAV?$allocator@E@0@@Z 10027ae0 f i mainwindow_fusion.obj
 0001:00026af0       ??$swap@D@std@@YAXAAD0@Z   10027af0 f i mainwindow_fusion.obj
 0001:00026b10       ?construct@?$allocator@E@std@@QAEXPAEABE@Z 10027b10 f i mainwindow_fusion.obj
 0001:00026b30       ??G?$_Vector_iterator@V?$_Vector_val@EV?$allocator@E@std@@@std@@@std@@QBEHABV?$_Vector_const_iterator@V?$_Vector_val@EV?$allocator@E@std@@@std@@@1@@Z 10027b30 f i mainwindow_fusion.obj
 0001:00026b40       ?construct@?$allocator@UPoint@MainWindow_fusion@@@std@@QAEXPAUPoint@MainWindow_fusion@@ABU34@@Z 10027b40 f i mainwindow_fusion.obj
 0001:00026b60       ?construct@?$allocator@UCluster@MainWindow_fusion@@@std@@QAEXPAUCluster@MainWindow_fusion@@ABU34@@Z 10027b60 f i mainwindow_fusion.obj
 0001:00026ba0       ??0?$_Tree_const_iterator@V?$_Tree_val@V?$_Tmap_traits@HV?$vector@HV?$allocator@H@std@@@std@@U?$less@H@2@V?$allocator@U?$pair@$$CBHV?$vector@HV?$allocator@H@std@@@std@@@std@@@2@$0A@@std@@@std@@@std@@QAE@XZ 10027ba0 f i mainwindow_fusion.obj
 0001:00026bb0       ??F?$_Tree_const_iterator@V?$_Tree_val@V?$_Tmap_traits@HV?$vector@HV?$allocator@H@std@@@std@@U?$less@H@2@V?$allocator@U?$pair@$$CBHV?$vector@HV?$allocator@H@std@@@std@@@std@@@2@$0A@@std@@@std@@@std@@QAEAAV01@XZ 10027bb0 f i mainwindow_fusion.obj
 0001:00026bc0       ?max_size@?$_Tree@V?$_Tmap_traits@HV?$vector@HV?$allocator@H@std@@@std@@U?$less@H@2@V?$allocator@U?$pair@$$CBHV?$vector@HV?$allocator@H@std@@@std@@@std@@@2@$0A@@std@@@std@@QBEIXZ 10027bc0 f i mainwindow_fusion.obj
 0001:00026bd0       ??F?$_Tree_iterator@V?$_Tree_val@V?$_Tmap_traits@HV?$vector@HV?$allocator@H@std@@@std@@U?$less@H@2@V?$allocator@U?$pair@$$CBHV?$vector@HV?$allocator@H@std@@@std@@@std@@@2@$0A@@std@@@std@@@std@@QAEAAV01@XZ 10027bd0 f i mainwindow_fusion.obj
 0001:00026be0       ??0?$_Pair_base@V?$_Tree_iterator@V?$_Tree_val@V?$_Tmap_traits@HV?$vector@HV?$allocator@H@std@@@std@@U?$less@H@2@V?$allocator@U?$pair@$$CBHV?$vector@HV?$allocator@H@std@@@std@@@std@@@2@$0A@@std@@@std@@@std@@_N@std@@QAE@$$QAV?$_Tree_iterator@V?$_Tree_val@V?$_Tmap_traits@HV?$vector@HV?$allocator@H@std@@@std@@U?$less@H@2@V?$allocator@U?$pair@$$CBHV?$vector@HV?$allocator@H@std@@@std@@@std@@@2@$0A@@std@@@std@@@1@$$QA_N@Z 10027be0 f i mainwindow_fusion.obj
 0001:00026c00       ??$_Unchecked@V?$_Vector_val@EV?$allocator@E@std@@@std@@@std@@YAPAEV?$_Vector_iterator@V?$_Vector_val@EV?$allocator@E@std@@@std@@@0@@Z 10027c00 f i mainwindow_fusion.obj
 0001:00026c10       ??$_Uninitialized_copy@PAHPAHV?$allocator@H@std@@@std@@YAPAHPAH00AAV?$allocator@H@0@@Z 10027c10 f i mainwindow_fusion.obj
 0001:00026c40       ??$_Uninitialized_move@PAEPAEV?$allocator@E@std@@@std@@YAPAEPAE00AAV?$allocator@E@0@@Z 10027c40 f i mainwindow_fusion.obj
 0001:00026c60       ??$?0AAV?$_Tree_iterator@V?$_Tree_val@V?$_Tmap_traits@HV?$vector@HV?$allocator@H@std@@@std@@U?$less@H@2@V?$allocator@U?$pair@$$CBHV?$vector@HV?$allocator@H@std@@@std@@@std@@@2@$0A@@std@@@std@@@std@@_N@?$pair@V?$_Tree_iterator@V?$_Tree_val@V?$_Tmap_traits@HV?$vector@HV?$allocator@H@std@@@std@@U?$less@H@2@V?$allocator@U?$pair@$$CBHV?$vector@HV?$allocator@H@std@@@std@@@std@@@2@$0A@@std@@@std@@@std@@_N@std@@QAE@AAV?$_Tree_iterator@V?$_Tree_val@V?$_Tmap_traits@HV?$vector@HV?$allocator@H@std@@@std@@U?$less@H@2@V?$allocator@U?$pair@$$CBHV?$vector@HV?$allocator@H@std@@@std@@@std@@@2@$0A@@std@@@std@@@1@$$QA_N@Z 10027c60 f i mainwindow_fusion.obj
 0001:00026c80       ?_Buynode@?$_Tree_val@V?$_Tmap_traits@HV?$vector@HV?$allocator@H@std@@@std@@U?$less@H@2@V?$allocator@U?$pair@$$CBHV?$vector@HV?$allocator@H@std@@@std@@@std@@@2@$0A@@std@@@std@@QAEPAU_Node@?$_Tree_nod@V?$_Tmap_traits@HV?$vector@HV?$allocator@H@std@@@std@@U?$less@H@2@V?$allocator@U?$pair@$$CBHV?$vector@HV?$allocator@H@std@@@std@@@std@@@2@$0A@@std@@@2@XZ 10027c80 f i mainwindow_fusion.obj
 0001:00026ce0       ?destroy@?$allocator@UPoint@MainWindow_fusion@@@std@@QAEXPAUPoint@MainWindow_fusion@@@Z 10027ce0 f i mainwindow_fusion.obj
 0001:00026cf0       ?destroy@?$allocator@UCluster@MainWindow_fusion@@@std@@QAEXPAUCluster@MainWindow_fusion@@@Z 10027cf0 f i mainwindow_fusion.obj
 0001:00026d00       ??$?0AAPAEAAPAE@?$pair@PAEPAE@std@@QAE@AAPAE0@Z 10027d00 f i mainwindow_fusion.obj
 0001:00026d20       ?destroy@?$allocator@E@std@@QAEXPAE@Z 10027d20 f i mainwindow_fusion.obj
 0001:00026d30       ?construct@?$allocator@UPoint@MainWindow_fusion@@@std@@QAEXPAUPoint@MainWindow_fusion@@$$QAU34@@Z 10027d30 f i mainwindow_fusion.obj
 0001:00026d50       ?construct@?$allocator@UCluster@MainWindow_fusion@@@std@@QAEXPAUCluster@MainWindow_fusion@@$$QAU34@@Z 10027d50 f i mainwindow_fusion.obj
 0001:00026d90       ??$swap@E@std@@YAXAAE0@Z   10027d90 f i mainwindow_fusion.obj
 0001:00026db0       ??$_Adjust_heap@PAEHE@std@@YAXPAEHH$$QAE@Z 10027db0 f i mainwindow_fusion.obj
 0001:00026e40       ??$_Move_backward@PAEPAE@std@@YAPAEPAE00@Z 10027e40 f i mainwindow_fusion.obj
 0001:00026e70       ??$_Pop_heap@PAEHE@std@@YAXPAE00$$QAEPAH@Z 10027e70 f i mainwindow_fusion.obj
 0001:00026eb0       ?on_Browse_4_clicked@MainWindow_fusion@@AAEXXZ 10027eb0 f   mainwindow_fusion.obj
 0001:00027150       ?on_Browse_2_clicked@MainWindow_fusion@@AAEXXZ 10028150 f   mainwindow_fusion.obj
 0001:00027400       ?MatrixInversion@MainWindow_fusion@@QAEXPAPAMHAAPAPAM@Z 10028400 f   mainwindow_fusion.obj
 0001:00027560       ?getCovarianceMartix@MainWindow_fusion@@QAEPAPAMHPAPAM0HH@Z 10028560 f   mainwindow_fusion.obj
 0001:000279a0       ??0?$vector@EV?$allocator@E@std@@@std@@QAE@XZ 100289a0 f i mainwindow_fusion.obj
 0001:000279b0       ?begin@?$vector@EV?$allocator@E@std@@@std@@QAE?AV?$_Vector_iterator@V?$_Vector_val@EV?$allocator@E@std@@@std@@@2@XZ 100289b0 f i mainwindow_fusion.obj
 0001:000279c0       ?end@?$vector@EV?$allocator@E@std@@@std@@QAE?AV?$_Vector_iterator@V?$_Vector_val@EV?$allocator@E@std@@@std@@@2@XZ 100289c0 f i mainwindow_fusion.obj
 0001:000279d0       ??0?$vector@UPoint@MainWindow_fusion@@V?$allocator@UPoint@MainWindow_fusion@@@std@@@std@@QAE@XZ 100289d0 f i mainwindow_fusion.obj
 0001:000279e0       ??0?$vector@UCluster@MainWindow_fusion@@V?$allocator@UCluster@MainWindow_fusion@@@std@@@std@@QAE@XZ 100289e0 f i mainwindow_fusion.obj
 0001:000279f0       ?_Buy@?$vector@EV?$allocator@E@std@@@std@@IAE_NI@Z 100289f0 f i mainwindow_fusion.obj
 0001:00027a40       ??0?$_Tree_val@V?$_Tmap_traits@HV?$vector@HV?$allocator@H@std@@@std@@U?$less@H@2@V?$allocator@U?$pair@$$CBHV?$vector@HV?$allocator@H@std@@@std@@@std@@@2@$0A@@std@@@std@@QAE@ABU?$less@H@1@V?$allocator@U?$pair@$$CBHV?$vector@HV?$allocator@H@std@@@std@@@std@@@1@@Z 10028a40 f i mainwindow_fusion.obj
 0001:00027ac0       ?_Destroy@?$vector@EV?$allocator@E@std@@@std@@IAEXPAE0@Z 10028ac0 f i mainwindow_fusion.obj
 0001:00027ad0       ??9?$_Vector_const_iterator@V?$_Vector_val@EV?$allocator@E@std@@@std@@@std@@QBE_NABV01@@Z 10028ad0 f i mainwindow_fusion.obj
 0001:00027ae0       ??0?$_Tree_iterator@V?$_Tree_val@V?$_Tmap_traits@HV?$vector@HV?$allocator@H@std@@@std@@U?$less@H@2@V?$allocator@U?$pair@$$CBHV?$vector@HV?$allocator@H@std@@@std@@@std@@@2@$0A@@std@@@std@@@std@@QAE@PAU_Node@?$_Tree_nod@V?$_Tmap_traits@HV?$vector@HV?$allocator@H@std@@@std@@U?$less@H@2@V?$allocator@U?$pair@$$CBHV?$vector@HV?$allocator@H@std@@@std@@@std@@@2@$0A@@std@@@1@PBV?$_Tree_val@V?$_Tmap_traits@HV?$vector@HV?$allocator@H@std@@@std@@U?$less@H@2@V?$allocator@U?$pair@$$CBHV?$vector@HV?$allocator@H@std@@@std@@@std@@@2@$0A@@std@@@1@@Z 10028ae0 f i mainwindow_fusion.obj
 0001:00027af0       ??E?$_Tree_const_iterator@V?$_Tree_val@V?$_Tmap_traits@HV?$vector@HV?$allocator@H@std@@@std@@U?$less@H@2@V?$allocator@U?$pair@$$CBHV?$vector@HV?$allocator@H@std@@@std@@@std@@@2@$0A@@std@@@std@@@std@@QAE?AV01@H@Z 10028af0 f i mainwindow_fusion.obj
 0001:00027b10       ??$_Cons_val@V?$allocator@E@std@@EABE@std@@YAXAAV?$allocator@E@0@PAEABE@Z 10028b10 f i mainwindow_fusion.obj
 0001:00027b30       ??$_Ucopy@PAH@?$vector@HV?$allocator@H@std@@@std@@IAEPAHPAH00@Z 10028b30 f i mainwindow_fusion.obj
 0001:00027b60       ??$_Cons_val@V?$allocator@UPoint@MainWindow_fusion@@@std@@UPoint@MainWindow_fusion@@ABU34@@std@@YAXAAV?$allocator@UPoint@MainWindow_fusion@@@0@PAUPoint@MainWindow_fusion@@ABU23@@Z 10028b60 f i mainwindow_fusion.obj
 0001:00027b80       ??$_Cons_val@V?$allocator@UCluster@MainWindow_fusion@@@std@@UCluster@MainWindow_fusion@@ABU34@@std@@YAXAAV?$allocator@UCluster@MainWindow_fusion@@@0@PAUCluster@MainWindow_fusion@@ABU23@@Z 10028b80 f i mainwindow_fusion.obj
 0001:00027bb0       ??$_Umove@PAE@?$vector@EV?$allocator@E@std@@@std@@IAEPAEPAE00@Z 10028bb0 f i mainwindow_fusion.obj
 0001:00027be0       ??0?$pair@V?$_Tree_iterator@V?$_Tree_val@V?$_Tmap_traits@HV?$vector@HV?$allocator@H@std@@@std@@U?$less@H@2@V?$allocator@U?$pair@$$CBHV?$vector@HV?$allocator@H@std@@@std@@@std@@@2@$0A@@std@@@std@@@std@@_N@std@@QAE@$$QAV?$_Tree_iterator@V?$_Tree_val@V?$_Tmap_traits@HV?$vector@HV?$allocator@H@std@@@std@@U?$less@H@2@V?$allocator@U?$pair@$$CBHV?$vector@HV?$allocator@H@std@@@std@@@std@@@2@$0A@@std@@@std@@@1@$$QA_N@Z 10028be0 f i mainwindow_fusion.obj
 0001:00027c00       ??$_Dest_val@V?$allocator@UPoint@MainWindow_fusion@@@std@@UPoint@MainWindow_fusion@@@std@@YAXAAV?$allocator@UPoint@MainWindow_fusion@@@0@PAUPoint@MainWindow_fusion@@@Z 10028c00 f i mainwindow_fusion.obj
 0001:00027c10       ??$_Dest_val@V?$allocator@UCluster@MainWindow_fusion@@@std@@UCluster@MainWindow_fusion@@@std@@YAXAAV?$allocator@UCluster@MainWindow_fusion@@@0@PAUCluster@MainWindow_fusion@@@Z 10028c10 f i mainwindow_fusion.obj
 0001:00027c20       ??$iter_swap@PAEPAE@std@@YAXPAE0@Z 10028c20 f i mainwindow_fusion.obj
 0001:00027c40       ??$_Make_heap@PAEHE@std@@YAXPAE0PAH0@Z 10028c40 f i mainwindow_fusion.obj
 0001:00027cf0       ??$_Insertion_sort1@PAEE@std@@YAXPAE00@Z 10028cf0 f i mainwindow_fusion.obj
 0001:00027d60       ??$_Dest_val@V?$allocator@E@std@@E@std@@YAXAAV?$allocator@E@0@PAE@Z 10028d60 f i mainwindow_fusion.obj
 0001:00027d70       ??$_Cons_val@V?$allocator@UPoint@MainWindow_fusion@@@std@@UPoint@MainWindow_fusion@@U34@@std@@YAXAAV?$allocator@UPoint@MainWindow_fusion@@@0@PAUPoint@MainWindow_fusion@@$$QAU23@@Z 10028d70 f i mainwindow_fusion.obj
 0001:00027d90       ??$_Cons_val@V?$allocator@UCluster@MainWindow_fusion@@@std@@UCluster@MainWindow_fusion@@U34@@std@@YAXAAV?$allocator@UCluster@MainWindow_fusion@@@0@PAUCluster@MainWindow_fusion@@$$QAU23@@Z 10028d90 f i mainwindow_fusion.obj
 0001:00027dc0       ??$_Med3@PAE@std@@YAXPAE00@Z 10028dc0 f i mainwindow_fusion.obj
 0001:00027e00       ??$_Pop_heap_0@PAEE@std@@YAXPAE00@Z 10028e00 f i mainwindow_fusion.obj
 0001:00027e30       ??1?$_Pair_base@$$CBHV?$vector@HV?$allocator@H@std@@@std@@@std@@QAE@XZ 10028e30 f i mainwindow_fusion.obj
 0001:00027e60       ??0?$_Tree@V?$_Tmap_traits@HV?$vector@HV?$allocator@H@std@@@std@@U?$less@H@2@V?$allocator@U?$pair@$$CBHV?$vector@HV?$allocator@H@std@@@std@@@std@@@2@$0A@@std@@@std@@QAE@ABU?$less@H@1@ABV?$allocator@U?$pair@$$CBHV?$vector@HV?$allocator@H@std@@@std@@@std@@@1@@Z 10028e60 f i mainwindow_fusion.obj
 0001:00027ee0       ?end@?$_Tree@V?$_Tmap_traits@HV?$vector@HV?$allocator@H@std@@@std@@U?$less@H@2@V?$allocator@U?$pair@$$CBHV?$vector@HV?$allocator@H@std@@@std@@@std@@@2@$0A@@std@@@std@@QAE?AV?$_Tree_iterator@V?$_Tree_val@V?$_Tmap_traits@HV?$vector@HV?$allocator@H@std@@@std@@U?$less@H@2@V?$allocator@U?$pair@$$CBHV?$vector@HV?$allocator@H@std@@@std@@@std@@@2@$0A@@std@@@std@@@2@XZ 10028ee0 f i mainwindow_fusion.obj
 0001:00027ef0       ?lower_bound@?$_Tree@V?$_Tmap_traits@HV?$vector@HV?$allocator@H@std@@@std@@U?$less@H@2@V?$allocator@U?$pair@$$CBHV?$vector@HV?$allocator@H@std@@@std@@@std@@@2@$0A@@std@@@std@@QAE?AV?$_Tree_iterator@V?$_Tree_val@V?$_Tmap_traits@HV?$vector@HV?$allocator@H@std@@@std@@U?$less@H@2@V?$allocator@U?$pair@$$CBHV?$vector@HV?$allocator@H@std@@@std@@@std@@@2@$0A@@std@@@std@@@2@ABH@Z 10028ef0 f i mainwindow_fusion.obj
 0001:00027f20       ?erase@?$vector@EV?$allocator@E@std@@@std@@QAE?AV?$_Vector_iterator@V?$_Vector_val@EV?$allocator@E@std@@@std@@@2@V?$_Vector_const_iterator@V?$_Vector_val@EV?$allocator@E@std@@@std@@@2@0@Z 10028f20 f i mainwindow_fusion.obj
 0001:00027f60       ?_Tidy@?$vector@EV?$allocator@E@std@@@std@@IAEXXZ 10028f60 f i mainwindow_fusion.obj
 0001:00027f90       ?begin@?$_Tree@V?$_Tmap_traits@HV?$vector@HV?$allocator@H@std@@@std@@U?$less@H@2@V?$allocator@U?$pair@$$CBHV?$vector@HV?$allocator@H@std@@@std@@@std@@@2@$0A@@std@@@std@@QAE?AV?$_Tree_iterator@V?$_Tree_val@V?$_Tmap_traits@HV?$vector@HV?$allocator@H@std@@@std@@U?$less@H@2@V?$allocator@U?$pair@$$CBHV?$vector@HV?$allocator@H@std@@@std@@@std@@@2@$0A@@std@@@std@@@2@XZ 10028f90 f i mainwindow_fusion.obj
 0001:00027fa0       ?reserve@?$vector@EV?$allocator@E@std@@@std@@QAEXI@Z 10028fa0 f i mainwindow_fusion.obj
 0001:00028010       ??$_Destroy_range@V?$allocator@UPoint@MainWindow_fusion@@@std@@@std@@YAXPAUPoint@MainWindow_fusion@@0AAV?$allocator@UPoint@MainWindow_fusion@@@0@U_Nonscalar_ptr_iterator_tag@0@@Z 10029010 f i mainwindow_fusion.obj
 0001:00028020       ??$_Destroy_range@V?$allocator@UCluster@MainWindow_fusion@@@std@@@std@@YAXPAUCluster@MainWindow_fusion@@0AAV?$allocator@UCluster@MainWindow_fusion@@@0@U_Nonscalar_ptr_iterator_tag@0@@Z 10029020 f i mainwindow_fusion.obj
 0001:00028030       ??$make_heap@PAE@std@@YAXPAE0@Z 10029030 f i mainwindow_fusion.obj
 0001:00028050       ??$_Insertion_sort@PAE@std@@YAXPAE0@Z 10029050 f i mainwindow_fusion.obj
 0001:00028070       ??$_Uninit_copy@V?$_Vector_const_iterator@V?$_Vector_val@EV?$allocator@E@std@@@std@@@std@@PAEV?$allocator@E@2@@std@@YAPAEV?$_Vector_const_iterator@V?$_Vector_val@EV?$allocator@E@std@@@std@@@0@0PAEAAV?$allocator@E@0@U_Nonscalar_ptr_iterator_tag@0@@Z 10029070 f i mainwindow_fusion.obj
 0001:000280a0       ??$_Uninit_move@PAUPoint@MainWindow_fusion@@PAU12@V?$allocator@UPoint@MainWindow_fusion@@@std@@U12@@std@@YAPAUPoint@MainWindow_fusion@@PAU12@00AAV?$allocator@UPoint@MainWindow_fusion@@@0@0U_Nonscalar_ptr_iterator_tag@0@@Z 100290a0 f i mainwindow_fusion.obj
 0001:000280e0       ??$_Uninit_move@PAUCluster@MainWindow_fusion@@PAU12@V?$allocator@UCluster@MainWindow_fusion@@@std@@U12@@std@@YAPAUCluster@MainWindow_fusion@@PAU12@00AAV?$allocator@UCluster@MainWindow_fusion@@@0@0U_Nonscalar_ptr_iterator_tag@0@@Z 100290e0 f i mainwindow_fusion.obj
 0001:00028130       ??$_Median@PAE@std@@YAXPAE00@Z 10029130 f i mainwindow_fusion.obj
 0001:00028260       ??$_Pop_heap@PAE@std@@YAXPAE0@Z 10029260 f i mainwindow_fusion.obj
 0001:00028290       ?Show_process@MainWindow_fusion@@AAEXV?$basic_string@DU?$char_traits@D@std@@V?$allocator@D@2@@std@@@Z 10029290 f   mainwindow_fusion.obj
 0001:000283c0       ?writePPMImage@MainWindow_fusion@@QAEXPAPAPAEQAHV?$basic_string@DU?$char_traits@D@std@@V?$allocator@D@2@@std@@@Z 100293c0 f   mainwindow_fusion.obj
 0001:00028490       ??1?$vector@EV?$allocator@E@std@@@std@@QAE@XZ 10029490 f i mainwindow_fusion.obj
 0001:000284c0       ?clear@?$vector@EV?$allocator@E@std@@@std@@QAEXXZ 100294c0 f i mainwindow_fusion.obj
 0001:000284f0       ??1?$pair@$$CBHV?$vector@HV?$allocator@H@std@@@std@@@std@@QAE@XZ 100294f0 f i mainwindow_fusion.obj
 0001:00028520       ?_Reserve@?$vector@EV?$allocator@E@std@@@std@@IAEXI@Z 10029520 f i mainwindow_fusion.obj
 0001:00028590       ??$_Destroy_range@V?$allocator@UPoint@MainWindow_fusion@@@std@@@std@@YAXPAUPoint@MainWindow_fusion@@0AAV?$allocator@UPoint@MainWindow_fusion@@@0@@Z 10029590 f i mainwindow_fusion.obj
 0001:000285a0       ??$_Destroy_range@V?$allocator@UCluster@MainWindow_fusion@@@std@@@std@@YAXPAUCluster@MainWindow_fusion@@0AAV?$allocator@UCluster@MainWindow_fusion@@@0@@Z 100295a0 f i mainwindow_fusion.obj
 0001:000285b0       ??$_Uninitialized_copy@V?$_Vector_const_iterator@V?$_Vector_val@EV?$allocator@E@std@@@std@@@std@@PAEV?$allocator@E@2@@std@@YAPAEV?$_Vector_const_iterator@V?$_Vector_val@EV?$allocator@E@std@@@std@@@0@0PAEAAV?$allocator@E@0@@Z 100295b0 f i mainwindow_fusion.obj
 0001:000285e0       ??$_Uninitialized_move@PAUPoint@MainWindow_fusion@@PAU12@V?$allocator@UPoint@MainWindow_fusion@@@std@@@std@@YAPAUPoint@MainWindow_fusion@@PAU12@00AAV?$allocator@UPoint@MainWindow_fusion@@@0@@Z 100295e0 f i mainwindow_fusion.obj
 0001:00028610       ??$_Uninitialized_move@PAUCluster@MainWindow_fusion@@PAU12@V?$allocator@UCluster@MainWindow_fusion@@@std@@@std@@YAPAUCluster@MainWindow_fusion@@PAU12@00AAV?$allocator@UCluster@MainWindow_fusion@@@0@@Z 10029610 f i mainwindow_fusion.obj
 0001:00028640       ??_G?$pair@$$CBHV?$vector@HV?$allocator@H@std@@@std@@@std@@QAEPAXI@Z 10029640 f i mainwindow_fusion.obj
 0001:00028680       ??$_Unguarded_partition@PAE@std@@YA?AU?$pair@PAEPAE@0@PAE0@Z 10029680 f i mainwindow_fusion.obj
 0001:000287a0       ??$_Sort_heap@PAE@std@@YAXPAE0@Z 100297a0 f i mainwindow_fusion.obj
 0001:000287e0       ?push_back@?$vector@EV?$allocator@E@std@@@std@@QAEXABE@Z 100297e0 f i mainwindow_fusion.obj
 0001:00028840       ??4?$vector@HV?$allocator@H@std@@@std@@QAEAAV01@ABV01@@Z 10029840 f i mainwindow_fusion.obj
 0001:00028960       ?_Destroy@?$vector@UPoint@MainWindow_fusion@@V?$allocator@UPoint@MainWindow_fusion@@@std@@@std@@IAEXPAUPoint@MainWindow_fusion@@0@Z 10029960 f i mainwindow_fusion.obj
 0001:00028970       ?_Destroy@?$vector@UCluster@MainWindow_fusion@@V?$allocator@UCluster@MainWindow_fusion@@@std@@@std@@IAEXPAUCluster@MainWindow_fusion@@0@Z 10029970 f i mainwindow_fusion.obj
 0001:00028980       ??$_Ucopy@V?$_Vector_const_iterator@V?$_Vector_val@EV?$allocator@E@std@@@std@@@std@@@?$vector@EV?$allocator@E@std@@@std@@IAEPAEV?$_Vector_const_iterator@V?$_Vector_val@EV?$allocator@E@std@@@std@@@1@0PAE@Z 10029980 f i mainwindow_fusion.obj
 0001:000289b0       ??$_Umove@PAUPoint@MainWindow_fusion@@@?$vector@UPoint@MainWindow_fusion@@V?$allocator@UPoint@MainWindow_fusion@@@std@@@std@@IAEPAUPoint@MainWindow_fusion@@PAU23@00@Z 100299b0 f i mainwindow_fusion.obj
 0001:000289e0       ??$_Umove@PAUCluster@MainWindow_fusion@@@?$vector@UCluster@MainWindow_fusion@@V?$allocator@UCluster@MainWindow_fusion@@@std@@@std@@IAEPAUCluster@MainWindow_fusion@@PAU23@00@Z 100299e0 f i mainwindow_fusion.obj
 0001:00028a10       ??$_Destroy@U?$pair@$$CBHV?$vector@HV?$allocator@H@std@@@std@@@std@@@std@@YAXPAU?$pair@$$CBHV?$vector@HV?$allocator@H@std@@@std@@@0@@Z 10029a10 f i mainwindow_fusion.obj
 0001:00028a40       ??$sort_heap@PAE@std@@YAXPAE0@Z 10029a40 f i mainwindow_fusion.obj
 0001:00028a50       ?GetHistogram@MainWindow_fusion@@QAEXV?$vector@EV?$allocator@E@std@@@std@@AAV23@AAV?$vector@HV?$allocator@H@std@@@3@@Z 10029a50 f   mainwindow_fusion.obj
 0001:00028c70       ?on_pushButton_2_clicked@MainWindow_fusion@@AAEXXZ 10029c70 f   mainwindow_fusion.obj
 0001:00028d60       ?on_pushButton_4_clicked@MainWindow_fusion@@AAEXXZ 10029d60 f   mainwindow_fusion.obj
 0001:00028fd0       ??0?$vector@EV?$allocator@E@std@@@std@@QAE@ABV01@@Z 10029fd0 f i mainwindow_fusion.obj
 0001:00029080       ?_Tidy@?$vector@UPoint@MainWindow_fusion@@V?$allocator@UPoint@MainWindow_fusion@@@std@@@std@@IAEXXZ 1002a080 f i mainwindow_fusion.obj
 0001:000290b0       ?_Tidy@?$vector@UCluster@MainWindow_fusion@@V?$allocator@UCluster@MainWindow_fusion@@@std@@@std@@IAEXXZ 1002a0b0 f i mainwindow_fusion.obj
 0001:000290e0       ?reserve@?$vector@UPoint@MainWindow_fusion@@V?$allocator@UPoint@MainWindow_fusion@@@std@@@std@@QAEXI@Z 1002a0e0 f i mainwindow_fusion.obj
 0001:000291d0       ?reserve@?$vector@UCluster@MainWindow_fusion@@V?$allocator@UCluster@MainWindow_fusion@@@std@@@std@@QAEXI@Z 1002a1d0 f i mainwindow_fusion.obj
 0001:000292c0       ?destroy@?$allocator@U?$pair@$$CBHV?$vector@HV?$allocator@H@std@@@std@@@std@@@std@@QAEXPAU?$pair@$$CBHV?$vector@HV?$allocator@H@std@@@std@@@2@@Z 1002a2c0 f i mainwindow_fusion.obj
 0001:000292f0       ??$_Sort@PAEH@std@@YAXPAE0H@Z 1002a2f0 f i mainwindow_fusion.obj
 0001:000293c0       ??0?$_Pair_base@$$CBHV?$vector@HV?$allocator@H@std@@@std@@@std@@QAE@$$QBH$$QAV?$vector@HV?$allocator@H@std@@@1@@Z 1002a3c0 f i mainwindow_fusion.obj
 0001:00029410       ?GetStats@MainWindow_fusion@@QAEXPAPAHV?$vector@EV?$allocator@E@std@@@std@@HAAM2AAH3HHHHH@Z 1002a410 f   mainwindow_fusion.obj
 0001:000298c0       ??1?$vector@UPoint@MainWindow_fusion@@V?$allocator@UPoint@MainWindow_fusion@@@std@@@std@@QAE@XZ 1002a8c0 f i mainwindow_fusion.obj
 0001:000298f0       ??1?$vector@UCluster@MainWindow_fusion@@V?$allocator@UCluster@MainWindow_fusion@@@std@@@std@@QAE@XZ 1002a8f0 f i mainwindow_fusion.obj
 0001:00029920       ?_Reserve@?$vector@UPoint@MainWindow_fusion@@V?$allocator@UPoint@MainWindow_fusion@@@std@@@std@@IAEXI@Z 1002a920 f i mainwindow_fusion.obj
 0001:000299b0       ?_Reserve@?$vector@UCluster@MainWindow_fusion@@V?$allocator@UCluster@MainWindow_fusion@@@std@@@std@@IAEXI@Z 1002a9b0 f i mainwindow_fusion.obj
 0001:00029a40       ??0?$_Pair_base@$$CBHV?$vector@HV?$allocator@H@std@@@std@@@std@@QAE@ABH$$QAV?$vector@HV?$allocator@H@std@@@1@@Z 1002aa40 f i mainwindow_fusion.obj
 0001:00029a90       ??$sort@V?$_Vector_iterator@V?$_Vector_val@EV?$allocator@E@std@@@std@@@std@@@std@@YAXV?$_Vector_iterator@V?$_Vector_val@EV?$allocator@E@std@@@std@@@0@0@Z 1002aa90 f i mainwindow_fusion.obj
 0001:00029ab0       ??$_Dest_val@V?$allocator@U?$pair@$$CBHV?$vector@HV?$allocator@H@std@@@std@@@std@@@std@@U?$pair@$$CBHV?$vector@HV?$allocator@H@std@@@std@@@2@@std@@YAXAAV?$allocator@U?$pair@$$CBHV?$vector@HV?$allocator@H@std@@@std@@@std@@@0@PAU?$pair@$$CBHV?$vector@HV?$allocator@H@std@@@std@@@0@@Z 1002aab0 f i mainwindow_fusion.obj
 0001:00029ae0       ?_Insert@?$_Tree@V?$_Tmap_traits@HV?$vector@HV?$allocator@H@std@@@std@@U?$less@H@2@V?$allocator@U?$pair@$$CBHV?$vector@HV?$allocator@H@std@@@std@@@std@@@2@$0A@@std@@@std@@IAE?AV?$_Tree_iterator@V?$_Tree_val@V?$_Tmap_traits@HV?$vector@HV?$allocator@H@std@@@std@@U?$less@H@2@V?$allocator@U?$pair@$$CBHV?$vector@HV?$allocator@H@std@@@std@@@std@@@2@$0A@@std@@@std@@@2@_NPAU_Node@?$_Tree_nod@V?$_Tmap_traits@HV?$vector@HV?$allocator@H@std@@@std@@U?$less@H@2@V?$allocator@U?$pair@$$CBHV?$vector@HV?$allocator@H@std@@@std@@@std@@@2@$0A@@std@@@2@1@Z 1002aae0 f i mainwindow_fusion.obj
 0001:00029d20       ??$?0$$CBHV?$vector@HV?$allocator@H@std@@@std@@@?$pair@$$CBHV?$vector@HV?$allocator@H@std@@@std@@@std@@QAE@$$QAU01@@Z 1002ad20 f i mainwindow_fusion.obj
 0001:00029d70       ?PrepareStatistics@MainWindow_fusion@@QAEXPAPAHPAPAPAE1HHHHHHAAM222AAH333@Z 1002ad70 f   mainwindow_fusion.obj
 0001:0002a0f0       ?Fusion_GLSI@MainWindow_fusion@@QAEXPAPAHAAPAPAPAEPAPAPAE2HHHHHH@Z 1002b0f0 f   mainwindow_fusion.obj
 0001:0002a330       ?push_back@?$vector@UPoint@MainWindow_fusion@@V?$allocator@UPoint@MainWindow_fusion@@@std@@@std@@QAEXABUPoint@MainWindow_fusion@@@Z 1002b330 f i mainwindow_fusion.obj
 0001:0002a3c0       ?push_back@?$vector@UCluster@MainWindow_fusion@@V?$allocator@UCluster@MainWindow_fusion@@@std@@@std@@QAEXABUCluster@MainWindow_fusion@@@Z 1002b3c0 f i mainwindow_fusion.obj
 0001:0002a470       ?_Erase@?$_Tree@V?$_Tmap_traits@HV?$vector@HV?$allocator@H@std@@@std@@U?$less@H@2@V?$allocator@U?$pair@$$CBHV?$vector@HV?$allocator@H@std@@@std@@@std@@@2@$0A@@std@@@std@@IAEXPAU_Node@?$_Tree_nod@V?$_Tmap_traits@HV?$vector@HV?$allocator@H@std@@@std@@U?$less@H@2@V?$allocator@U?$pair@$$CBHV?$vector@HV?$allocator@H@std@@@std@@@std@@@2@$0A@@std@@@2@@Z 1002b470 f i mainwindow_fusion.obj
 0001:0002a4c0       ??0?$pair@$$CBHV?$vector@HV?$allocator@H@std@@@std@@@std@@QAE@ABH$$QAV?$vector@HV?$allocator@H@std@@@1@@Z 1002b4c0 f i mainwindow_fusion.obj
 0001:0002a510       ?erase@?$_Tree@V?$_Tmap_traits@HV?$vector@HV?$allocator@H@std@@@std@@U?$less@H@2@V?$allocator@U?$pair@$$CBHV?$vector@HV?$allocator@H@std@@@std@@@std@@@2@$0A@@std@@@std@@QAE?AV?$_Tree_iterator@V?$_Tree_val@V?$_Tmap_traits@HV?$vector@HV?$allocator@H@std@@@std@@U?$less@H@2@V?$allocator@U?$pair@$$CBHV?$vector@HV?$allocator@H@std@@@std@@@std@@@2@$0A@@std@@@std@@@2@V?$_Tree_const_iterator@V?$_Tree_val@V?$_Tmap_traits@HV?$vector@HV?$allocator@H@std@@@std@@U?$less@H@2@V?$allocator@U?$pair@$$CBHV?$vector@HV?$allocator@H@std@@@std@@@std@@@2@$0A@@std@@@std@@@2@@Z 1002b510 f i mainwindow_fusion.obj
 0001:0002a780       ?_Linsert@?$_Tree@V?$_Tmap_traits@HV?$vector@HV?$allocator@H@std@@@std@@U?$less@H@2@V?$allocator@U?$pair@$$CBHV?$vector@HV?$allocator@H@std@@@std@@@std@@@2@$0A@@std@@@std@@QAE?AU?$pair@V?$_Tree_iterator@V?$_Tree_val@V?$_Tmap_traits@HV?$vector@HV?$allocator@H@std@@@std@@U?$less@H@2@V?$allocator@U?$pair@$$CBHV?$vector@HV?$allocator@H@std@@@std@@@std@@@2@$0A@@std@@@std@@@std@@_N@2@PAU_Node@?$_Tree_nod@V?$_Tmap_traits@HV?$vector@HV?$allocator@H@std@@@std@@U?$less@H@2@V?$allocator@U?$pair@$$CBHV?$vector@HV?$allocator@H@std@@@std@@@std@@@2@$0A@@std@@@2@_N@Z 1002b780 f i mainwindow_fusion.obj
 0001:0002a870       ?construct@?$allocator@U?$pair@$$CBHV?$vector@HV?$allocator@H@std@@@std@@@std@@@std@@QAEXPAU?$pair@$$CBHV?$vector@HV?$allocator@H@std@@@std@@@2@$$QAU32@@Z 1002b870 f i mainwindow_fusion.obj
 0001:0002a8e0       ?on_pushButton_clicked@MainWindow_fusion@@AAEXXZ 1002b8e0 f   mainwindow_fusion.obj
 0001:0002b910       ?clear@?$_Tree@V?$_Tmap_traits@HV?$vector@HV?$allocator@H@std@@@std@@U?$less@H@2@V?$allocator@U?$pair@$$CBHV?$vector@HV?$allocator@H@std@@@std@@@std@@@2@$0A@@std@@@std@@QAEXXZ 1002c910 f i mainwindow_fusion.obj
 0001:0002b940       ?erase@?$_Tree@V?$_Tmap_traits@HV?$vector@HV?$allocator@H@std@@@std@@U?$less@H@2@V?$allocator@U?$pair@$$CBHV?$vector@HV?$allocator@H@std@@@std@@@std@@@2@$0A@@std@@@std@@QAE?AV?$_Tree_iterator@V?$_Tree_val@V?$_Tmap_traits@HV?$vector@HV?$allocator@H@std@@@std@@U?$less@H@2@V?$allocator@U?$pair@$$CBHV?$vector@HV?$allocator@H@std@@@std@@@std@@@2@$0A@@std@@@std@@@2@V?$_Tree_const_iterator@V?$_Tree_val@V?$_Tmap_traits@HV?$vector@HV?$allocator@H@std@@@std@@U?$less@H@2@V?$allocator@U?$pair@$$CBHV?$vector@HV?$allocator@H@std@@@std@@@std@@@2@$0A@@std@@@std@@@2@0@Z 1002c940 f i mainwindow_fusion.obj
 0001:0002ba10       ?_Insert@?$_Tree@V?$_Tmap_traits@HV?$vector@HV?$allocator@H@std@@@std@@U?$less@H@2@V?$allocator@U?$pair@$$CBHV?$vector@HV?$allocator@H@std@@@std@@@std@@@2@$0A@@std@@@std@@QAE?AV?$_Tree_iterator@V?$_Tree_val@V?$_Tmap_traits@HV?$vector@HV?$allocator@H@std@@@std@@U?$less@H@2@V?$allocator@U?$pair@$$CBHV?$vector@HV?$allocator@H@std@@@std@@@std@@@2@$0A@@std@@@std@@@2@V?$_Tree_const_iterator@V?$_Tree_val@V?$_Tmap_traits@HV?$vector@HV?$allocator@H@std@@@std@@U?$less@H@2@V?$allocator@U?$pair@$$CBHV?$vector@HV?$allocator@H@std@@@std@@@std@@@2@$0A@@std@@@std@@@2@PAU_Node@?$_Tree_nod@V?$_Tmap_traits@HV?$vector@HV?$allocator@H@std@@@std@@U?$less@H@2@V?$allocator@U?$pair@$$CBHV?$vector@HV?$allocator@H@std@@@std@@@std@@@2@$0A@@std@@@2@@Z 1002ca10 f i mainwindow_fusion.obj
 0001:0002bb70       ??$_Cons_val@V?$allocator@U?$pair@$$CBHV?$vector@HV?$allocator@H@std@@@std@@@std@@@std@@U?$pair@$$CBHV?$vector@HV?$allocator@H@std@@@std@@@2@U32@@std@@YAXAAV?$allocator@U?$pair@$$CBHV?$vector@HV?$allocator@H@std@@@std@@@std@@@0@PAU?$pair@$$CBHV?$vector@HV?$allocator@H@std@@@std@@@0@$$QAU20@@Z 1002cb70 f i mainwindow_fusion.obj
 0001:0002bbe0       ?_Tidy@?$_Tree@V?$_Tmap_traits@HV?$vector@HV?$allocator@H@std@@@std@@U?$less@H@2@V?$allocator@U?$pair@$$CBHV?$vector@HV?$allocator@H@std@@@std@@@std@@@2@$0A@@std@@@std@@IAEXXZ 1002cbe0 f i mainwindow_fusion.obj
 0001:0002bc00       ??$_Buynode@U?$pair@$$CBHV?$vector@HV?$allocator@H@std@@@std@@@std@@@?$_Tree_val@V?$_Tmap_traits@HV?$vector@HV?$allocator@H@std@@@std@@U?$less@H@2@V?$allocator@U?$pair@$$CBHV?$vector@HV?$allocator@H@std@@@std@@@std@@@2@$0A@@std@@@std@@QAEPAU_Node@?$_Tree_nod@V?$_Tmap_traits@HV?$vector@HV?$allocator@H@std@@@std@@U?$less@H@2@V?$allocator@U?$pair@$$CBHV?$vector@HV?$allocator@H@std@@@std@@@std@@@2@$0A@@std@@@1@$$QAU?$pair@$$CBHV?$vector@HV?$allocator@H@std@@@std@@@1@@Z 1002cc00 f i mainwindow_fusion.obj
 0001:0002bcc0       ??1?$_Tree@V?$_Tmap_traits@HV?$vector@HV?$allocator@H@std@@@std@@U?$less@H@2@V?$allocator@U?$pair@$$CBHV?$vector@HV?$allocator@H@std@@@std@@@std@@@2@$0A@@std@@@std@@QAE@XZ 1002ccc0 f i mainwindow_fusion.obj
 0001:0002bd20       ??$insert@U?$pair@$$CBHV?$vector@HV?$allocator@H@std@@@std@@@std@@@?$_Tree@V?$_Tmap_traits@HV?$vector@HV?$allocator@H@std@@@std@@U?$less@H@2@V?$allocator@U?$pair@$$CBHV?$vector@HV?$allocator@H@std@@@std@@@std@@@2@$0A@@std@@@std@@QAE?AV?$_Tree_iterator@V?$_Tree_val@V?$_Tmap_traits@HV?$vector@HV?$allocator@H@std@@@std@@U?$less@H@2@V?$allocator@U?$pair@$$CBHV?$vector@HV?$allocator@H@std@@@std@@@std@@@2@$0A@@std@@@std@@@1@V?$_Tree_const_iterator@V?$_Tree_val@V?$_Tmap_traits@HV?$vector@HV?$allocator@H@std@@@std@@U?$less@H@2@V?$allocator@U?$pair@$$CBHV?$vector@HV?$allocator@H@std@@@std@@@std@@@2@$0A@@std@@@std@@@1@$$QAU?$pair@$$CBHV?$vector@HV?$allocator@H@std@@@std@@@1@@Z 1002cd20 f i mainwindow_fusion.obj
 0001:0002bd50       ??1?$map@HV?$vector@HV?$allocator@H@std@@@std@@U?$less@H@2@V?$allocator@U?$pair@$$CBHV?$vector@HV?$allocator@H@std@@@std@@@std@@@2@@std@@QAE@XZ 1002cd50 f i mainwindow_fusion.obj
 0001:0002bdb0       ??1MainWindow_fusion@@UAE@XZ 1002cdb0 f   mainwindow_fusion.obj
 0001:0002bfc0       ??_EMainWindow_fusion@@W7AEPAXI@Z 1002cfc0 f i mainwindow_fusion.obj
 0001:0002bfd0       ??0?$map@HV?$vector@HV?$allocator@H@std@@@std@@U?$less@H@2@V?$allocator@U?$pair@$$CBHV?$vector@HV?$allocator@H@std@@@std@@@std@@@2@@std@@QAE@XZ 1002cfd0 f i mainwindow_fusion.obj
 0001:0002c040       ??A?$map@HV?$vector@HV?$allocator@H@std@@@std@@U?$less@H@2@V?$allocator@U?$pair@$$CBHV?$vector@HV?$allocator@H@std@@@std@@@std@@@2@@std@@QAEAAV?$vector@HV?$allocator@H@std@@@1@ABH@Z 1002d040 f i mainwindow_fusion.obj
 0001:0002c120       ??0MainWindow_fusion@@QAE@PAVQWidget@@@Z 1002d120 f   mainwindow_fusion.obj
 0001:0002c380       ??_GMainWindow_fusion@@UAEPAXI@Z 1002d380 f i mainwindow_fusion.obj
 0001:0002c380       ??_EMainWindow_fusion@@UAEPAXI@Z 1002d380 f i mainwindow_fusion.obj
 0001:0002c3a0       ?classification@MainWindow_fusion@@QAEXXZ 1002d3a0 f   mainwindow_fusion.obj
 0001:0002d1c0       ?insertvalue@MainWindow_fusion@@QAEXHHHPAPAHH@Z 1002e1c0 f   mainwindow_fusion.obj
 0001:0002d3e0       ?on_pushButton_6_clicked@MainWindow_fusion@@AAEXXZ 1002e3e0 f   mainwindow_fusion.obj
 0001:0002d4b0       ?on_pushButton_ms_clicked@MainWindow_fusion@@AAEXXZ 1002e4b0 f   mainwindow_fusion.obj
 0001:0002e1a0       ??0?$QFlags@W4ImageConversionFlag@Qt@@@@QAE@W4ImageConversionFlag@Qt@@@Z 1002f1a0 f i pain2img.obj
 0001:0002e1b0       ?paintEvent@pain2img@@MAEXPAVQPaintEvent@@@Z 1002f1b0 f   pain2img.obj
 0001:0002e3a0       ??_EQImage@@UAEPAXI@Z      1002f3a0 f i pain2img.obj
 0001:0002e3a0       ??_GQImage@@UAEPAXI@Z      1002f3a0 f i pain2img.obj
 0001:0002e3c0       ??1pain2img@@UAE@XZ        1002f3c0 f   pain2img.obj
 0001:0002e430       ??_Epain2img@@W7AEPAXI@Z   1002f430 f i pain2img.obj
 0001:0002e440       ??_Epain2img@@UAEPAXI@Z    1002f440 f i pain2img.obj
 0001:0002e440       ??_Gpain2img@@UAEPAXI@Z    1002f440 f i pain2img.obj
 0001:0002e460       ??0pain2img@@QAE@V?$vector@HV?$allocator@H@std@@@std@@PAPAPAHHHHPADPAVQWidget@@@Z 1002f460 f   pain2img.obj
 0001:0002e560       ?mouseReleaseEvent@paintbox@@MAEXPAVQMouseEvent@@@Z 1002f560 f   paintbox.obj
 0001:0002e580       ?paintEvent@paintbox@@MAEXPAVQPaintEvent@@@Z 1002f580 f   paintbox.obj
 0001:0002e650       ??0paintbox@@QAE@V?$basic_string@DU?$char_traits@D@std@@V?$allocator@D@2@@std@@HHPAVQWidget@@@Z 1002f650 f   paintbox.obj
 0001:0002e750       ??_Epaintbox@@W7AEPAXI@Z   1002f750 f i paintbox.obj
 0001:0002e760       ??1paintbox@@UAE@XZ        1002f760 f i paintbox.obj
 0001:0002e790       ??_Epaintbox@@UAEPAXI@Z    1002f790 f i paintbox.obj
 0001:0002e790       ??_Gpaintbox@@UAEPAXI@Z    1002f790 f i paintbox.obj
 0001:0002e7e0       ??1paintwindow@@UAE@XZ     1002f7e0 f   paintwindow.obj
 0001:0002e860       ??_Epaintwindow@@W7AEPAXI@Z 1002f860 f i paintwindow.obj
 0001:0002e870       ??0paintwindow@@QAE@VQString@@PAVQWidget@@@Z 1002f870 f   paintwindow.obj
 0001:0002e960       ??_Gpaintwindow@@UAEPAXI@Z 1002f960 f i paintwindow.obj
 0001:0002e960       ??_Epaintwindow@@UAEPAXI@Z 1002f960 f i paintwindow.obj
 0001:0002e9f0       ?paintEvent@paintwindow@@MAEXPAVQPaintEvent@@@Z 1002f9f0 f   paintwindow.obj
 0001:0002eaa0       ?paintEvent@Paintbox2@@MAEXPAVQPaintEvent@@@Z 1002faa0 f   paintbox2.obj
 0001:0002ecc0       ??1Paintbox2@@UAE@XZ       1002fcc0 f   paintbox2.obj
 0001:0002ed40       ??_EPaintbox2@@W7AEPAXI@Z  1002fd40 f i paintbox2.obj
 0001:0002ed50       ??_EPaintbox2@@UAEPAXI@Z   1002fd50 f i paintbox2.obj
 0001:0002ed50       ??_GPaintbox2@@UAEPAXI@Z   1002fd50 f i paintbox2.obj
 0001:0002ed70       ??0Paintbox2@@QAE@HV?$vector@HV?$allocator@H@std@@@std@@PAPAPAHHHPADHPAVQWidget@@@Z 1002fd70 f   paintbox2.obj
 0001:0002ee80       ?compare@?$char_traits@D@std@@SAHPBD0I@Z 1002fe80 f i ModuleManager.obj
 0001:0002ef00       ?setService@ModuleManager@@QAEXPAVExternal@@@Z 1002ff00 f i ModuleManager.obj
 0001:0002ef10       _opticks_get_module_descriptor 1002ff10 f   ModuleManager.obj
 0001:0002ef20       ?getTotalPlugIns@ModuleManager@@SAIXZ 1002ff20 f   ModuleManager.obj
 0001:0002ef30       ?getPlugIn@ModuleManager@@QAEPAVPlugIn@@I@Z 1002ff30 f   ModuleManager.obj
 0001:0002ef40       ?size@?$vector@U?$pair@V?$basic_string@DU?$char_traits@D@std@@V?$allocator@D@2@@std@@PAVPlugInFactory@@@std@@V?$allocator@U?$pair@V?$basic_string@DU?$char_traits@D@std@@V?$allocator@D@2@@std@@PAVPlugInFactory@@@std@@@2@@std@@QBEIXZ 1002ff40 f i ModuleManager.obj
 0001:0002ef50       ??A?$vector@U?$pair@V?$basic_string@DU?$char_traits@D@std@@V?$allocator@D@2@@std@@PAVPlugInFactory@@@std@@V?$allocator@U?$pair@V?$basic_string@DU?$char_traits@D@std@@V?$allocator@D@2@@std@@PAVPlugInFactory@@@std@@@2@@std@@QAEAAU?$pair@V?$basic_string@DU?$char_traits@D@std@@V?$allocator@D@2@@std@@PAVPlugInFactory@@@1@I@Z 1002ff50 f i ModuleManager.obj
 0001:0002ef60       ?_Inside@?$vector@U?$pair@V?$basic_string@DU?$char_traits@D@std@@V?$allocator@D@2@@std@@PAVPlugInFactory@@@std@@V?$allocator@U?$pair@V?$basic_string@DU?$char_traits@D@std@@V?$allocator@D@2@@std@@PAVPlugInFactory@@@std@@@2@@std@@IBE_NPBU?$pair@V?$basic_string@DU?$char_traits@D@std@@V?$allocator@D@2@@std@@PAVPlugInFactory@@@2@@Z 1002ff60 f i ModuleManager.obj
 0001:0002ef80       ?_Orphan_range@?$vector@U?$pair@V?$basic_string@DU?$char_traits@D@std@@V?$allocator@D@2@@std@@PAVPlugInFactory@@@std@@V?$allocator@U?$pair@V?$basic_string@DU?$char_traits@D@std@@V?$allocator@D@2@@std@@PAVPlugInFactory@@@std@@@2@@std@@IBEXPAU?$pair@V?$basic_string@DU?$char_traits@D@std@@V?$allocator@D@2@@std@@PAVPlugInFactory@@@2@0@Z 1002ff80 f i ModuleManager.obj
 0001:0002ef90       ??1?$_Vector_val@U?$pair@V?$basic_string@DU?$char_traits@D@std@@V?$allocator@D@2@@std@@PAVPlugInFactory@@@std@@V?$allocator@U?$pair@V?$basic_string@DU?$char_traits@D@std@@V?$allocator@D@2@@std@@PAVPlugInFactory@@@std@@@2@@std@@QAE@XZ 1002ff90 f i ModuleManager.obj
 0001:0002efa0       ??0?$allocator@U?$pair@V?$basic_string@DU?$char_traits@D@std@@V?$allocator@D@2@@std@@PAVPlugInFactory@@@std@@@std@@QAE@XZ 1002ffa0 f i ModuleManager.obj
 0001:0002efb0       ??0?$_String_const_iterator@DU?$char_traits@D@std@@V?$allocator@D@2@@std@@QAE@PBDPBU_Container_base0@1@@Z 1002ffb0 f i ModuleManager.obj
 0001:0002efc0       ?capacity@?$vector@U?$pair@V?$basic_string@DU?$char_traits@D@std@@V?$allocator@D@2@@std@@PAVPlugInFactory@@@std@@V?$allocator@U?$pair@V?$basic_string@DU?$char_traits@D@std@@V?$allocator@D@2@@std@@PAVPlugInFactory@@@std@@@2@@std@@QBEIXZ 1002ffc0 f i ModuleManager.obj
 0001:0002efd0       ?_Xlen@?$vector@U?$pair@V?$basic_string@DU?$char_traits@D@std@@V?$allocator@D@2@@std@@PAVPlugInFactory@@@std@@V?$allocator@U?$pair@V?$basic_string@DU?$char_traits@D@std@@V?$allocator@D@2@@std@@PAVPlugInFactory@@@std@@@2@@std@@IBEXXZ 1002ffd0 f i ModuleManager.obj
 0001:0002efe0       ??0?$allocator@U?$pair@V?$basic_string@DU?$char_traits@D@std@@V?$allocator@D@2@@std@@PAVPlugInFactory@@@std@@@std@@QAE@ABV01@@Z 1002ffe0 f i ModuleManager.obj
 0001:0002eff0       ?deallocate@?$allocator@U?$pair@V?$basic_string@DU?$char_traits@D@std@@V?$allocator@D@2@@std@@PAVPlugInFactory@@@std@@@std@@QAEXPAU?$pair@V?$basic_string@DU?$char_traits@D@std@@V?$allocator@D@2@@std@@PAVPlugInFactory@@@2@I@Z 1002fff0 f i ModuleManager.obj
 0001:0002f000       ??0?$_Vector_const_iterator@V?$_Vector_val@U?$pair@V?$basic_string@DU?$char_traits@D@std@@V?$allocator@D@2@@std@@PAVPlugInFactory@@@std@@V?$allocator@U?$pair@V?$basic_string@DU?$char_traits@D@std@@V?$allocator@D@2@@std@@PAVPlugInFactory@@@std@@@2@@std@@@std@@QAE@PAU?$pair@V?$basic_string@DU?$char_traits@D@std@@V?$allocator@D@2@@std@@PAVPlugInFactory@@@1@PBU_Container_base0@1@@Z 10030000 f i ModuleManager.obj
 0001:0002f010       ?max_size@?$allocator@U?$pair@V?$basic_string@DU?$char_traits@D@std@@V?$allocator@D@2@@std@@PAVPlugInFactory@@@std@@@std@@QBEIXZ 10030010 f i ModuleManager.obj
 0001:0002f020       ??$addressof@U?$pair@V?$basic_string@DU?$char_traits@D@std@@V?$allocator@D@2@@std@@PAVPlugInFactory@@@std@@@std@@YAPAU?$pair@V?$basic_string@DU?$char_traits@D@std@@V?$allocator@D@2@@std@@PAVPlugInFactory@@@0@AAU10@@Z 10030020 f i ModuleManager.obj
 0001:0002f030       ??$forward@U?$pair@V?$basic_string@DU?$char_traits@D@std@@V?$allocator@D@2@@std@@PAVPlugInFactory@@@std@@@std@@YA$$QAU?$pair@V?$basic_string@DU?$char_traits@D@std@@V?$allocator@D@2@@std@@PAVPlugInFactory@@@0@AAU10@@Z 10030030 f i ModuleManager.obj
 0001:0002f040       ??$_Allocate@U?$pair@V?$basic_string@DU?$char_traits@D@std@@V?$allocator@D@2@@std@@PAVPlugInFactory@@@std@@@std@@YAPAU?$pair@V?$basic_string@DU?$char_traits@D@std@@V?$allocator@D@2@@std@@PAVPlugInFactory@@@0@IPAU10@@Z 10030040 f i ModuleManager.obj
 0001:0002f0a0       ?_Compat@?$_Vector_const_iterator@V?$_Vector_val@U?$pair@V?$basic_string@DU?$char_traits@D@std@@V?$allocator@D@2@@std@@PAVPlugInFactory@@@std@@V?$allocator@U?$pair@V?$basic_string@DU?$char_traits@D@std@@V?$allocator@D@2@@std@@PAVPlugInFactory@@@std@@@2@@std@@@std@@QBEXABV12@@Z 100300a0 f i ModuleManager.obj
 0001:0002f0b0       ??$move@AAV?$basic_string@DU?$char_traits@D@std@@V?$allocator@D@2@@std@@@std@@YA$$QAV?$basic_string@DU?$char_traits@D@std@@V?$allocator@D@2@@0@AAV10@@Z 100300b0 f i ModuleManager.obj
 0001:0002f0c0       ??$_Count@PADD@std@@YAHPAD0ABD@Z 100300c0 f i ModuleManager.obj
 0001:0002f0f0       ??$forward@AAPAVPlugInFactory@@@std@@YAAAPAVPlugInFactory@@AAPAV1@@Z 100300f0 f i ModuleManager.obj
 0001:0002f100       ??$_Ptr_cat@U?$pair@V?$basic_string@DU?$char_traits@D@std@@V?$allocator@D@2@@std@@PAVPlugInFactory@@@std@@U12@@std@@YA?AU_Nonscalar_ptr_iterator_tag@0@PAU?$pair@V?$basic_string@DU?$char_traits@D@std@@V?$allocator@D@2@@std@@PAVPlugInFactory@@@0@0@Z 10030100 f i ModuleManager.obj
 0001:0002f110       ?_Unchecked@?$_String_iterator@DU?$char_traits@D@std@@V?$allocator@D@2@@std@@QBEPADXZ 10030110 f i ModuleManager.obj
 0001:0002f120       ?_Unchecked@?$_Vector_iterator@V?$_Vector_val@U?$pair@V?$basic_string@DU?$char_traits@D@std@@V?$allocator@D@2@@std@@PAVPlugInFactory@@@std@@V?$allocator@U?$pair@V?$basic_string@DU?$char_traits@D@std@@V?$allocator@D@2@@std@@PAVPlugInFactory@@@std@@@2@@std@@@std@@QBEPAU?$pair@V?$basic_string@DU?$char_traits@D@std@@V?$allocator@D@2@@std@@PAVPlugInFactory@@@2@XZ 10030120 f i ModuleManager.obj
 0001:0002f130       ??$forward@PAVPlugInFactory@@@std@@YA$$QAPAVPlugInFactory@@AAPAV1@@Z 10030130 f i ModuleManager.obj
 0001:0002f140       ??$_Val_type@PAU?$pair@V?$basic_string@DU?$char_traits@D@std@@V?$allocator@D@2@@std@@PAVPlugInFactory@@@std@@@std@@YAPAU?$pair@V?$basic_string@DU?$char_traits@D@std@@V?$allocator@D@2@@std@@PAVPlugInFactory@@@0@PAU10@@Z 10030140 f i ModuleManager.obj
 0001:0002f150       ??$move@AAPAVPlugInFactory@@@std@@YA$$QAPAVPlugInFactory@@AAPAV1@@Z 10030150 f i ModuleManager.obj
 0001:0002f160       ??$_Unchecked@PAU?$pair@V?$basic_string@DU?$char_traits@D@std@@V?$allocator@D@2@@std@@PAVPlugInFactory@@@std@@@std@@YAPAU?$pair@V?$basic_string@DU?$char_traits@D@std@@V?$allocator@D@2@@std@@PAVPlugInFactory@@@0@PAU10@@Z 10030160 f i ModuleManager.obj
 0001:0002f170       ??$_Dist_type@PAU?$pair@V?$basic_string@DU?$char_traits@D@std@@V?$allocator@D@2@@std@@PAVPlugInFactory@@@std@@@std@@YAPAHPAU?$pair@V?$basic_string@DU?$char_traits@D@std@@V?$allocator@D@2@@std@@PAVPlugInFactory@@@0@@Z 10030170 f i ModuleManager.obj
 0001:0002f180       ??$forward@AAPAU?$pair@V?$basic_string@DU?$char_traits@D@std@@V?$allocator@D@2@@std@@PAVPlugInFactory@@@std@@@std@@YAAAPAU?$pair@V?$basic_string@DU?$char_traits@D@std@@V?$allocator@D@2@@std@@PAVPlugInFactory@@@0@AAPAU10@@Z 10030180 f i ModuleManager.obj
 0001:0002f190       ??$?0AAPAU?$pair@V?$basic_string@DU?$char_traits@D@std@@V?$allocator@D@2@@std@@PAVPlugInFactory@@@std@@AAPAU01@@?$_Pair_base@PAU?$pair@V?$basic_string@DU?$char_traits@D@std@@V?$allocator@D@2@@std@@PAVPlugInFactory@@@std@@PAU12@@std@@QAE@AAPAU?$pair@V?$basic_string@DU?$char_traits@D@std@@V?$allocator@D@2@@std@@PAVPlugInFactory@@@1@0@Z 10030190 f i ModuleManager.obj
 0001:0002f1b0       ??$_Move@AAU?$pair@V?$basic_string@DU?$char_traits@D@std@@V?$allocator@D@2@@std@@PAVPlugInFactory@@@std@@@std@@YA$$QAU?$pair@V?$basic_string@DU?$char_traits@D@std@@V?$allocator@D@2@@std@@PAVPlugInFactory@@@0@AAU10@@Z 100301b0 f i ModuleManager.obj
 0001:0002f1c0       ??$move@AAU?$pair@V?$basic_string@DU?$char_traits@D@std@@V?$allocator@D@2@@std@@PAVPlugInFactory@@@std@@@std@@YA$$QAU?$pair@V?$basic_string@DU?$char_traits@D@std@@V?$allocator@D@2@@std@@PAVPlugInFactory@@@0@AAU10@@Z 100301c0 f i ModuleManager.obj
 0001:0002f1d0       ??$_Move@AAPAVPlugInFactory@@@std@@YA$$QAPAVPlugInFactory@@AAPAV1@@Z 100301d0 f i ModuleManager.obj
 0001:0002f1e0       ??$_Move@AAT_Bxty@?$_String_val@DV?$allocator@D@std@@@std@@@std@@YA$$QAT_Bxty@?$_String_val@DV?$allocator@D@std@@@0@AAT120@@Z 100301e0 f i ModuleManager.obj
 0001:0002f1f0       ??$_Move@AAI@std@@YA$$QAIAAI@Z 100301f0 f i ModuleManager.obj
 0001:0002f200       ??D?$_Vector_iterator@V?$_Vector_val@V?$basic_string@DU?$char_traits@D@std@@V?$allocator@D@2@@std@@V?$allocator@V?$basic_string@DU?$char_traits@D@std@@V?$allocator@D@2@@std@@@2@@std@@@std@@QBEAAV?$basic_string@DU?$char_traits@D@std@@V?$allocator@D@2@@1@XZ 10030200 f i ModuleManager.obj
 0001:0002f210       ??E?$_Vector_iterator@V?$_Vector_val@V?$basic_string@DU?$char_traits@D@std@@V?$allocator@D@2@@std@@V?$allocator@V?$basic_string@DU?$char_traits@D@std@@V?$allocator@D@2@@std@@@2@@std@@@std@@QAEAAV01@XZ 10030210 f i ModuleManager.obj
 0001:0002f220       ?compare@?$basic_string@DU?$char_traits@D@std@@V?$allocator@D@2@@std@@QBEHIIPBDI@Z 10030220 f i ModuleManager.obj
 0001:0002f290       ??0?$_String_iterator@DU?$char_traits@D@std@@V?$allocator@D@2@@std@@QAE@PADPBU_Container_base0@1@@Z 10030290 f i ModuleManager.obj
 0001:0002f2a0       ??0?$_Vector_val@U?$pair@V?$basic_string@DU?$char_traits@D@std@@V?$allocator@D@2@@std@@PAVPlugInFactory@@@std@@V?$allocator@U?$pair@V?$basic_string@DU?$char_traits@D@std@@V?$allocator@D@2@@std@@PAVPlugInFactory@@@std@@@2@@std@@QAE@V?$allocator@U?$pair@V?$basic_string@DU?$char_traits@D@std@@V?$allocator@D@2@@std@@PAVPlugInFactory@@@std@@@1@@Z 100302a0 f i ModuleManager.obj
 0001:0002f2b0       ??0?$_Vector_iterator@V?$_Vector_val@V?$basic_string@DU?$char_traits@D@std@@V?$allocator@D@2@@std@@V?$allocator@V?$basic_string@DU?$char_traits@D@std@@V?$allocator@D@2@@std@@@2@@std@@@std@@QAE@PAV?$basic_string@DU?$char_traits@D@std@@V?$allocator@D@2@@1@PBU_Container_base0@1@@Z 100302b0 f i ModuleManager.obj
 0001:0002f2c0       ??0?$_Vector_iterator@V?$_Vector_val@U?$pair@V?$basic_string@DU?$char_traits@D@std@@V?$allocator@D@2@@std@@PAVPlugInFactory@@@std@@V?$allocator@U?$pair@V?$basic_string@DU?$char_traits@D@std@@V?$allocator@D@2@@std@@PAVPlugInFactory@@@std@@@2@@std@@@std@@QAE@PAU?$pair@V?$basic_string@DU?$char_traits@D@std@@V?$allocator@D@2@@std@@PAVPlugInFactory@@@1@PBU_Container_base0@1@@Z 100302c0 f i ModuleManager.obj
 0001:0002f2d0       ?max_size@?$vector@U?$pair@V?$basic_string@DU?$char_traits@D@std@@V?$allocator@D@2@@std@@PAVPlugInFactory@@@std@@V?$allocator@U?$pair@V?$basic_string@DU?$char_traits@D@std@@V?$allocator@D@2@@std@@PAVPlugInFactory@@@std@@@2@@std@@QBEIXZ 100302d0 f i ModuleManager.obj
 0001:0002f2e0       ?_Grow_to@?$vector@U?$pair@V?$basic_string@DU?$char_traits@D@std@@V?$allocator@D@2@@std@@PAVPlugInFactory@@@std@@V?$allocator@U?$pair@V?$basic_string@DU?$char_traits@D@std@@V?$allocator@D@2@@std@@PAVPlugInFactory@@@std@@@2@@std@@IBEII@Z 100302e0 f i ModuleManager.obj
 0001:0002f310       ?allocate@?$allocator@U?$pair@V?$basic_string@DU?$char_traits@D@std@@V?$allocator@D@2@@std@@PAVPlugInFactory@@@std@@@std@@QAEPAU?$pair@V?$basic_string@DU?$char_traits@D@std@@V?$allocator@D@2@@std@@PAVPlugInFactory@@@2@I@Z 10030310 f i ModuleManager.obj
 0001:0002f370       ??G?$_Vector_const_iterator@V?$_Vector_val@U?$pair@V?$basic_string@DU?$char_traits@D@std@@V?$allocator@D@2@@std@@PAVPlugInFactory@@@std@@V?$allocator@U?$pair@V?$basic_string@DU?$char_traits@D@std@@V?$allocator@D@2@@std@@PAVPlugInFactory@@@std@@@2@@std@@@std@@QBEHABV01@@Z 10030370 f i ModuleManager.obj
 0001:0002f380       ??$_Unchecked@DU?$char_traits@D@std@@V?$allocator@D@2@@std@@YAPADV?$_String_iterator@DU?$char_traits@D@std@@V?$allocator@D@2@@0@@Z 10030380 f i ModuleManager.obj
 0001:0002f390       ??$_Unchecked@V?$_Vector_val@U?$pair@V?$basic_string@DU?$char_traits@D@std@@V?$allocator@D@2@@std@@PAVPlugInFactory@@@std@@V?$allocator@U?$pair@V?$basic_string@DU?$char_traits@D@std@@V?$allocator@D@2@@std@@PAVPlugInFactory@@@std@@@2@@std@@@std@@YAPAU?$pair@V?$basic_string@DU?$char_traits@D@std@@V?$allocator@D@2@@std@@PAVPlugInFactory@@@0@V?$_Vector_iterator@V?$_Vector_val@U?$pair@V?$basic_string@DU?$char_traits@D@std@@V?$allocator@D@2@@std@@PAVPlugInFactory@@@std@@V?$allocator@U?$pair@V?$basic_string@DU?$char_traits@D@std@@V?$allocator@D@2@@std@@PAVPlugInFactory@@@std@@@2@@std@@@0@@Z 10030390 f i ModuleManager.obj
 0001:0002f3a0       ??$?0AAPAU?$pair@V?$basic_string@DU?$char_traits@D@std@@V?$allocator@D@2@@std@@PAVPlugInFactory@@@std@@AAPAU01@@?$pair@PAU?$pair@V?$basic_string@DU?$char_traits@D@std@@V?$allocator@D@2@@std@@PAVPlugInFactory@@@std@@PAU12@@std@@QAE@AAPAU?$pair@V?$basic_string@DU?$char_traits@D@std@@V?$allocator@D@2@@std@@PAVPlugInFactory@@@1@0@Z 100303a0 f i ModuleManager.obj
 0001:0002f3c0       ??$swap@PAVPlugInFactory@@@std@@YAXAAPAVPlugInFactory@@0@Z 100303c0 f i ModuleManager.obj
 0001:0002f3e0       ??$swap@T_Bxty@?$_String_val@DV?$allocator@D@std@@@std@@@std@@YAXAAT_Bxty@?$_String_val@DV?$allocator@D@std@@@0@0@Z 100303e0 f i ModuleManager.obj
 0001:0002f420       ??$swap@I@std@@YAXAAI0@Z   10030420 f i ModuleManager.obj
 0001:0002f440       ?begin@?$basic_string@DU?$char_traits@D@std@@V?$allocator@D@2@@std@@QAE?AV?$_String_iterator@DU?$char_traits@D@std@@V?$allocator@D@2@@2@XZ 10030440 f i ModuleManager.obj
 0001:0002f460       ?end@?$basic_string@DU?$char_traits@D@std@@V?$allocator@D@2@@std@@QAE?AV?$_String_iterator@DU?$char_traits@D@std@@V?$allocator@D@2@@2@XZ 10030460 f i ModuleManager.obj
 0001:0002f490       ?compare@?$basic_string@DU?$char_traits@D@std@@V?$allocator@D@2@@std@@QBEHABV12@@Z 10030490 f i ModuleManager.obj
 0001:0002f4b0       ?begin@?$vector@V?$basic_string@DU?$char_traits@D@std@@V?$allocator@D@2@@std@@V?$allocator@V?$basic_string@DU?$char_traits@D@std@@V?$allocator@D@2@@std@@@2@@std@@QAE?AV?$_Vector_iterator@V?$_Vector_val@V?$basic_string@DU?$char_traits@D@std@@V?$allocator@D@2@@std@@V?$allocator@V?$basic_string@DU?$char_traits@D@std@@V?$allocator@D@2@@std@@@2@@std@@@2@XZ 100304b0 f i ModuleManager.obj
 0001:0002f4c0       ?end@?$vector@V?$basic_string@DU?$char_traits@D@std@@V?$allocator@D@2@@std@@V?$allocator@V?$basic_string@DU?$char_traits@D@std@@V?$allocator@D@2@@std@@@2@@std@@QAE?AV?$_Vector_iterator@V?$_Vector_val@V?$basic_string@DU?$char_traits@D@std@@V?$allocator@D@2@@std@@V?$allocator@V?$basic_string@DU?$char_traits@D@std@@V?$allocator@D@2@@std@@@2@@std@@@2@XZ 100304c0 f i ModuleManager.obj
 0001:0002f4d0       ??0?$vector@U?$pair@V?$basic_string@DU?$char_traits@D@std@@V?$allocator@D@2@@std@@PAVPlugInFactory@@@std@@V?$allocator@U?$pair@V?$basic_string@DU?$char_traits@D@std@@V?$allocator@D@2@@std@@PAVPlugInFactory@@@std@@@2@@std@@QAE@XZ 100304d0 f i ModuleManager.obj
 0001:0002f4e0       ?begin@?$vector@U?$pair@V?$basic_string@DU?$char_traits@D@std@@V?$allocator@D@2@@std@@PAVPlugInFactory@@@std@@V?$allocator@U?$pair@V?$basic_string@DU?$char_traits@D@std@@V?$allocator@D@2@@std@@PAVPlugInFactory@@@std@@@2@@std@@QAE?AV?$_Vector_iterator@V?$_Vector_val@U?$pair@V?$basic_string@DU?$char_traits@D@std@@V?$allocator@D@2@@std@@PAVPlugInFactory@@@std@@V?$allocator@U?$pair@V?$basic_string@DU?$char_traits@D@std@@V?$allocator@D@2@@std@@PAVPlugInFactory@@@std@@@2@@std@@@2@XZ 100304e0 f i ModuleManager.obj
 0001:0002f4f0       ?end@?$vector@U?$pair@V?$basic_string@DU?$char_traits@D@std@@V?$allocator@D@2@@std@@PAVPlugInFactory@@@std@@V?$allocator@U?$pair@V?$basic_string@DU?$char_traits@D@std@@V?$allocator@D@2@@std@@PAVPlugInFactory@@@std@@@2@@std@@QAE?AV?$_Vector_iterator@V?$_Vector_val@U?$pair@V?$basic_string@DU?$char_traits@D@std@@V?$allocator@D@2@@std@@PAVPlugInFactory@@@std@@V?$allocator@U?$pair@V?$basic_string@DU?$char_traits@D@std@@V?$allocator@D@2@@std@@PAVPlugInFactory@@@std@@@2@@std@@@2@XZ 100304f0 f i ModuleManager.obj
 0001:0002f500       ??$count@V?$_String_iterator@DU?$char_traits@D@std@@V?$allocator@D@2@@std@@D@std@@YAHV?$_String_iterator@DU?$char_traits@D@std@@V?$allocator@D@2@@0@0ABD@Z 10030500 f i ModuleManager.obj
 0001:0002f530       ??$?MDU?$char_traits@D@std@@V?$allocator@D@1@@std@@YA_NABV?$basic_string@DU?$char_traits@D@std@@V?$allocator@D@2@@0@0@Z 10030530 f i ModuleManager.obj
 0001:0002f560       ??G?$_Vector_iterator@V?$_Vector_val@U?$pair@V?$basic_string@DU?$char_traits@D@std@@V?$allocator@D@2@@std@@PAVPlugInFactory@@@std@@V?$allocator@U?$pair@V?$basic_string@DU?$char_traits@D@std@@V?$allocator@D@2@@std@@PAVPlugInFactory@@@std@@@2@@std@@@std@@QBEHABV?$_Vector_const_iterator@V?$_Vector_val@U?$pair@V?$basic_string@DU?$char_traits@D@std@@V?$allocator@D@2@@std@@PAVPlugInFactory@@@std@@V?$allocator@U?$pair@V?$basic_string@DU?$char_traits@D@std@@V?$allocator@D@2@@std@@PAVPlugInFactory@@@std@@@2@@std@@@1@@Z 10030560 f i ModuleManager.obj
 0001:0002f570       ??$_Swap_adl@PAVPlugInFactory@@@std@@YAXAAPAVPlugInFactory@@0@Z 10030570 f i ModuleManager.obj
 0001:0002f590       ??1?$_Pair_base@V?$basic_string@DU?$char_traits@D@std@@V?$allocator@D@2@@std@@PAVPlugInFactory@@@std@@QAE@XZ 10030590 f i ModuleManager.obj
 0001:0002f5c0       ??1?$pair@V?$basic_string@DU?$char_traits@D@std@@V?$allocator@D@2@@std@@PAVPlugInFactory@@@std@@QAE@XZ 100305c0 f i ModuleManager.obj
 0001:0002f5f0       ??_G?$pair@V?$basic_string@DU?$char_traits@D@std@@V?$allocator@D@2@@std@@PAVPlugInFactory@@@std@@QAEPAXI@Z 100305f0 f i ModuleManager.obj
 0001:0002f630       ??RFactoryPtrComparator@@QAE_NU?$pair@V?$basic_string@DU?$char_traits@D@std@@V?$allocator@D@2@@std@@PAVPlugInFactory@@@std@@0@Z 10030630 f i ModuleManager.obj
 0001:0002f800       ??$?0AAV?$basic_string@DU?$char_traits@D@std@@V?$allocator@D@2@@std@@AAPAVPlugInFactory@@@?$_Pair_base@V?$basic_string@DU?$char_traits@D@std@@V?$allocator@D@2@@std@@PAVPlugInFactory@@@std@@QAE@AAV?$basic_string@DU?$char_traits@D@std@@V?$allocator@D@2@@1@AAPAVPlugInFactory@@@Z 10030800 f i ModuleManager.obj
 0001:0002f840       ??$?0V?$basic_string@DU?$char_traits@D@std@@V?$allocator@D@2@@std@@PAVPlugInFactory@@@?$pair@V?$basic_string@DU?$char_traits@D@std@@V?$allocator@D@2@@std@@PAVPlugInFactory@@@std@@QAE@AAU01@@Z 10030840 f i ModuleManager.obj
 0001:0002f870       ??$_Destroy@U?$pair@V?$basic_string@DU?$char_traits@D@std@@V?$allocator@D@2@@std@@PAVPlugInFactory@@@std@@@std@@YAXPAU?$pair@V?$basic_string@DU?$char_traits@D@std@@V?$allocator@D@2@@std@@PAVPlugInFactory@@@0@@Z 10030870 f i ModuleManager.obj
 0001:0002f8a0       ??$?0AAV?$basic_string@DU?$char_traits@D@std@@V?$allocator@D@2@@std@@AAPAVPlugInFactory@@@?$pair@V?$basic_string@DU?$char_traits@D@std@@V?$allocator@D@2@@std@@PAVPlugInFactory@@@std@@QAE@AAV?$basic_string@DU?$char_traits@D@std@@V?$allocator@D@2@@1@AAPAVPlugInFactory@@@Z 100308a0 f i ModuleManager.obj
 0001:0002f8e0       ??4?$basic_string@DU?$char_traits@D@std@@V?$allocator@D@2@@std@@QAEAAV01@$$QAV01@@Z 100308e0 f i ModuleManager.obj
 0001:0002f8f0       ?destroy@?$allocator@U?$pair@V?$basic_string@DU?$char_traits@D@std@@V?$allocator@D@2@@std@@PAVPlugInFactory@@@std@@@std@@QAEXPAU?$pair@V?$basic_string@DU?$char_traits@D@std@@V?$allocator@D@2@@std@@PAVPlugInFactory@@@2@@Z 100308f0 f i ModuleManager.obj
 0001:0002f920       ??4?$pair@V?$basic_string@DU?$char_traits@D@std@@V?$allocator@D@2@@std@@PAVPlugInFactory@@@std@@QAEAAU01@$$QAU01@@Z 10030920 f i ModuleManager.obj
 0001:0002f940       ??$_Push_heap@PAU?$pair@V?$basic_string@DU?$char_traits@D@std@@V?$allocator@D@2@@std@@PAVPlugInFactory@@@std@@HU12@UFactoryPtrComparator@@@std@@YAXPAU?$pair@V?$basic_string@DU?$char_traits@D@std@@V?$allocator@D@2@@std@@PAVPlugInFactory@@@0@HH$$QAU10@UFactoryPtrComparator@@@Z 10030940 f i ModuleManager.obj
 0001:0002fb10       ??$_Move_backward@PAU?$pair@V?$basic_string@DU?$char_traits@D@std@@V?$allocator@D@2@@std@@PAVPlugInFactory@@@std@@PAU12@@std@@YAPAU?$pair@V?$basic_string@DU?$char_traits@D@std@@V?$allocator@D@2@@std@@PAVPlugInFactory@@@0@PAU10@00U_Nonscalar_ptr_iterator_tag@0@@Z 10030b10 f i ModuleManager.obj
 0001:0002fbb0       ?swap@?$basic_string@DU?$char_traits@D@std@@V?$allocator@D@2@@std@@QAEXAAV12@@Z 10030bb0 f i ModuleManager.obj
 0001:0002fc30       ??$make_pair@AAV?$basic_string@DU?$char_traits@D@std@@V?$allocator@D@2@@std@@AAPAVPlugInFactory@@@std@@YA?AU?$pair@V?$basic_string@DU?$char_traits@D@std@@V?$allocator@D@2@@std@@PAVPlugInFactory@@@0@AAV?$basic_string@DU?$char_traits@D@std@@V?$allocator@D@2@@0@AAPAVPlugInFactory@@@Z 10030c30 f i ModuleManager.obj
 0001:0002fc70       ??0?$_Pair_base@V?$basic_string@DU?$char_traits@D@std@@V?$allocator@D@2@@std@@PAVPlugInFactory@@@std@@QAE@$$QAV?$basic_string@DU?$char_traits@D@std@@V?$allocator@D@2@@1@$$QAPAVPlugInFactory@@@Z 10030c70 f i ModuleManager.obj
 0001:0002fca0       ??$_Dest_val@V?$allocator@U?$pair@V?$basic_string@DU?$char_traits@D@std@@V?$allocator@D@2@@std@@PAVPlugInFactory@@@std@@@std@@U?$pair@V?$basic_string@DU?$char_traits@D@std@@V?$allocator@D@2@@std@@PAVPlugInFactory@@@2@@std@@YAXAAV?$allocator@U?$pair@V?$basic_string@DU?$char_traits@D@std@@V?$allocator@D@2@@std@@PAVPlugInFactory@@@std@@@0@PAU?$pair@V?$basic_string@DU?$char_traits@D@std@@V?$allocator@D@2@@std@@PAVPlugInFactory@@@0@@Z 10030ca0 f i ModuleManager.obj
 0001:0002fcd0       ??$_Adjust_heap@PAU?$pair@V?$basic_string@DU?$char_traits@D@std@@V?$allocator@D@2@@std@@PAVPlugInFactory@@@std@@HU12@UFactoryPtrComparator@@@std@@YAXPAU?$pair@V?$basic_string@DU?$char_traits@D@std@@V?$allocator@D@2@@std@@PAVPlugInFactory@@@0@HH$$QAU10@UFactoryPtrComparator@@@Z 10030cd0 f i ModuleManager.obj
 0001:0002fea0       ??$_Move_backward@PAU?$pair@V?$basic_string@DU?$char_traits@D@std@@V?$allocator@D@2@@std@@PAVPlugInFactory@@@std@@PAU12@@std@@YAPAU?$pair@V?$basic_string@DU?$char_traits@D@std@@V?$allocator@D@2@@std@@PAVPlugInFactory@@@0@PAU10@00@Z 10030ea0 f i ModuleManager.obj
 0001:0002fec0       ??$_Pop_heap@PAU?$pair@V?$basic_string@DU?$char_traits@D@std@@V?$allocator@D@2@@std@@PAVPlugInFactory@@@std@@HU12@UFactoryPtrComparator@@@std@@YAXPAU?$pair@V?$basic_string@DU?$char_traits@D@std@@V?$allocator@D@2@@std@@PAVPlugInFactory@@@0@00$$QAU10@UFactoryPtrComparator@@PAH@Z 10030ec0 f i ModuleManager.obj
 0001:0002ff00       ??$swap@DU?$char_traits@D@std@@V?$allocator@D@2@@std@@YAXAAV?$basic_string@DU?$char_traits@D@std@@V?$allocator@D@2@@0@0@Z 10030f00 f i ModuleManager.obj
 0001:0002ff80       ??$?0V?$basic_string@DU?$char_traits@D@std@@V?$allocator@D@2@@std@@PAVPlugInFactory@@@?$pair@V?$basic_string@DU?$char_traits@D@std@@V?$allocator@D@2@@std@@PAVPlugInFactory@@@std@@QAE@$$QAU01@@Z 10030f80 f i ModuleManager.obj
 0001:0002ffb0       ??$_Destroy_range@V?$allocator@U?$pair@V?$basic_string@DU?$char_traits@D@std@@V?$allocator@D@2@@std@@PAVPlugInFactory@@@std@@@std@@@std@@YAXPAU?$pair@V?$basic_string@DU?$char_traits@D@std@@V?$allocator@D@2@@std@@PAVPlugInFactory@@@0@0AAV?$allocator@U?$pair@V?$basic_string@DU?$char_traits@D@std@@V?$allocator@D@2@@std@@PAVPlugInFactory@@@std@@@0@U_Nonscalar_ptr_iterator_tag@0@@Z 10030fb0 f i ModuleManager.obj
 0001:00030000       ??$_Make_heap@PAU?$pair@V?$basic_string@DU?$char_traits@D@std@@V?$allocator@D@2@@std@@PAVPlugInFactory@@@std@@HU12@UFactoryPtrComparator@@@std@@YAXPAU?$pair@V?$basic_string@DU?$char_traits@D@std@@V?$allocator@D@2@@std@@PAVPlugInFactory@@@0@0UFactoryPtrComparator@@PAH0@Z 10031000 f i ModuleManager.obj
 0001:00030110       ??$_Insertion_sort1@PAU?$pair@V?$basic_string@DU?$char_traits@D@std@@V?$allocator@D@2@@std@@PAVPlugInFactory@@@std@@UFactoryPtrComparator@@U12@@std@@YAXPAU?$pair@V?$basic_string@DU?$char_traits@D@std@@V?$allocator@D@2@@std@@PAVPlugInFactory@@@0@0UFactoryPtrComparator@@0@Z 10031110 f i ModuleManager.obj
 0001:00030400       ??$_Pop_heap_0@PAU?$pair@V?$basic_string@DU?$char_traits@D@std@@V?$allocator@D@2@@std@@PAVPlugInFactory@@@std@@U12@UFactoryPtrComparator@@@std@@YAXPAU?$pair@V?$basic_string@DU?$char_traits@D@std@@V?$allocator@D@2@@std@@PAVPlugInFactory@@@0@0UFactoryPtrComparator@@0@Z 10031400 f i ModuleManager.obj
 0001:000304b0       ??$_Swap_adl@V?$basic_string@DU?$char_traits@D@std@@V?$allocator@D@2@@std@@@std@@YAXAAV?$basic_string@DU?$char_traits@D@std@@V?$allocator@D@2@@0@0@Z 100314b0 f i ModuleManager.obj
 0001:00030530       ??$_Destroy_range@V?$allocator@U?$pair@V?$basic_string@DU?$char_traits@D@std@@V?$allocator@D@2@@std@@PAVPlugInFactory@@@std@@@std@@@std@@YAXPAU?$pair@V?$basic_string@DU?$char_traits@D@std@@V?$allocator@D@2@@std@@PAVPlugInFactory@@@0@0AAV?$allocator@U?$pair@V?$basic_string@DU?$char_traits@D@std@@V?$allocator@D@2@@std@@PAVPlugInFactory@@@std@@@0@@Z 10031530 f i ModuleManager.obj
 0001:00030550       ?construct@?$allocator@U?$pair@V?$basic_string@DU?$char_traits@D@std@@V?$allocator@D@2@@std@@PAVPlugInFactory@@@std@@@std@@QAEXPAU?$pair@V?$basic_string@DU?$char_traits@D@std@@V?$allocator@D@2@@std@@PAVPlugInFactory@@@2@$$QAU32@@Z 10031550 f i ModuleManager.obj
 0001:000305b0       ??$make_heap@PAU?$pair@V?$basic_string@DU?$char_traits@D@std@@V?$allocator@D@2@@std@@PAVPlugInFactory@@@std@@UFactoryPtrComparator@@@std@@YAXPAU?$pair@V?$basic_string@DU?$char_traits@D@std@@V?$allocator@D@2@@std@@PAVPlugInFactory@@@0@0UFactoryPtrComparator@@@Z 100315b0 f i ModuleManager.obj
 0001:000305e0       ??$_Insertion_sort@PAU?$pair@V?$basic_string@DU?$char_traits@D@std@@V?$allocator@D@2@@std@@PAVPlugInFactory@@@std@@UFactoryPtrComparator@@@std@@YAXPAU?$pair@V?$basic_string@DU?$char_traits@D@std@@V?$allocator@D@2@@std@@PAVPlugInFactory@@@0@0UFactoryPtrComparator@@@Z 100315e0 f i ModuleManager.obj
 0001:00030600       ??$_Pop_heap@PAU?$pair@V?$basic_string@DU?$char_traits@D@std@@V?$allocator@D@2@@std@@PAVPlugInFactory@@@std@@UFactoryPtrComparator@@@std@@YAXPAU?$pair@V?$basic_string@DU?$char_traits@D@std@@V?$allocator@D@2@@std@@PAVPlugInFactory@@@0@0UFactoryPtrComparator@@@Z 10031600 f i ModuleManager.obj
 0001:00030620       ?swap@?$pair@V?$basic_string@DU?$char_traits@D@std@@V?$allocator@D@2@@std@@PAVPlugInFactory@@@std@@QAEXAAU12@@Z 10031620 f i ModuleManager.obj
 0001:000306b0       ?_Destroy@?$vector@U?$pair@V?$basic_string@DU?$char_traits@D@std@@V?$allocator@D@2@@std@@PAVPlugInFactory@@@std@@V?$allocator@U?$pair@V?$basic_string@DU?$char_traits@D@std@@V?$allocator@D@2@@std@@PAVPlugInFactory@@@std@@@2@@std@@IAEXPAU?$pair@V?$basic_string@DU?$char_traits@D@std@@V?$allocator@D@2@@std@@PAVPlugInFactory@@@2@0@Z 100316b0 f i ModuleManager.obj
 0001:000306d0       ??$_Cons_val@V?$allocator@U?$pair@V?$basic_string@DU?$char_traits@D@std@@V?$allocator@D@2@@std@@PAVPlugInFactory@@@std@@@std@@U?$pair@V?$basic_string@DU?$char_traits@D@std@@V?$allocator@D@2@@std@@PAVPlugInFactory@@@2@U32@@std@@YAXAAV?$allocator@U?$pair@V?$basic_string@DU?$char_traits@D@std@@V?$allocator@D@2@@std@@PAVPlugInFactory@@@std@@@0@PAU?$pair@V?$basic_string@DU?$char_traits@D@std@@V?$allocator@D@2@@std@@PAVPlugInFactory@@@0@$$QAU20@@Z 100316d0 f i ModuleManager.obj
 0001:00030730       ??$_Uninit_move@PAU?$pair@V?$basic_string@DU?$char_traits@D@std@@V?$allocator@D@2@@std@@PAVPlugInFactory@@@std@@PAU12@V?$allocator@U?$pair@V?$basic_string@DU?$char_traits@D@std@@V?$allocator@D@2@@std@@PAVPlugInFactory@@@std@@@2@U12@@std@@YAPAU?$pair@V?$basic_string@DU?$char_traits@D@std@@V?$allocator@D@2@@std@@PAVPlugInFactory@@@0@PAU10@00AAV?$allocator@U?$pair@V?$basic_string@DU?$char_traits@D@std@@V?$allocator@D@2@@std@@PAVPlugInFactory@@@std@@@0@0U_Nonscalar_ptr_iterator_tag@0@@Z 10031730 f i ModuleManager.obj
 0001:000307f0       ??$_Sort_heap@PAU?$pair@V?$basic_string@DU?$char_traits@D@std@@V?$allocator@D@2@@std@@PAVPlugInFactory@@@std@@UFactoryPtrComparator@@@std@@YAXPAU?$pair@V?$basic_string@DU?$char_traits@D@std@@V?$allocator@D@2@@std@@PAVPlugInFactory@@@0@0UFactoryPtrComparator@@@Z 100317f0 f i ModuleManager.obj
 0001:00030960       ??$swap@V?$basic_string@DU?$char_traits@D@std@@V?$allocator@D@2@@std@@PAVPlugInFactory@@@std@@YAXAAU?$pair@V?$basic_string@DU?$char_traits@D@std@@V?$allocator@D@2@@std@@PAVPlugInFactory@@@0@0@Z 10031960 f i ModuleManager.obj
 0001:000309f0       ?_Tidy@?$vector@U?$pair@V?$basic_string@DU?$char_traits@D@std@@V?$allocator@D@2@@std@@PAVPlugInFactory@@@std@@V?$allocator@U?$pair@V?$basic_string@DU?$char_traits@D@std@@V?$allocator@D@2@@std@@PAVPlugInFactory@@@std@@@2@@std@@IAEXXZ 100319f0 f i ModuleManager.obj
 0001:00030a30       ??$_Uninitialized_move@PAU?$pair@V?$basic_string@DU?$char_traits@D@std@@V?$allocator@D@2@@std@@PAVPlugInFactory@@@std@@PAU12@V?$allocator@U?$pair@V?$basic_string@DU?$char_traits@D@std@@V?$allocator@D@2@@std@@PAVPlugInFactory@@@std@@@2@@std@@YAPAU?$pair@V?$basic_string@DU?$char_traits@D@std@@V?$allocator@D@2@@std@@PAVPlugInFactory@@@0@PAU10@00AAV?$allocator@U?$pair@V?$basic_string@DU?$char_traits@D@std@@V?$allocator@D@2@@std@@PAVPlugInFactory@@@std@@@0@@Z 10031a30 f i ModuleManager.obj
 0001:00030a60       ??$sort_heap@PAU?$pair@V?$basic_string@DU?$char_traits@D@std@@V?$allocator@D@2@@std@@PAVPlugInFactory@@@std@@UFactoryPtrComparator@@@std@@YAXPAU?$pair@V?$basic_string@DU?$char_traits@D@std@@V?$allocator@D@2@@std@@PAVPlugInFactory@@@0@0UFactoryPtrComparator@@@Z 10031a60 f i ModuleManager.obj
 0001:00030a80       ??$iter_swap@PAU?$pair@V?$basic_string@DU?$char_traits@D@std@@V?$allocator@D@2@@std@@PAVPlugInFactory@@@std@@PAU12@@std@@YAXPAU?$pair@V?$basic_string@DU?$char_traits@D@std@@V?$allocator@D@2@@std@@PAVPlugInFactory@@@0@0@Z 10031a80 f i ModuleManager.obj
 0001:00030b10       ??$_Med3@PAU?$pair@V?$basic_string@DU?$char_traits@D@std@@V?$allocator@D@2@@std@@PAVPlugInFactory@@@std@@UFactoryPtrComparator@@@std@@YAXPAU?$pair@V?$basic_string@DU?$char_traits@D@std@@V?$allocator@D@2@@std@@PAVPlugInFactory@@@0@00UFactoryPtrComparator@@@Z 10031b10 f i ModuleManager.obj
 0001:00030cb0       ??1?$vector@U?$pair@V?$basic_string@DU?$char_traits@D@std@@V?$allocator@D@2@@std@@PAVPlugInFactory@@@std@@V?$allocator@U?$pair@V?$basic_string@DU?$char_traits@D@std@@V?$allocator@D@2@@std@@PAVPlugInFactory@@@std@@@2@@std@@QAE@XZ 10031cb0 f i ModuleManager.obj
 0001:00030cf0       ??$_Umove@PAU?$pair@V?$basic_string@DU?$char_traits@D@std@@V?$allocator@D@2@@std@@PAVPlugInFactory@@@std@@@?$vector@U?$pair@V?$basic_string@DU?$char_traits@D@std@@V?$allocator@D@2@@std@@PAVPlugInFactory@@@std@@V?$allocator@U?$pair@V?$basic_string@DU?$char_traits@D@std@@V?$allocator@D@2@@std@@PAVPlugInFactory@@@std@@@2@@std@@IAEPAU?$pair@V?$basic_string@DU?$char_traits@D@std@@V?$allocator@D@2@@std@@PAVPlugInFactory@@@1@PAU21@00@Z 10031cf0 f i ModuleManager.obj
 0001:00030d20       ??$_Median@PAU?$pair@V?$basic_string@DU?$char_traits@D@std@@V?$allocator@D@2@@std@@PAVPlugInFactory@@@std@@UFactoryPtrComparator@@@std@@YAXPAU?$pair@V?$basic_string@DU?$char_traits@D@std@@V?$allocator@D@2@@std@@PAVPlugInFactory@@@0@00UFactoryPtrComparator@@@Z 10031d20 f i ModuleManager.obj
 0001:00030dd0       ?reserve@?$vector@U?$pair@V?$basic_string@DU?$char_traits@D@std@@V?$allocator@D@2@@std@@PAVPlugInFactory@@@std@@V?$allocator@U?$pair@V?$basic_string@DU?$char_traits@D@std@@V?$allocator@D@2@@std@@PAVPlugInFactory@@@std@@@2@@std@@QAEXI@Z 10031dd0 f i ModuleManager.obj
 0001:00030eb0       ??$_Unguarded_partition@PAU?$pair@V?$basic_string@DU?$char_traits@D@std@@V?$allocator@D@2@@std@@PAVPlugInFactory@@@std@@UFactoryPtrComparator@@@std@@YA?AU?$pair@PAU?$pair@V?$basic_string@DU?$char_traits@D@std@@V?$allocator@D@2@@std@@PAVPlugInFactory@@@std@@PAU12@@0@PAU?$pair@V?$basic_string@DU?$char_traits@D@std@@V?$allocator@D@2@@std@@PAVPlugInFactory@@@0@0UFactoryPtrComparator@@@Z 10031eb0 f i ModuleManager.obj
 0001:000315e0       ?factories@OpticksCDFPlugin@@YAAAV?$vector@U?$pair@V?$basic_string@DU?$char_traits@D@std@@V?$allocator@D@2@@std@@PAVPlugInFactory@@@std@@V?$allocator@U?$pair@V?$basic_string@DU?$char_traits@D@std@@V?$allocator@D@2@@std@@PAVPlugInFactory@@@std@@@2@@std@@XZ 100325e0 f   ModuleManager.obj
 0001:00031620       ?_Reserve@?$vector@U?$pair@V?$basic_string@DU?$char_traits@D@std@@V?$allocator@D@2@@std@@PAVPlugInFactory@@@std@@V?$allocator@U?$pair@V?$basic_string@DU?$char_traits@D@std@@V?$allocator@D@2@@std@@PAVPlugInFactory@@@std@@@2@@std@@IAEXI@Z 10032620 f i ModuleManager.obj
 0001:00031690       ??$_Sort@PAU?$pair@V?$basic_string@DU?$char_traits@D@std@@V?$allocator@D@2@@std@@PAVPlugInFactory@@@std@@HUFactoryPtrComparator@@@std@@YAXPAU?$pair@V?$basic_string@DU?$char_traits@D@std@@V?$allocator@D@2@@std@@PAVPlugInFactory@@@0@0HUFactoryPtrComparator@@@Z 10032690 f i ModuleManager.obj
 0001:00031780       ?push_back@?$vector@U?$pair@V?$basic_string@DU?$char_traits@D@std@@V?$allocator@D@2@@std@@PAVPlugInFactory@@@std@@V?$allocator@U?$pair@V?$basic_string@DU?$char_traits@D@std@@V?$allocator@D@2@@std@@PAVPlugInFactory@@@std@@@2@@std@@QAEX$$QAU?$pair@V?$basic_string@DU?$char_traits@D@std@@V?$allocator@D@2@@std@@PAVPlugInFactory@@@2@@Z 10032780 f i ModuleManager.obj
 0001:00031850       ??$sort@V?$_Vector_iterator@V?$_Vector_val@U?$pair@V?$basic_string@DU?$char_traits@D@std@@V?$allocator@D@2@@std@@PAVPlugInFactory@@@std@@V?$allocator@U?$pair@V?$basic_string@DU?$char_traits@D@std@@V?$allocator@D@2@@std@@PAVPlugInFactory@@@std@@@2@@std@@@std@@UFactoryPtrComparator@@@std@@YAXV?$_Vector_iterator@V?$_Vector_val@U?$pair@V?$basic_string@DU?$char_traits@D@std@@V?$allocator@D@2@@std@@PAVPlugInFactory@@@std@@V?$allocator@U?$pair@V?$basic_string@DU?$char_traits@D@std@@V?$allocator@D@2@@std@@PAVPlugInFactory@@@std@@@2@@std@@@0@0UFactoryPtrComparator@@@Z 10032850 f i ModuleManager.obj
 0001:00031870       ?addFactory@OpticksCDFPlugin@@YAXPAVPlugInFactory@@@Z 10032870 f   ModuleManager.obj
 0001:00031970       ?getPlugIn@OpticksCDFPlugin@@YAPAVPlugIn@@I@Z 10032970 f   ModuleManager.obj
 0001:00031aa0       _OpticksCDFPluginInstantiatePlugIn 10032aa0 f   ModuleManager.obj
 0001:00031ad0       ?retranslateUi@Ui_ClassBased@@QAEXPAVQWidget@@@Z 10032ad0 f i classbased.obj
 0001:00031e90       ?isSelected@ClassBased@@AAE_NH@Z 10032e90 f   classbased.obj
 0001:00031fb0       ?on_checkBox_clicked@ClassBased@@AAEXXZ 10032fb0 f   classbased.obj
 0001:00031fc0       ?on_checkBox_2_clicked@ClassBased@@AAEXXZ 10032fc0 f   classbased.obj
 0001:00031fd0       ?on_checkBox_3_clicked@ClassBased@@AAEXXZ 10032fd0 f   classbased.obj
 0001:00031fe0       ?on_checkBox_4_clicked@ClassBased@@AAEXXZ 10032fe0 f   classbased.obj
 0001:00031ff0       ?on_checkBox_5_clicked@ClassBased@@AAEXXZ 10032ff0 f   classbased.obj
 0001:00032000       ?on_checkBox_6_clicked@ClassBased@@AAEXXZ 10033000 f   classbased.obj
 0001:00032010       ?on_checkBox_8_clicked@ClassBased@@AAEXXZ 10033010 f   classbased.obj
 0001:00032020       ?on_checkBox_7_clicked@ClassBased@@AAEXXZ 10033020 f   classbased.obj
 0001:00032030       ?on_checkBox_9_clicked@ClassBased@@AAEXXZ 10033030 f   classbased.obj
 0001:00032040       ?setupUi@Ui_ClassBased@@QAEXPAVQWidget@@@Z 10033040 f i classbased.obj
 0001:00033dd0       ??_GQTextEdit@@UAEPAXI@Z   10034dd0 f i classbased.obj
 0001:00033dd0       ??_EQTextEdit@@UAEPAXI@Z   10034dd0 f i classbased.obj
 0001:00033df0       ??_GQPlainTextEdit@@UAEPAXI@Z 10034df0 f i classbased.obj
 0001:00033df0       ??_EQPlainTextEdit@@UAEPAXI@Z 10034df0 f i classbased.obj
 0001:00033e10       ??_EQTextEdit@@W7AEPAXI@Z  10034e10 f i classbased.obj
 0001:00033e20       ??_EQPlainTextEdit@@W7AEPAXI@Z 10034e20 f i classbased.obj
 0001:00033e30       ?writePPMImage@ClassBased@@QAEXPAPAPAHQAHV?$basic_string@DU?$char_traits@D@std@@V?$allocator@D@2@@std@@@Z 10034e30 f   classbased.obj
 0001:00033f00       ??0ClassBased@@QAE@HHPAPAH00PAPAPAH1HPAVQWidget@@@Z 10034f00 f   classbased.obj
 0001:00034030       ??_EClassBased@@W7AEPAXI@Z 10035030 f i classbased.obj
 0001:00034040       ??1ClassBased@@UAE@XZ      10035040 f   classbased.obj
 0001:000340a0       ??_EClassBased@@UAEPAXI@Z  100350a0 f i classbased.obj
 0001:000340a0       ??_GClassBased@@UAEPAXI@Z  100350a0 f i classbased.obj
 0001:000340c0       ?createImage@ClassBased@@QAEXV?$basic_string@DU?$char_traits@D@std@@V?$allocator@D@2@@std@@@Z 100350c0 f   classbased.obj
 0001:00034450       ?on_pushButton_clicked@ClassBased@@AAEXXZ 10035450 f   classbased.obj
 0001:00034550       ?on_radioButton_2_clicked@ClassBased@@AAEXXZ 10035550 f   classbased.obj
 0001:00034750       ?on_radioButton_clicked@ClassBased@@AAEXXZ 10035750 f   classbased.obj
 0001:00034940       ?retranslateUi@Ui_selectCDType@@QAEXPAVQWidget@@@Z 10035940 f i selectcdtype.obj
 0001:00034a60       ??1selectCDType@@UAE@XZ    10035a60 f   selectcdtype.obj
 0001:00034a90       ?on_pushButton_clicked@selectCDType@@AAEXXZ 10035a90 f   selectcdtype.obj
 0001:00034b20       ?on_pushButton_2_clicked@selectCDType@@AAEXXZ 10035b20 f   selectcdtype.obj
 0001:00034b30       ??_EselectCDType@@W7AEPAXI@Z 10035b30 f i selectcdtype.obj
 0001:00034b40       ?setupUi@Ui_selectCDType@@QAEXPAVQWidget@@@Z 10035b40 f i selectcdtype.obj
 0001:00034ec0       ??0selectCDType@@QAE@HHPAPAH00PAPAPAH1VImage@@2HPAVQWidget@@@Z 10035ec0 f   selectcdtype.obj
 0001:00034fe0       ??_EselectCDType@@UAEPAXI@Z 10035fe0 f i selectcdtype.obj
 0001:00034fe0       ??_GselectCDType@@UAEPAXI@Z 10035fe0 f i selectcdtype.obj
 0001:00035020       ?paintEvent@paint_box@@MAEXPAVQPaintEvent@@@Z 10036020 f   paint_box.obj
 0001:00035030       ?mouseReleaseEvent@paint_box@@MAEXPAVQMouseEvent@@@Z 10036030 f   paint_box.obj
 0001:000350e0       ?fillsample@paint_box@@QAEXH@Z 100360e0 f   paint_box.obj
 0001:00035110       ??0paint_box@@QAE@V?$basic_string@DU?$char_traits@D@std@@V?$allocator@D@2@@std@@HHHPAPAHHPAVMainWindow_fusion@@PAVQWidget@@@Z 10036110 f   paint_box.obj
 0001:000353a0       ??_Epaint_box@@W7AEPAXI@Z  100363a0 f i paint_box.obj
 0001:000353b0       ??1paint_box@@UAE@XZ       100363b0 f i paint_box.obj
 0001:000353e0       ??_Gpaint_box@@UAEPAXI@Z   100363e0 f i paint_box.obj
 0001:000353e0       ??_Epaint_box@@UAEPAXI@Z   100363e0 f i paint_box.obj
 0001:00035430       ??0paint_box@@QAE@V?$basic_string@DU?$char_traits@D@std@@V?$allocator@D@2@@std@@0HHPAVQWidget@@@Z 10036430 f   paint_box.obj
 0001:000356a0       ??0?$QFlags@W4AlignmentFlag@Qt@@@@QAE@W4AlignmentFlag@Qt@@@Z 100366a0 f i scarea.obj
 0001:000356b0       ?node_destruct@?$QList@PAVQWidget@@@@AAEXPAUNode@1@0@Z 100366b0 f i scarea.obj
 0001:000356c0       ?free@?$QList@PAVQWidget@@@@AAEXPAUData@QListData@@@Z 100366c0 f i scarea.obj
 0001:000356e0       ??1?$QList@PAVQWidget@@@@QAE@XZ 100366e0 f i scarea.obj
 0001:00035700       ??0scarea@@QAE@PAVpaint_box@@PAVMainWindow_fusion@@PAVQWidget@@@Z 10036700 f   scarea.obj
 0001:000357d0       ??1scarea@@UAE@XZ          100367d0 f i scarea.obj
 0001:000357e0       ??_Escarea@@W7AEPAXI@Z     100367e0 f i scarea.obj
 0001:000357f0       ??_Gscarea@@UAEPAXI@Z      100367f0 f i scarea.obj
 0001:000357f0       ??_Escarea@@UAEPAXI@Z      100367f0 f i scarea.obj
 0001:00035810       ?retranslateUi@Ui_ClassifyAttributes@@QAEXPAVQWidget@@@Z 10036810 f i classifyattributes.obj
 0001:00035f40       ??1ClassifyAttributes@@UAE@XZ 10036f40 f   classifyattributes.obj
 0001:00035f70       ?on_checkBox_clicked@ClassifyAttributes@@AAEXXZ 10036f70 f   classifyattributes.obj
 0001:00036060       ?on_checkBox_6_clicked@ClassifyAttributes@@AAEXXZ 10037060 f   classifyattributes.obj
 0001:00036150       ?on_checkBox_area_clicked@ClassifyAttributes@@AAEXXZ 10037150 f   classifyattributes.obj
 0001:00036170       ?on_checkBox_round_clicked@ClassifyAttributes@@AAEXXZ 10037170 f   classifyattributes.obj
 0001:00036180       ?on_checkBox_round_clicked@ClassifyAttributes@@AAEX_N@Z 10037180 f   classifyattributes.obj
 0001:00036190       ?on_checkBox_peri_clicked@ClassifyAttributes@@AAEX_N@Z 10037190 f   classifyattributes.obj
 0001:000361a0       ?on_checkBox_compact_clicked@ClassifyAttributes@@AAEX_N@Z 100371a0 f   classifyattributes.obj
 0001:000361b0       ?on_checkBox_contrast_clicked@ClassifyAttributes@@AAEX_N@Z 100371b0 f   classifyattributes.obj
 0001:000361c0       ?on_checkBox_rough_clicked@ClassifyAttributes@@AAEX_N@Z 100371c0 f   classifyattributes.obj
 0001:000361d0       ?on_checkBox_coarse_clicked@ClassifyAttributes@@AAEX_N@Z 100371d0 f   classifyattributes.obj
 0001:000361e0       ?on_checkBox_dir_clicked@ClassifyAttributes@@AAEX_N@Z 100371e0 f   classifyattributes.obj
 0001:000361f0       ?on_checkBox_mr_clicked@ClassifyAttributes@@AAEX_N@Z 100371f0 f   classifyattributes.obj
 0001:00036200       ?on_checkBox_mg_clicked@ClassifyAttributes@@AAEX_N@Z 10037200 f   classifyattributes.obj
 0001:00036210       ?on_checkBox_mb_clicked@ClassifyAttributes@@AAEX_N@Z 10037210 f   classifyattributes.obj
 0001:00036220       ?on_checkBox_sr_clicked@ClassifyAttributes@@AAEX_N@Z 10037220 f   classifyattributes.obj
 0001:00036230       ?on_checkBox_sg_clicked@ClassifyAttributes@@AAEX_N@Z 10037230 f   classifyattributes.obj
 0001:00036240       ?on_checkBox_sb_clicked@ClassifyAttributes@@AAEX_N@Z 10037240 f   classifyattributes.obj
 0001:00036250       ?on_radioButton_mss_clicked@ClassifyAttributes@@AAEX_N@Z 10037250 f   classifyattributes.obj
 0001:00036370       ?on_radioButton_fused_clicked@ClassifyAttributes@@AAEXXZ 10037370 f   classifyattributes.obj
 0001:00036490       ?on_checkBox_mr_2_clicked@ClassifyAttributes@@AAEX_N@Z 10037490 f   classifyattributes.obj
 0001:000364a0       ?on_checkBox_mg_2_clicked@ClassifyAttributes@@AAEX_N@Z 100374a0 f   classifyattributes.obj
 0001:000364b0       ?on_checkBox_mb_2_clicked@ClassifyAttributes@@AAEX_N@Z 100374b0 f   classifyattributes.obj
 0001:000364c0       ?on_checkBox_sr_2_clicked@ClassifyAttributes@@AAEX_N@Z 100374c0 f   classifyattributes.obj
 0001:000364d0       ?on_checkBox_sg_2_clicked@ClassifyAttributes@@AAEX_N@Z 100374d0 f   classifyattributes.obj
 0001:000364e0       ?on_checkBox_sb_2_clicked@ClassifyAttributes@@AAEX_N@Z 100374e0 f   classifyattributes.obj
 0001:000364f0       ??_EClassifyAttributes@@W7AEPAXI@Z 100374f0 f i classifyattributes.obj
 0001:00036510       ?setupUi@Ui_ClassifyAttributes@@QAEXPAVQWidget@@@Z 10037510 f i classifyattributes.obj
 0001:00037dc0       ??_GQGridLayout@@UAEPAXI@Z 10038dc0 f i classifyattributes.obj
 0001:00037dc0       ??_EQGridLayout@@UAEPAXI@Z 10038dc0 f i classifyattributes.obj
 0001:00037de0       ??_EQGridLayout@@W7AEPAXI@Z 10038de0 f i classifyattributes.obj
 0001:00037df0       ??0ClassifyAttributes@@QAE@HHPAPAHPAVMainWindow_fusion@@PAVQWidget@@@Z 10038df0 f   classifyattributes.obj
 0001:00037f10       ??_EClassifyAttributes@@UAEPAXI@Z 10038f10 f i classifyattributes.obj
 0001:00037f10       ??_GClassifyAttributes@@UAEPAXI@Z 10038f10 f i classifyattributes.obj
 0001:00037f60       ?on_pushButton_clicked@ClassifyAttributes@@AAEXXZ 10038f60 f   classifyattributes.obj
 0001:00038040       ??0QLatin1Char@@QAE@D@Z    10039040 f i choosesample.obj
 0001:00038050       ?retranslateUi@Ui_chooseSample@@QAEXPAVQWidget@@@Z 10039050 f i choosesample.obj
 0001:00038160       ?on_comboBox_currentIndexChanged@chooseSample@@AAEXH@Z 10039160 f   choosesample.obj
 0001:00038170       ??0?$QList@VQString@@@@QAE@XZ 10039170 f i choosesample.obj
 0001:00038190       ?node_construct@?$QList@VQString@@@@AAEXPAUNode@1@ABVQString@@@Z 10039190 f i choosesample.obj
 0001:000381e0       ?setupUi@Ui_chooseSample@@QAEXPAVQWidget@@@Z 100391e0 f i choosesample.obj
 0001:00038610       ??_EQComboBox@@UAEPAXI@Z   10039610 f i choosesample.obj
 0001:00038610       ??_GQComboBox@@UAEPAXI@Z   10039610 f i choosesample.obj
 0001:00038630       ??_EQComboBox@@W7AEPAXI@Z  10039630 f i choosesample.obj
 0001:00038640       ?node_destruct@?$QList@VQString@@@@AAEXPAUNode@1@@Z 10039640 f i choosesample.obj
 0001:00038660       ?on_pushButton_clicked@chooseSample@@AAEXXZ 10039660 f   choosesample.obj
 0001:000386c0       ?detach_helper_grow@?$QList@VQString@@@@AAEPAUNode@1@HH@Z 100396c0 f i choosesample.obj
 0001:000387e0       ??0QStringList@@QAE@XZ     100397e0 f i choosesample.obj
 0001:00038800       ??1chooseSample@@UAE@XZ    10039800 f   choosesample.obj
 0001:00038890       ??_EchooseSample@@W7AEPAXI@Z 10039890 f i choosesample.obj
 0001:000388a0       ?append@?$QList@VQString@@@@QAEXABVQString@@@Z 100398a0 f i choosesample.obj
 0001:00038980       ??6QStringList@@QAEAAV0@ABVQString@@@Z 10039980 f i choosesample.obj
 0001:000389a0       ??0chooseSample@@QAE@HHHPAPAHHPAVQWidget@@1@Z 100399a0 f   choosesample.obj
 0001:00038bd0       ??_EchooseSample@@UAEPAXI@Z 10039bd0 f i choosesample.obj
 0001:00038bd0       ??_GchooseSample@@UAEPAXI@Z 10039bd0 f i choosesample.obj
 0001:00038bf0       ?retranslateUi@Ui_nclasses@@QAEXPAVQWidget@@@Z 10039bf0 f i nclasses.obj
 0001:00038d90       ?on_pushButton_3_clicked@nclasses@@AAEXXZ 10039d90 f   nclasses.obj
 0001:00038db0       ?on_pushButton_2_clicked@nclasses@@AAEXXZ 10039db0 f   nclasses.obj
 0001:00038dc0       ?setupUi@Ui_nclasses@@QAEXPAVQWidget@@@Z 10039dc0 f i nclasses.obj
 0001:00039460       ??1nclasses@@UAE@XZ        1003a460 f   nclasses.obj
 0001:000394b0       ??_Enclasses@@W7AEPAXI@Z   1003a4b0 f i nclasses.obj
 0001:000394c0       ??_Enclasses@@UAEPAXI@Z    1003a4c0 f i nclasses.obj
 0001:000394c0       ??_Gnclasses@@UAEPAXI@Z    1003a4c0 f i nclasses.obj
 0001:00039520       ??0nclasses@@QAE@V?$basic_string@DU?$char_traits@D@std@@V?$allocator@D@2@@std@@HHPAPAHPAVMainWindow_fusion@@PAVQWidget@@@Z 1003a520 f   nclasses.obj
 0001:00039640       ?on_pushButton_clicked@nclasses@@AAEXXZ 1003a640 f   nclasses.obj
 0001:000397c0       ?qt_metacast@selectCDType@@UAEPAXPBD@Z 1003a7c0 f   moc_selectcdtype.obj
 0001:00039820       ?qt_metacall@selectCDType@@UAEHW4Call@QMetaObject@@HPAPAX@Z 1003a820 f   moc_selectcdtype.obj
 0001:00039880       ??C?$QScopedPointer@VQObjectData@@U?$QScopedPointerDeleter@VQObjectData@@@@@@QBEPAVQObjectData@@XZ 1003a880 f i moc_selectcdtype.obj
 0001:000398b0       ?metaObject@selectCDType@@UBEPBUQMetaObject@@XZ 1003a8b0 f   moc_selectcdtype.obj
 0001:00039900       ?qt_metacast@MainWindow_cd@@UAEPAXPBD@Z 1003a900 f   moc_mainwindow_cd.obj
 0001:00039960       ?qt_metacall@MainWindow_cd@@UAEHW4Call@QMetaObject@@HPAPAX@Z 1003a960 f   moc_mainwindow_cd.obj
 0001:00039a40       ?metaObject@MainWindow_cd@@UBEPBUQMetaObject@@XZ 1003aa40 f   moc_mainwindow_cd.obj
 0001:00039a90       ?qt_metacast@MainWindow_cr@@UAEPAXPBD@Z 1003aa90 f   moc_mainwindow_cr.obj
 0001:00039af0       ?qt_metacall@MainWindow_cr@@UAEHW4Call@QMetaObject@@HPAPAX@Z 1003aaf0 f   moc_mainwindow_cr.obj
 0001:00039bb0       ?metaObject@MainWindow_cr@@UBEPBUQMetaObject@@XZ 1003abb0 f   moc_mainwindow_cr.obj
 0001:00039c00       ?qt_metacast@MainWindow_fusion@@UAEPAXPBD@Z 1003ac00 f   moc_mainwindow_fusion.obj
 0001:00039c60       ?qt_metacall@MainWindow_fusion@@UAEHW4Call@QMetaObject@@HPAPAX@Z 1003ac60 f   moc_mainwindow_fusion.obj
 0001:00039db0       ?metaObject@MainWindow_fusion@@UBEPBUQMetaObject@@XZ 1003adb0 f   moc_mainwindow_fusion.obj
 0001:00039e00       ?qt_metacast@ClassBased@@UAEPAXPBD@Z 1003ae00 f   moc_classbased.obj
 0001:00039e60       ?qt_metacall@ClassBased@@UAEHW4Call@QMetaObject@@HPAPAX@Z 1003ae60 f   moc_classbased.obj
 0001:00039fe0       ?metaObject@ClassBased@@UBEPBUQMetaObject@@XZ 1003afe0 f   moc_classbased.obj
 0001:0003a030       ?qt_metacast@paintbox@@UAEPAXPBD@Z 1003b030 f   moc_paintbox.obj
 0001:0003a090       ?qt_metacall@paintbox@@UAEHW4Call@QMetaObject@@HPAPAX@Z 1003b090 f   moc_paintbox.obj
 0001:0003a0a0       ?metaObject@paintbox@@UBEPBUQMetaObject@@XZ 1003b0a0 f   moc_paintbox.obj
 0001:0003a0f0       ?qt_metacast@paintwindow@@UAEPAXPBD@Z 1003b0f0 f   moc_paintwindow.obj
 0001:0003a150       ?qt_metacall@paintwindow@@UAEHW4Call@QMetaObject@@HPAPAX@Z 1003b150 f   moc_paintwindow.obj
 0001:0003a160       ?metaObject@paintwindow@@UBEPBUQMetaObject@@XZ 1003b160 f   moc_paintwindow.obj
 0001:0003a1b0       ?qt_metacast@Paintbox2@@UAEPAXPBD@Z 1003b1b0 f   moc_paintbox2.obj
 0001:0003a210       ?qt_metacall@Paintbox2@@UAEHW4Call@QMetaObject@@HPAPAX@Z 1003b210 f   moc_paintbox2.obj
 0001:0003a220       ?metaObject@Paintbox2@@UBEPBUQMetaObject@@XZ 1003b220 f   moc_paintbox2.obj
 0001:0003a270       ?qt_metacast@AttributeBased_cd@@UAEPAXPBD@Z 1003b270 f   moc_attributebased_cd.obj
 0001:0003a2d0       ?qt_metacall@AttributeBased_cd@@UAEHW4Call@QMetaObject@@HPAPAX@Z 1003b2d0 f   moc_attributebased_cd.obj
 0001:0003a840       ?metaObject@AttributeBased_cd@@UBEPBUQMetaObject@@XZ 1003b840 f   moc_attributebased_cd.obj
 0001:0003a890       ?qt_metacast@pain2img@@UAEPAXPBD@Z 1003b890 f   moc_pain2img.obj
 0001:0003a8f0       ?qt_metacall@pain2img@@UAEHW4Call@QMetaObject@@HPAPAX@Z 1003b8f0 f   moc_pain2img.obj
 0001:0003a900       ?metaObject@pain2img@@UBEPBUQMetaObject@@XZ 1003b900 f   moc_pain2img.obj
 0001:0003a950       ?qt_metacast@changeDetection@@UAEPAXPBD@Z 1003b950 f   moc_changeDetection.obj
 0001:0003a9f0       ?qt_metacall@changeDetection@@UAEHW4Call@QMetaObject@@HPAPAX@Z 1003b9f0 f   moc_changeDetection.obj
 0001:0003aa30       ?metaObject@changeDetection@@UBEPBUQMetaObject@@XZ 1003ba30 f   moc_changeDetection.obj
 0001:0003aa80       ?qt_metacast@Fusion@@UAEPAXPBD@Z 1003ba80 f   moc_Fusion.obj
 0001:0003ab20       ?qt_metacall@Fusion@@UAEHW4Call@QMetaObject@@HPAPAX@Z 1003bb20 f   moc_Fusion.obj
 0001:0003ab60       ?metaObject@Fusion@@UBEPBUQMetaObject@@XZ 1003bb60 f   moc_Fusion.obj
 0001:0003abb0       ?qt_metacast@missing_data@@UAEPAXPBD@Z 1003bbb0 f   moc_missing_data.obj
 0001:0003ac50       ?qt_metacall@missing_data@@UAEHW4Call@QMetaObject@@HPAPAX@Z 1003bc50 f   moc_missing_data.obj
 0001:0003ac90       ?metaObject@missing_data@@UBEPBUQMetaObject@@XZ 1003bc90 f   moc_missing_data.obj
 0001:0003ace0       ?qt_metacast@paint_box@@UAEPAXPBD@Z 1003bce0 f   moc_paint_box.obj
 0001:0003ad40       ?qt_metacall@paint_box@@UAEHW4Call@QMetaObject@@HPAPAX@Z 1003bd40 f   moc_paint_box.obj
 0001:0003ad50       ?metaObject@paint_box@@UBEPBUQMetaObject@@XZ 1003bd50 f   moc_paint_box.obj
 0001:0003ada0       ?qt_metacast@scarea@@UAEPAXPBD@Z 1003bda0 f   moc_scarea.obj
 0001:0003ae00       ?qt_metacall@scarea@@UAEHW4Call@QMetaObject@@HPAPAX@Z 1003be00 f   moc_scarea.obj
 0001:0003ae10       ?metaObject@scarea@@UBEPBUQMetaObject@@XZ 1003be10 f   moc_scarea.obj
 0001:0003ae60       ?qt_metacast@ClassifyAttributes@@UAEPAXPBD@Z 1003be60 f   moc_classifyattributes.obj
 0001:0003aec0       ?qt_metacall@ClassifyAttributes@@UAEHW4Call@QMetaObject@@HPAPAX@Z 1003bec0 f   moc_classifyattributes.obj
 0001:0003b1e0       ?metaObject@ClassifyAttributes@@UBEPBUQMetaObject@@XZ 1003c1e0 f   moc_classifyattributes.obj
 0001:0003b230       ?qt_metacast@chooseSample@@UAEPAXPBD@Z 1003c230 f   moc_choosesample.obj
 0001:0003b290       ?qt_metacall@chooseSample@@UAEHW4Call@QMetaObject@@HPAPAX@Z 1003c290 f   moc_choosesample.obj
 0001:0003b2f0       ?metaObject@chooseSample@@UBEPBUQMetaObject@@XZ 1003c2f0 f   moc_choosesample.obj
 0001:0003b340       ?qt_metacast@nclasses@@UAEPAXPBD@Z 1003c340 f   moc_nclasses.obj
 0001:0003b3a0       ?qt_metacall@nclasses@@UAEHW4Call@QMetaObject@@HPAPAX@Z 1003c3a0 f   moc_nclasses.obj
 0001:0003b410       ?metaObject@nclasses@@UBEPBUQMetaObject@@XZ 1003c410 f   moc_nclasses.obj
 0001:0003b460       ??1QString@@QAE@XZ         1003c460 f   QtCore4:QtCore4.dll
 0001:0003b466       ?free@QString@@CAXPAUData@1@@Z 1003c466 f   QtCore4:QtCore4.dll
 0001:0003b46c       ?translate@QCoreApplication@@SA?AVQString@@PBD00W4Encoding@1@@Z 1003c46c f   QtCore4:QtCore4.dll
 0001:0003b472       ?toInt@QString@@QBEHPA_NH@Z 1003c472 f   QtCore4:QtCore4.dll
 0001:0003b478       ?toFloat@QString@@QBEMPA_N@Z 1003c478 f   QtCore4:QtCore4.dll
 0001:0003b47e       ??4QString@@QAEAAV0@ABV0@@Z 1003c47e f   QtCore4:QtCore4.dll
 0001:0003b484       ?setNum@QString@@QAEAAV1@NDH@Z 1003c484 f   QtCore4:QtCore4.dll
 0001:0003b48a       ?setNum@QString@@QAEAAV1@_JH@Z 1003c48a f   QtCore4:QtCore4.dll
 0001:0003b490       ?connectSlotsByName@QMetaObject@@SAXPAVQObject@@@Z 1003c490 f   QtCore4:QtCore4.dll
 0001:0003b496       ?setObjectName@QObject@@QAEXABVQString@@@Z 1003c496 f   QtCore4:QtCore4.dll
 0001:0003b49c       ?fromUtf8@QString@@SA?AV1@PBDH@Z 1003c49c f   QtCore4:QtCore4.dll
 0001:0003b4a2       ?objectName@QObject@@QBE?AVQString@@XZ 1003c4a2 f   QtCore4:QtCore4.dll
 0001:0003b4a8       ?eventFilter@QObject@@UAE_NPAV1@PAVQEvent@@@Z 1003c4a8 f   QtCore4:QtCore4.dll
 0001:0003b4ae       ?timerEvent@QObject@@MAEXPAVQTimerEvent@@@Z 1003c4ae f   QtCore4:QtCore4.dll
 0001:0003b4b4       ?childEvent@QObject@@MAEXPAVQChildEvent@@@Z 1003c4b4 f   QtCore4:QtCore4.dll
 0001:0003b4ba       ?customEvent@QObject@@MAEXPAVQEvent@@@Z 1003c4ba f   QtCore4:QtCore4.dll
 0001:0003b4c0       ?connectNotify@QObject@@MAEXPBD@Z 1003c4c0 f   QtCore4:QtCore4.dll
 0001:0003b4c6       ?disconnectNotify@QObject@@MAEXPBD@Z 1003c4c6 f   QtCore4:QtCore4.dll
 0001:0003b4cc       ?event@QObject@@UAE_NPAVQEvent@@@Z 1003c4cc f   QtCore4:QtCore4.dll
 0001:0003b4d2       ?fromAscii_helper@QString@@CAPAUData@1@PBDH@Z 1003c4d2 f   QtCore4:QtCore4.dll
 0001:0003b4d8       ??1QByteArray@@QAE@XZ      1003c4d8 f   QtCore4:QtCore4.dll
 0001:0003b4de       ?qFree@@YAXPAX@Z           1003c4de f   QtCore4:QtCore4.dll
 0001:0003b4e4       ?detach@QByteArray@@QAEXXZ 1003c4e4 f   QtCore4:QtCore4.dll
 0001:0003b4ea       ?toUtf8@QString@@QBE?AVQByteArray@@XZ 1003c4ea f   QtCore4:QtCore4.dll
 0001:0003b4f0       ?number@QString@@SA?AV1@HH@Z 1003c4f0 f   QtCore4:QtCore4.dll
 0001:0003b4f6       ?number@QString@@SA?AV1@NDH@Z 1003c4f6 f   QtCore4:QtCore4.dll
 0001:0003b4fc       ??1QObject@@UAE@XZ         1003c4fc f   QtCore4:QtCore4.dll
 0001:0003b502       ?connect@QObject@@SA_NPBV1@PBD01W4ConnectionType@Qt@@@Z 1003c502 f   QtCore4:QtCore4.dll
 0001:0003b508       ?qFlagLocation@@YAPBDPBD@Z 1003c508 f   QtCore4:QtCore4.dll
 0001:0003b50e       ??0QObject@@QAE@PAV0@@Z    1003c50e f   QtCore4:QtCore4.dll
 0001:0003b514       ??0QFutureInterfaceBase@@QAE@W4State@0@@Z 1003c514 f   QtCore4:QtCore4.dll
 0001:0003b51a       ??1QFutureInterfaceBase@@UAE@XZ 1003c51a f   QtCore4:QtCore4.dll
 0001:0003b520       ??0QFutureInterfaceBase@@QAE@ABV0@@Z 1003c520 f   QtCore4:QtCore4.dll
 0001:0003b526       ?waitForFinished@QFutureInterfaceBase@@QAEXXZ 1003c526 f   QtCore4:QtCore4.dll
 0001:0003b52c       ??4QFutureInterfaceBase@@QAEAAV0@ABV0@@Z 1003c52c f   QtCore4:QtCore4.dll
 0001:0003b532       ?start@QThreadPool@@QAEXPAVQRunnable@@H@Z 1003c532 f   QtCore4:QtCore4.dll
 0001:0003b538       ?globalInstance@QThreadPool@@SAPAV1@XZ 1003c538 f   QtCore4:QtCore4.dll
 0001:0003b53e       ?reportStarted@QFutureInterfaceBase@@QAEXXZ 1003c53e f   QtCore4:QtCore4.dll
 0001:0003b544       ?setRunnable@QFutureInterfaceBase@@QAEXPAVQRunnable@@@Z 1003c544 f   QtCore4:QtCore4.dll
 0001:0003b54a       ?reportFinished@QFutureInterfaceBase@@QAEXXZ 1003c54a f   QtCore4:QtCore4.dll
 0001:0003b550       ?isCanceled@QFutureInterfaceBase@@QBE_NXZ 1003c550 f   QtCore4:QtCore4.dll
 0001:0003b556       ?tr@QMetaObject@@QBE?AVQString@@PBD0@Z 1003c556 f   QtCore4:QtCore4.dll
 0001:0003b55c       ?append@QString@@QAEAAV1@PBD@Z 1003c55c f   QtCore4:QtCore4.dll
 0001:0003b562       ??0QString@@QAE@ABV0@@Z    1003c562 f   QtCore4:QtCore4.dll
 0001:0003b568       ?detach@QListData@@QAEPAUData@1@H@Z 1003c568 f   QtCore4:QtCore4.dll
 0001:0003b56e       ?qt_assert@@YAXPBD0H@Z     1003c56e f   QtCore4:QtCore4.dll
 0001:0003b574       ??1QFile@@UAE@XZ           1003c574 f   QtCore4:QtCore4.dll
 0001:0003b57a       ??1QTextStream@@UAE@XZ     1003c57a f   QtCore4:QtCore4.dll
 0001:0003b580       ?append@QString@@QAEAAV1@ABV1@@Z 1003c580 f   QtCore4:QtCore4.dll
 0001:0003b586       ?close@QFile@@UAEXXZ       1003c586 f   QtCore4:QtCore4.dll
 0001:0003b58c       ??6QTextStream@@QAEAAV0@ABVQString@@@Z 1003c58c f   QtCore4:QtCore4.dll
 0001:0003b592       ??6QTextStream@@QAEAAV0@PBD@Z 1003c592 f   QtCore4:QtCore4.dll
 0001:0003b598       ?atEnd@QTextStream@@QBE_NXZ 1003c598 f   QtCore4:QtCore4.dll
 0001:0003b59e       ?readLine@QTextStream@@QAE?AVQString@@_J@Z 1003c59e f   QtCore4:QtCore4.dll
 0001:0003b5a4       ??0QTextStream@@QAE@PAVQIODevice@@@Z 1003c5a4 f   QtCore4:QtCore4.dll
 0001:0003b5aa       ?open@QFile@@UAE_NV?$QFlags@W4OpenModeFlag@QIODevice@@@@@Z 1003c5aa f   QtCore4:QtCore4.dll
 0001:0003b5b0       ??0QFile@@QAE@ABVQString@@@Z 1003c5b0 f   QtCore4:QtCore4.dll
 0001:0003b5b6       ??1QRegExp@@QAE@XZ         1003c5b6 f   QtCore4:QtCore4.dll
 0001:0003b5bc       ?split@QString@@QBE?AVQStringList@@ABVQRegExp@@W4SplitBehavior@1@@Z 1003c5bc f   QtCore4:QtCore4.dll
 0001:0003b5c2       ??0QRegExp@@QAE@ABVQString@@W4CaseSensitivity@Qt@@W4PatternSyntax@0@@Z 1003c5c2 f   QtCore4:QtCore4.dll
 0001:0003b5c8       ??0QString@@QAE@PBD@Z      1003c5c8 f   QtCore4:QtCore4.dll
 0001:0003b5ce       ?toStdString@QString@@QBE?AV?$basic_string@DU?$char_traits@D@std@@V?$allocator@D@2@@std@@XZ 1003c5ce f   QtCore4:QtCore4.dll
 0001:0003b5d4       ?deref@QBasicAtomicInt@@QAE_NXZ 1003c5d4 f   QtCore4:QtCore4.dll
 0001:0003b5da       ?detach_grow@QListData@@QAEPAUData@1@PAHH@Z 1003c5da f   QtCore4:QtCore4.dll
 0001:0003b5e0       ?append@QListData@@QAEPAPAXXZ 1003c5e0 f   QtCore4:QtCore4.dll
 0001:0003b5e6       ?arg@QString@@QBE?AV1@HHHABVQChar@@@Z 1003c5e6 f   QtCore4:QtCore4.dll
 0001:0003b5ec       ??0QChar@@QAE@UQLatin1Char@@@Z 1003c5ec f   QtCore4:QtCore4.dll
 0001:0003b5f2       ??4QString@@QAEAAV0@PBD@Z  1003c5f2 f   QtCore4:QtCore4.dll
 0001:0003b5f8       ?qt_metacast@QObject@@UAEPAXPBD@Z 1003c5f8 f   QtCore4:QtCore4.dll
 0001:0003b5fe       ?qt_metacall@QObject@@UAEHW4Call@QMetaObject@@HPAPAX@Z 1003c5fe f   QtCore4:QtCore4.dll
 0001:0003b604       ?setText@QAbstractButton@@QAEXABVQString@@@Z 1003c604 f   QtGui4:QtGui4.dll
 0001:0003b60a       ?setText@QLabel@@QAEXABVQString@@@Z 1003c60a f   QtGui4:QtGui4.dll
 0001:0003b610       ?setWindowTitle@QWidget@@QAEXABVQString@@@Z 1003c610 f   QtGui4:QtGui4.dll
 0001:0003b616       ?text@QLineEdit@@QBE?AVQString@@XZ 1003c616 f   QtGui4:QtGui4.dll
 0001:0003b61c       ?setText@QLineEdit@@QAEXABVQString@@@Z 1003c61c f   QtGui4:QtGui4.dll
 0001:0003b622       ?raise@QWidget@@QAEXXZ     1003c622 f   QtGui4:QtGui4.dll
 0001:0003b628       ??0QTextBrowser@@QAE@PAVQWidget@@@Z 1003c628 f   QtGui4:QtGui4.dll
 0001:0003b62e       ??0QHBoxLayout@@QAE@PAVQWidget@@@Z 1003c62e f   QtGui4:QtGui4.dll
 0001:0003b634       ?addWidget@QSplitter@@QAEXPAVQWidget@@@Z 1003c634 f   QtGui4:QtGui4.dll
 0001:0003b63a       ?setOrientation@QSplitter@@QAEXW4Orientation@Qt@@@Z 1003c63a f   QtGui4:QtGui4.dll
 0001:0003b640       ??0QSplitter@@QAE@PAVQWidget@@@Z 1003c640 f   QtGui4:QtGui4.dll
 0001:0003b646       ?addLayout@QBoxLayout@@QAEXPAVQLayout@@H@Z 1003c646 f   QtGui4:QtGui4.dll
 0001:0003b64c       ??0QPushButton@@QAE@PAVQWidget@@@Z 1003c64c f   QtGui4:QtGui4.dll
 0001:0003b652       ??0QLineEdit@@QAE@PAVQWidget@@@Z 1003c652 f   QtGui4:QtGui4.dll
 0001:0003b658       ?addWidget@QBoxLayout@@QAEXPAVQWidget@@HV?$QFlags@W4AlignmentFlag@Qt@@@@@Z 1003c658 f   QtGui4:QtGui4.dll
 0001:0003b65e       ??0QRadioButton@@QAE@PAVQWidget@@@Z 1003c65e f   QtGui4:QtGui4.dll
 0001:0003b664       ??0QHBoxLayout@@QAE@XZ     1003c664 f   QtGui4:QtGui4.dll
 0001:0003b66a       ??0QVBoxLayout@@QAE@XZ     1003c66a f   QtGui4:QtGui4.dll
 0001:0003b670       ?setContentsMargins@QLayout@@QAEXHHHH@Z 1003c670 f   QtGui4:QtGui4.dll
 0001:0003b676       ??0QVBoxLayout@@QAE@PAVQWidget@@@Z 1003c676 f   QtGui4:QtGui4.dll
 0001:0003b67c       ??0QWidget@@QAE@PAV0@V?$QFlags@W4WindowType@Qt@@@@@Z 1003c67c f   QtGui4:QtGui4.dll
 0001:0003b682       ?setGeometry@QWidget@@QAEXABVQRect@@@Z 1003c682 f   QtGui4:QtGui4.dll
 0001:0003b688       ??0QLabel@@QAE@PAVQWidget@@V?$QFlags@W4WindowType@Qt@@@@@Z 1003c688 f   QtGui4:QtGui4.dll
 0001:0003b68e       ?resize@QWidget@@QAEXABVQSize@@@Z 1003c68e f   QtGui4:QtGui4.dll
 0001:0003b694       ?metaObject@QLabel@@UBEPBUQMetaObject@@XZ 1003c694 f   QtGui4:QtGui4.dll
 0001:0003b69a       ?qt_metacast@QLabel@@UAEPAXPBD@Z 1003c69a f   QtGui4:QtGui4.dll
 0001:0003b6a0       ?qt_metacall@QLabel@@UAEHW4Call@QMetaObject@@HPAPAX@Z 1003c6a0 f   QtGui4:QtGui4.dll
 0001:0003b6a6       ?event@QLabel@@MAE_NPAVQEvent@@@Z 1003c6a6 f   QtGui4:QtGui4.dll
 0001:0003b6ac       ?setVisible@QWidget@@UAEX_N@Z 1003c6ac f   QtGui4:QtGui4.dll
 0001:0003b6b2       ?sizeHint@QLabel@@UBE?AVQSize@@XZ 1003c6b2 f   QtGui4:QtGui4.dll
 0001:0003b6b8       ?minimumSizeHint@QLabel@@UBE?AVQSize@@XZ 1003c6b8 f   QtGui4:QtGui4.dll
 0001:0003b6be       ?heightForWidth@QLabel@@UBEHH@Z 1003c6be f   QtGui4:QtGui4.dll
 0001:0003b6c4       ?mousePressEvent@QLabel@@MAEXPAVQMouseEvent@@@Z 1003c6c4 f   QtGui4:QtGui4.dll
 0001:0003b6ca       ?mouseReleaseEvent@QLabel@@MAEXPAVQMouseEvent@@@Z 1003c6ca f   QtGui4:QtGui4.dll
 0001:0003b6d0       ?mouseDoubleClickEvent@QWidget@@MAEXPAVQMouseEvent@@@Z 1003c6d0 f   QtGui4:QtGui4.dll
 0001:0003b6d6       ?mouseMoveEvent@QLabel@@MAEXPAVQMouseEvent@@@Z 1003c6d6 f   QtGui4:QtGui4.dll
 0001:0003b6dc       ?wheelEvent@QWidget@@MAEXPAVQWheelEvent@@@Z 1003c6dc f   QtGui4:QtGui4.dll
 0001:0003b6e2       ?keyPressEvent@QLabel@@MAEXPAVQKeyEvent@@@Z 1003c6e2 f   QtGui4:QtGui4.dll
 0001:0003b6e8       ?keyReleaseEvent@QWidget@@MAEXPAVQKeyEvent@@@Z 1003c6e8 f   QtGui4:QtGui4.dll
 0001:0003b6ee       ?focusInEvent@QLabel@@MAEXPAVQFocusEvent@@@Z 1003c6ee f   QtGui4:QtGui4.dll
 0001:0003b6f4       ?focusOutEvent@QLabel@@MAEXPAVQFocusEvent@@@Z 1003c6f4 f   QtGui4:QtGui4.dll
 0001:0003b6fa       ?enterEvent@QWidget@@MAEXPAVQEvent@@@Z 1003c6fa f   QtGui4:QtGui4.dll
 0001:0003b700       ?leaveEvent@QWidget@@MAEXPAVQEvent@@@Z 1003c700 f   QtGui4:QtGui4.dll
 0001:0003b706       ?paintEvent@QLabel@@MAEXPAVQPaintEvent@@@Z 1003c706 f   QtGui4:QtGui4.dll
 0001:0003b70c       ?moveEvent@QWidget@@MAEXPAVQMoveEvent@@@Z 1003c70c f   QtGui4:QtGui4.dll
 0001:0003b712       ?resizeEvent@QWidget@@MAEXPAVQResizeEvent@@@Z 1003c712 f   QtGui4:QtGui4.dll
 0001:0003b718       ?closeEvent@QWidget@@MAEXPAVQCloseEvent@@@Z 1003c718 f   QtGui4:QtGui4.dll
 0001:0003b71e       ?contextMenuEvent@QLabel@@MAEXPAVQContextMenuEvent@@@Z 1003c71e f   QtGui4:QtGui4.dll
 0001:0003b724       ?tabletEvent@QWidget@@MAEXPAVQTabletEvent@@@Z 1003c724 f   QtGui4:QtGui4.dll
 0001:0003b72a       ?actionEvent@QWidget@@MAEXPAVQActionEvent@@@Z 1003c72a f   QtGui4:QtGui4.dll
 0001:0003b730       ?dragEnterEvent@QWidget@@MAEXPAVQDragEnterEvent@@@Z 1003c730 f   QtGui4:QtGui4.dll
 0001:0003b736       ?dragMoveEvent@QWidget@@MAEXPAVQDragMoveEvent@@@Z 1003c736 f   QtGui4:QtGui4.dll
 0001:0003b73c       ?dragLeaveEvent@QWidget@@MAEXPAVQDragLeaveEvent@@@Z 1003c73c f   QtGui4:QtGui4.dll
 0001:0003b742       ?dropEvent@QWidget@@MAEXPAVQDropEvent@@@Z 1003c742 f   QtGui4:QtGui4.dll
 0001:0003b748       ?showEvent@QWidget@@MAEXPAVQShowEvent@@@Z 1003c748 f   QtGui4:QtGui4.dll
 0001:0003b74e       ?hideEvent@QWidget@@MAEXPAVQHideEvent@@@Z 1003c74e f   QtGui4:QtGui4.dll
 0001:0003b754       ?winEvent@QWidget@@MAE_NPAUtagMSG@@PAJ@Z 1003c754 f   QtGui4:QtGui4.dll
 0001:0003b75a       ?changeEvent@QLabel@@MAEXPAVQEvent@@@Z 1003c75a f   QtGui4:QtGui4.dll
 0001:0003b760       ?inputMethodEvent@QWidget@@MAEXPAVQInputMethodEvent@@@Z 1003c760 f   QtGui4:QtGui4.dll
 0001:0003b766       ?inputMethodQuery@QWidget@@UBE?AVQVariant@@W4InputMethodQuery@Qt@@@Z 1003c766 f   QtGui4:QtGui4.dll
 0001:0003b76c       ?focusNextPrevChild@QLabel@@MAE_N_N@Z 1003c76c f   QtGui4:QtGui4.dll
 0001:0003b772       ?styleChange@QWidget@@MAEXAAVQStyle@@@Z 1003c772 f   QtGui4:QtGui4.dll
 0001:0003b778       ?enabledChange@QWidget@@MAEX_N@Z 1003c778 f   QtGui4:QtGui4.dll
 0001:0003b77e       ?paletteChange@QWidget@@MAEXABVQPalette@@@Z 1003c77e f   QtGui4:QtGui4.dll
 0001:0003b784       ?fontChange@QWidget@@MAEXABVQFont@@@Z 1003c784 f   QtGui4:QtGui4.dll
 0001:0003b78a       ?windowActivationChange@QWidget@@MAEX_N@Z 1003c78a f   QtGui4:QtGui4.dll
 0001:0003b790       ?languageChange@QWidget@@MAEXXZ 1003c790 f   QtGui4:QtGui4.dll
 0001:0003b796       ?devType@QWidget@@UBEHXZ   1003c796 f   QtGui4:QtGui4.dll
 0001:0003b79c       ?paintEngine@QWidget@@UBEPAVQPaintEngine@@XZ 1003c79c f   QtGui4:QtGui4.dll
 0001:0003b7a2       ?getDC@QWidget@@UBEPAUHDC__@@XZ 1003c7a2 f   QtGui4:QtGui4.dll
 0001:0003b7a8       ?releaseDC@QWidget@@UBEXPAUHDC__@@@Z 1003c7a8 f   QtGui4:QtGui4.dll
 0001:0003b7ae       ?metric@QWidget@@MBEHW4PaintDeviceMetric@QPaintDevice@@@Z 1003c7ae f   QtGui4:QtGui4.dll
 0001:0003b7b4       ?metaObject@QWidget@@UBEPBUQMetaObject@@XZ 1003c7b4 f   QtGui4:QtGui4.dll
 0001:0003b7ba       ?qt_metacast@QWidget@@UAEPAXPBD@Z 1003c7ba f   QtGui4:QtGui4.dll
 0001:0003b7c0       ?qt_metacall@QWidget@@UAEHW4Call@QMetaObject@@HPAPAX@Z 1003c7c0 f   QtGui4:QtGui4.dll
 0001:0003b7c6       ?event@QWidget@@MAE_NPAVQEvent@@@Z 1003c7c6 f   QtGui4:QtGui4.dll
 0001:0003b7cc       ?sizeHint@QWidget@@UBE?AVQSize@@XZ 1003c7cc f   QtGui4:QtGui4.dll
 0001:0003b7d2       ?minimumSizeHint@QWidget@@UBE?AVQSize@@XZ 1003c7d2 f   QtGui4:QtGui4.dll
 0001:0003b7d8       ?heightForWidth@QWidget@@UBEHH@Z 1003c7d8 f   QtGui4:QtGui4.dll
 0001:0003b7de       ?mousePressEvent@QWidget@@MAEXPAVQMouseEvent@@@Z 1003c7de f   QtGui4:QtGui4.dll
 0001:0003b7e4       ?mouseReleaseEvent@QWidget@@MAEXPAVQMouseEvent@@@Z 1003c7e4 f   QtGui4:QtGui4.dll
 0001:0003b7ea       ?mouseMoveEvent@QWidget@@MAEXPAVQMouseEvent@@@Z 1003c7ea f   QtGui4:QtGui4.dll
 0001:0003b7f0       ?keyPressEvent@QWidget@@MAEXPAVQKeyEvent@@@Z 1003c7f0 f   QtGui4:QtGui4.dll
 0001:0003b7f6       ?focusInEvent@QWidget@@MAEXPAVQFocusEvent@@@Z 1003c7f6 f   QtGui4:QtGui4.dll
 0001:0003b7fc       ?focusOutEvent@QWidget@@MAEXPAVQFocusEvent@@@Z 1003c7fc f   QtGui4:QtGui4.dll
 0001:0003b802       ?paintEvent@QWidget@@MAEXPAVQPaintEvent@@@Z 1003c802 f   QtGui4:QtGui4.dll
 0001:0003b808       ?contextMenuEvent@QWidget@@MAEXPAVQContextMenuEvent@@@Z 1003c808 f   QtGui4:QtGui4.dll
 0001:0003b80e       ?changeEvent@QWidget@@MAEXPAVQEvent@@@Z 1003c80e f   QtGui4:QtGui4.dll
 0001:0003b814       ?focusNextPrevChild@QWidget@@MAE_N_N@Z 1003c814 f   QtGui4:QtGui4.dll
 0001:0003b81a       ?metaObject@QVBoxLayout@@UBEPBUQMetaObject@@XZ 1003c81a f   QtGui4:QtGui4.dll
 0001:0003b820       ?qt_metacast@QVBoxLayout@@UAEPAXPBD@Z 1003c820 f   QtGui4:QtGui4.dll
 0001:0003b826       ?qt_metacall@QVBoxLayout@@UAEHW4Call@QMetaObject@@HPAPAX@Z 1003c826 f   QtGui4:QtGui4.dll
 0001:0003b82c       ?childEvent@QLayout@@MAEXPAVQChildEvent@@@Z 1003c82c f   QtGui4:QtGui4.dll
 0001:0003b832       ?addItem@QBoxLayout@@UAEXPAVQLayoutItem@@@Z 1003c832 f   QtGui4:QtGui4.dll
 0001:0003b838       ?itemAt@QBoxLayout@@UBEPAVQLayoutItem@@H@Z 1003c838 f   QtGui4:QtGui4.dll
 0001:0003b83e       ?takeAt@QBoxLayout@@UAEPAVQLayoutItem@@H@Z 1003c83e f   QtGui4:QtGui4.dll
 0001:0003b844       ?indexOf@QLayout@@UBEHPAVQWidget@@@Z 1003c844 f   QtGui4:QtGui4.dll
 0001:0003b84a       ?count@QBoxLayout@@UBEHXZ  1003c84a f   QtGui4:QtGui4.dll
 0001:0003b850       ?sizeHint@QBoxLayout@@UBE?AVQSize@@XZ 1003c850 f   QtGui4:QtGui4.dll
 0001:0003b856       ?minimumSize@QBoxLayout@@UBE?AVQSize@@XZ 1003c856 f   QtGui4:QtGui4.dll
 0001:0003b85c       ?maximumSize@QBoxLayout@@UBE?AVQSize@@XZ 1003c85c f   QtGui4:QtGui4.dll
 0001:0003b862       ?expandingDirections@QBoxLayout@@UBE?AV?$QFlags@W4Orientation@Qt@@@@XZ 1003c862 f   QtGui4:QtGui4.dll
 0001:0003b868       ?setGeometry@QBoxLayout@@UAEXABVQRect@@@Z 1003c868 f   QtGui4:QtGui4.dll
 0001:0003b86e       ?geometry@QLayout@@UBE?AVQRect@@XZ 1003c86e f   QtGui4:QtGui4.dll
 0001:0003b874       ?isEmpty@QLayout@@UBE_NXZ  1003c874 f   QtGui4:QtGui4.dll
 0001:0003b87a       ?hasHeightForWidth@QBoxLayout@@UBE_NXZ 1003c87a f   QtGui4:QtGui4.dll
 0001:0003b880       ?heightForWidth@QBoxLayout@@UBEHH@Z 1003c880 f   QtGui4:QtGui4.dll
 0001:0003b886       ?minimumHeightForWidth@QBoxLayout@@UBEHH@Z 1003c886 f   QtGui4:QtGui4.dll
 0001:0003b88c       ?invalidate@QBoxLayout@@UAEXXZ 1003c88c f   QtGui4:QtGui4.dll
 0001:0003b892       ?widget@QLayoutItem@@UAEPAVQWidget@@XZ 1003c892 f   QtGui4:QtGui4.dll
 0001:0003b898       ?layout@QLayout@@UAEPAV1@XZ 1003c898 f   QtGui4:QtGui4.dll
 0001:0003b89e       ?spacerItem@QLayoutItem@@UAEPAVQSpacerItem@@XZ 1003c89e f   QtGui4:QtGui4.dll
 0001:0003b8a4       ?metaObject@QHBoxLayout@@UBEPBUQMetaObject@@XZ 1003c8a4 f   QtGui4:QtGui4.dll
 0001:0003b8aa       ?qt_metacast@QHBoxLayout@@UAEPAXPBD@Z 1003c8aa f   QtGui4:QtGui4.dll
 0001:0003b8b0       ?qt_metacall@QHBoxLayout@@UAEHW4Call@QMetaObject@@HPAPAX@Z 1003c8b0 f   QtGui4:QtGui4.dll
 0001:0003b8b6       ?metaObject@QRadioButton@@UBEPBUQMetaObject@@XZ 1003c8b6 f   QtGui4:QtGui4.dll
 0001:0003b8bc       ?qt_metacast@QRadioButton@@UAEPAXPBD@Z 1003c8bc f   QtGui4:QtGui4.dll
 0001:0003b8c2       ?qt_metacall@QRadioButton@@UAEHW4Call@QMetaObject@@HPAPAX@Z 1003c8c2 f   QtGui4:QtGui4.dll
 0001:0003b8c8       ?event@QRadioButton@@MAE_NPAVQEvent@@@Z 1003c8c8 f   QtGui4:QtGui4.dll
 0001:0003b8ce       ?timerEvent@QAbstractButton@@MAEXPAVQTimerEvent@@@Z 1003c8ce f   QtGui4:QtGui4.dll
 0001:0003b8d4       ?sizeHint@QRadioButton@@UBE?AVQSize@@XZ 1003c8d4 f   QtGui4:QtGui4.dll
 0001:0003b8da       ?mousePressEvent@QAbstractButton@@MAEXPAVQMouseEvent@@@Z 1003c8da f   QtGui4:QtGui4.dll
 0001:0003b8e0       ?mouseReleaseEvent@QAbstractButton@@MAEXPAVQMouseEvent@@@Z 1003c8e0 f   QtGui4:QtGui4.dll
 0001:0003b8e6       ?mouseMoveEvent@QRadioButton@@MAEXPAVQMouseEvent@@@Z 1003c8e6 f   QtGui4:QtGui4.dll
 0001:0003b8ec       ?keyPressEvent@QAbstractButton@@MAEXPAVQKeyEvent@@@Z 1003c8ec f   QtGui4:QtGui4.dll
 0001:0003b8f2       ?keyReleaseEvent@QAbstractButton@@MAEXPAVQKeyEvent@@@Z 1003c8f2 f   QtGui4:QtGui4.dll
 0001:0003b8f8       ?focusInEvent@QAbstractButton@@MAEXPAVQFocusEvent@@@Z 1003c8f8 f   QtGui4:QtGui4.dll
 0001:0003b8fe       ?focusOutEvent@QAbstractButton@@MAEXPAVQFocusEvent@@@Z 1003c8fe f   QtGui4:QtGui4.dll
 0001:0003b904       ?paintEvent@QRadioButton@@MAEXPAVQPaintEvent@@@Z 1003c904 f   QtGui4:QtGui4.dll
 0001:0003b90a       ?changeEvent@QAbstractButton@@MAEXPAVQEvent@@@Z 1003c90a f   QtGui4:QtGui4.dll
 0001:0003b910       ?hitButton@QRadioButton@@MBE_NABVQPoint@@@Z 1003c910 f   QtGui4:QtGui4.dll
 0001:0003b916       ?checkStateSet@QAbstractButton@@MAEXXZ 1003c916 f   QtGui4:QtGui4.dll
 0001:0003b91c       ?nextCheckState@QAbstractButton@@MAEXXZ 1003c91c f   QtGui4:QtGui4.dll
 0001:0003b922       ?metaObject@QLineEdit@@UBEPBUQMetaObject@@XZ 1003c922 f   QtGui4:QtGui4.dll
 0001:0003b928       ?qt_metacast@QLineEdit@@UAEPAXPBD@Z 1003c928 f   QtGui4:QtGui4.dll
 0001:0003b92e       ?qt_metacall@QLineEdit@@UAEHW4Call@QMetaObject@@HPAPAX@Z 1003c92e f   QtGui4:QtGui4.dll
 0001:0003b934       ?event@QLineEdit@@UAE_NPAVQEvent@@@Z 1003c934 f   QtGui4:QtGui4.dll
 0001:0003b93a       ?sizeHint@QLineEdit@@UBE?AVQSize@@XZ 1003c93a f   QtGui4:QtGui4.dll
 0001:0003b940       ?minimumSizeHint@QLineEdit@@UBE?AVQSize@@XZ 1003c940 f   QtGui4:QtGui4.dll
 0001:0003b946       ?mousePressEvent@QLineEdit@@MAEXPAVQMouseEvent@@@Z 1003c946 f   QtGui4:QtGui4.dll
 0001:0003b94c       ?mouseReleaseEvent@QLineEdit@@MAEXPAVQMouseEvent@@@Z 1003c94c f   QtGui4:QtGui4.dll
 0001:0003b952       ?mouseDoubleClickEvent@QLineEdit@@MAEXPAVQMouseEvent@@@Z 1003c952 f   QtGui4:QtGui4.dll
 0001:0003b958       ?mouseMoveEvent@QLineEdit@@MAEXPAVQMouseEvent@@@Z 1003c958 f   QtGui4:QtGui4.dll
 0001:0003b95e       ?keyPressEvent@QLineEdit@@MAEXPAVQKeyEvent@@@Z 1003c95e f   QtGui4:QtGui4.dll
 0001:0003b964       ?focusInEvent@QLineEdit@@MAEXPAVQFocusEvent@@@Z 1003c964 f   QtGui4:QtGui4.dll
 0001:0003b96a       ?focusOutEvent@QLineEdit@@MAEXPAVQFocusEvent@@@Z 1003c96a f   QtGui4:QtGui4.dll
 0001:0003b970       ?paintEvent@QLineEdit@@MAEXPAVQPaintEvent@@@Z 1003c970 f   QtGui4:QtGui4.dll
 0001:0003b976       ?contextMenuEvent@QLineEdit@@MAEXPAVQContextMenuEvent@@@Z 1003c976 f   QtGui4:QtGui4.dll
 0001:0003b97c       ?dragEnterEvent@QLineEdit@@MAEXPAVQDragEnterEvent@@@Z 1003c97c f   QtGui4:QtGui4.dll
 0001:0003b982       ?dragMoveEvent@QLineEdit@@MAEXPAVQDragMoveEvent@@@Z 1003c982 f   QtGui4:QtGui4.dll
 0001:0003b988       ?dragLeaveEvent@QLineEdit@@MAEXPAVQDragLeaveEvent@@@Z 1003c988 f   QtGui4:QtGui4.dll
 0001:0003b98e       ?dropEvent@QLineEdit@@MAEXPAVQDropEvent@@@Z 1003c98e f   QtGui4:QtGui4.dll
 0001:0003b994       ?changeEvent@QLineEdit@@MAEXPAVQEvent@@@Z 1003c994 f   QtGui4:QtGui4.dll
 0001:0003b99a       ?inputMethodEvent@QLineEdit@@MAEXPAVQInputMethodEvent@@@Z 1003c99a f   QtGui4:QtGui4.dll
 0001:0003b9a0       ?inputMethodQuery@QLineEdit@@UBE?AVQVariant@@W4InputMethodQuery@Qt@@@Z 1003c9a0 f   QtGui4:QtGui4.dll
 0001:0003b9a6       ?metaObject@QPushButton@@UBEPBUQMetaObject@@XZ 1003c9a6 f   QtGui4:QtGui4.dll
 0001:0003b9ac       ?qt_metacast@QPushButton@@UAEPAXPBD@Z 1003c9ac f   QtGui4:QtGui4.dll
 0001:0003b9b2       ?qt_metacall@QPushButton@@UAEHW4Call@QMetaObject@@HPAPAX@Z 1003c9b2 f   QtGui4:QtGui4.dll
 0001:0003b9b8       ?event@QPushButton@@MAE_NPAVQEvent@@@Z 1003c9b8 f   QtGui4:QtGui4.dll
 0001:0003b9be       ?sizeHint@QPushButton@@UBE?AVQSize@@XZ 1003c9be f   QtGui4:QtGui4.dll
 0001:0003b9c4       ?minimumSizeHint@QPushButton@@UBE?AVQSize@@XZ 1003c9c4 f   QtGui4:QtGui4.dll
 0001:0003b9ca       ?mouseMoveEvent@QAbstractButton@@MAEXPAVQMouseEvent@@@Z 1003c9ca f   QtGui4:QtGui4.dll
 0001:0003b9d0       ?keyPressEvent@QPushButton@@MAEXPAVQKeyEvent@@@Z 1003c9d0 f   QtGui4:QtGui4.dll
 0001:0003b9d6       ?focusInEvent@QPushButton@@MAEXPAVQFocusEvent@@@Z 1003c9d6 f   QtGui4:QtGui4.dll
 0001:0003b9dc       ?focusOutEvent@QPushButton@@MAEXPAVQFocusEvent@@@Z 1003c9dc f   QtGui4:QtGui4.dll
 0001:0003b9e2       ?paintEvent@QPushButton@@MAEXPAVQPaintEvent@@@Z 1003c9e2 f   QtGui4:QtGui4.dll
 0001:0003b9e8       ?hitButton@QAbstractButton@@MBE_NABVQPoint@@@Z 1003c9e8 f   QtGui4:QtGui4.dll
 0001:0003b9ee       ?metaObject@QSplitter@@UBEPBUQMetaObject@@XZ 1003c9ee f   QtGui4:QtGui4.dll
 0001:0003b9f4       ?qt_metacast@QSplitter@@UAEPAXPBD@Z 1003c9f4 f   QtGui4:QtGui4.dll
 0001:0003b9fa       ?qt_metacall@QSplitter@@UAEHW4Call@QMetaObject@@HPAPAX@Z 1003c9fa f   QtGui4:QtGui4.dll
 0001:0003ba00       ?event@QSplitter@@MAE_NPAVQEvent@@@Z 1003ca00 f   QtGui4:QtGui4.dll
 0001:0003ba06       ?childEvent@QSplitter@@MAEXPAVQChildEvent@@@Z 1003ca06 f   QtGui4:QtGui4.dll
 0001:0003ba0c       ?sizeHint@QSplitter@@UBE?AVQSize@@XZ 1003ca0c f   QtGui4:QtGui4.dll
 0001:0003ba12       ?minimumSizeHint@QSplitter@@UBE?AVQSize@@XZ 1003ca12 f   QtGui4:QtGui4.dll
 0001:0003ba18       ?paintEvent@QFrame@@MAEXPAVQPaintEvent@@@Z 1003ca18 f   QtGui4:QtGui4.dll
 0001:0003ba1e       ?resizeEvent@QSplitter@@MAEXPAVQResizeEvent@@@Z 1003ca1e f   QtGui4:QtGui4.dll
 0001:0003ba24       ?changeEvent@QSplitter@@MAEXPAVQEvent@@@Z 1003ca24 f   QtGui4:QtGui4.dll
 0001:0003ba2a       ?createHandle@QSplitter@@MAEPAVQSplitterHandle@@XZ 1003ca2a f   QtGui4:QtGui4.dll
 0001:0003ba30       ?metaObject@QTextBrowser@@UBEPBUQMetaObject@@XZ 1003ca30 f   QtGui4:QtGui4.dll
 0001:0003ba36       ?qt_metacast@QTextBrowser@@UAEPAXPBD@Z 1003ca36 f   QtGui4:QtGui4.dll
 0001:0003ba3c       ?qt_metacall@QTextBrowser@@UAEHW4Call@QMetaObject@@HPAPAX@Z 1003ca3c f   QtGui4:QtGui4.dll
 0001:0003ba42       ?event@QTextBrowser@@MAE_NPAVQEvent@@@Z 1003ca42 f   QtGui4:QtGui4.dll
 0001:0003ba48       ?timerEvent@QTextEdit@@MAEXPAVQTimerEvent@@@Z 1003ca48 f   QtGui4:QtGui4.dll
 0001:0003ba4e       ?sizeHint@QAbstractScrollArea@@UBE?AVQSize@@XZ 1003ca4e f   QtGui4:QtGui4.dll
 0001:0003ba54       ?minimumSizeHint@QAbstractScrollArea@@UBE?AVQSize@@XZ 1003ca54 f   QtGui4:QtGui4.dll
 0001:0003ba5a       ?mousePressEvent@QTextBrowser@@MAEXPAVQMouseEvent@@@Z 1003ca5a f   QtGui4:QtGui4.dll
 0001:0003ba60       ?mouseReleaseEvent@QTextBrowser@@MAEXPAVQMouseEvent@@@Z 1003ca60 f   QtGui4:QtGui4.dll
 0001:0003ba66       ?mouseDoubleClickEvent@QTextEdit@@MAEXPAVQMouseEvent@@@Z 1003ca66 f   QtGui4:QtGui4.dll
 0001:0003ba6c       ?mouseMoveEvent@QTextBrowser@@MAEXPAVQMouseEvent@@@Z 1003ca6c f   QtGui4:QtGui4.dll
 0001:0003ba72       ?wheelEvent@QTextEdit@@MAEXPAVQWheelEvent@@@Z 1003ca72 f   QtGui4:QtGui4.dll
 0001:0003ba78       ?keyPressEvent@QTextBrowser@@MAEXPAVQKeyEvent@@@Z 1003ca78 f   QtGui4:QtGui4.dll
 0001:0003ba7e       ?keyReleaseEvent@QTextEdit@@MAEXPAVQKeyEvent@@@Z 1003ca7e f   QtGui4:QtGui4.dll
 0001:0003ba84       ?focusInEvent@QTextEdit@@MAEXPAVQFocusEvent@@@Z 1003ca84 f   QtGui4:QtGui4.dll
 0001:0003ba8a       ?focusOutEvent@QTextBrowser@@MAEXPAVQFocusEvent@@@Z 1003ca8a f   QtGui4:QtGui4.dll
 0001:0003ba90       ?paintEvent@QTextBrowser@@MAEXPAVQPaintEvent@@@Z 1003ca90 f   QtGui4:QtGui4.dll
 0001:0003ba96       ?resizeEvent@QTextEdit@@MAEXPAVQResizeEvent@@@Z 1003ca96 f   QtGui4:QtGui4.dll
 0001:0003ba9c       ?contextMenuEvent@QTextEdit@@MAEXPAVQContextMenuEvent@@@Z 1003ca9c f   QtGui4:QtGui4.dll
 0001:0003baa2       ?dragEnterEvent@QTextEdit@@MAEXPAVQDragEnterEvent@@@Z 1003caa2 f   QtGui4:QtGui4.dll
 0001:0003baa8       ?dragMoveEvent@QTextEdit@@MAEXPAVQDragMoveEvent@@@Z 1003caa8 f   QtGui4:QtGui4.dll
 0001:0003baae       ?dragLeaveEvent@QTextEdit@@MAEXPAVQDragLeaveEvent@@@Z 1003caae f   QtGui4:QtGui4.dll
 0001:0003bab4       ?dropEvent@QTextEdit@@MAEXPAVQDropEvent@@@Z 1003cab4 f   QtGui4:QtGui4.dll
 0001:0003baba       ?showEvent@QTextEdit@@MAEXPAVQShowEvent@@@Z 1003caba f   QtGui4:QtGui4.dll
 0001:0003bac0       ?changeEvent@QTextEdit@@MAEXPAVQEvent@@@Z 1003cac0 f   QtGui4:QtGui4.dll
 0001:0003bac6       ?inputMethodEvent@QTextEdit@@MAEXPAVQInputMethodEvent@@@Z 1003cac6 f   QtGui4:QtGui4.dll
 0001:0003bacc       ?inputMethodQuery@QTextEdit@@MBE?AVQVariant@@W4InputMethodQuery@Qt@@@Z 1003cacc f   QtGui4:QtGui4.dll
 0001:0003bad2       ?focusNextPrevChild@QTextBrowser@@MAE_N_N@Z 1003cad2 f   QtGui4:QtGui4.dll
 0001:0003bad8       ?viewportEvent@QAbstractScrollArea@@MAE_NPAVQEvent@@@Z 1003cad8 f   QtGui4:QtGui4.dll
 0001:0003bade       ?scrollContentsBy@QTextEdit@@MAEXHH@Z 1003cade f   QtGui4:QtGui4.dll
 0001:0003bae4       ?loadResource@QTextBrowser@@UAE?AVQVariant@@HABVQUrl@@@Z 1003cae4 f   QtGui4:QtGui4.dll
 0001:0003baea       ?createMimeDataFromSelection@QTextEdit@@MBEPAVQMimeData@@XZ 1003caea f   QtGui4:QtGui4.dll
 0001:0003baf0       ?canInsertFromMimeData@QTextEdit@@MBE_NPBVQMimeData@@@Z 1003caf0 f   QtGui4:QtGui4.dll
 0001:0003baf6       ?insertFromMimeData@QTextEdit@@MAEXPBVQMimeData@@@Z 1003caf6 f   QtGui4:QtGui4.dll
 0001:0003bafc       ?setSource@QTextBrowser@@UAEXABVQUrl@@@Z 1003cafc f   QtGui4:QtGui4.dll
 0001:0003bb02       ?backward@QTextBrowser@@UAEXXZ 1003cb02 f   QtGui4:QtGui4.dll
 0001:0003bb08       ?forward@QTextBrowser@@UAEXXZ 1003cb08 f   QtGui4:QtGui4.dll
 0001:0003bb0e       ?home@QTextBrowser@@UAEXXZ 1003cb0e f   QtGui4:QtGui4.dll
 0001:0003bb14       ?reload@QTextBrowser@@UAEXXZ 1003cb14 f   QtGui4:QtGui4.dll
 0001:0003bb1a       ??1QLabel@@UAE@XZ          1003cb1a f   QtGui4:QtGui4.dll
 0001:0003bb20       ??1QWidget@@UAE@XZ         1003cb20 f   QtGui4:QtGui4.dll
 0001:0003bb26       ??1QVBoxLayout@@UAE@XZ     1003cb26 f   QtGui4:QtGui4.dll
 0001:0003bb2c       ??1QHBoxLayout@@UAE@XZ     1003cb2c f   QtGui4:QtGui4.dll
 0001:0003bb32       ??1QAbstractButton@@UAE@XZ 1003cb32 f   QtGui4:QtGui4.dll
 0001:0003bb38       ??1QLineEdit@@UAE@XZ       1003cb38 f   QtGui4:QtGui4.dll
 0001:0003bb3e       ??1QPushButton@@UAE@XZ     1003cb3e f   QtGui4:QtGui4.dll
 0001:0003bb44       ??1QSplitter@@UAE@XZ       1003cb44 f   QtGui4:QtGui4.dll
 0001:0003bb4a       ??1QTextBrowser@@UAE@XZ    1003cb4a f   QtGui4:QtGui4.dll
 0001:0003bb50       ?setText@QTextEdit@@QAEXABVQString@@@Z 1003cb50 f   QtGui4:QtGui4.dll
 0001:0003bb56       ?show@QWidget@@QAEXXZ      1003cb56 f   QtGui4:QtGui4.dll
 0001:0003bb5c       ?setSpacing@QBoxLayout@@QAEXH@Z 1003cb5c f   QtGui4:QtGui4.dll
 0001:0003bb62       ?getExistingDirectory@QFileDialog@@SA?AVQString@@PAVQWidget@@ABV2@1V?$QFlags@W4Option@QFileDialog@@@@@Z 1003cb62 f   QtGui4:QtGui4.dll
 0001:0003bb68       ?text@QLabel@@QBE?AVQString@@XZ 1003cb68 f   QtGui4:QtGui4.dll
 0001:0003bb6e       ?getOpenFileName@QFileDialog@@SA?AVQString@@PAVQWidget@@ABV2@11PAV2@V?$QFlags@W4Option@QFileDialog@@@@@Z 1003cb6e f   QtGui4:QtGui4.dll
 0001:0003bb74       ?append@QTextEdit@@QAEXABVQString@@@Z 1003cb74 f   QtGui4:QtGui4.dll
 0001:0003bb7a       ?information@QMessageBox@@SA?AW4StandardButton@1@PAVQWidget@@ABVQString@@1V?$QFlags@W4StandardButton@QMessageBox@@@@W421@@Z 1003cb7a f   QtGui4:QtGui4.dll
 0001:0003bb80       ??1QDialog@@UAE@XZ         1003cb80 f   QtGui4:QtGui4.dll
 0001:0003bb86       ??0QDialog@@QAE@PAVQWidget@@V?$QFlags@W4WindowType@Qt@@@@@Z 1003cb86 f   QtGui4:QtGui4.dll
 0001:0003bb8c       ?eventFilter@QDialog@@MAE_NPAVQObject@@PAVQEvent@@@Z 1003cb8c f   QtGui4:QtGui4.dll
 0001:0003bb92       ?setVisible@QDialog@@UAEX_N@Z 1003cb92 f   QtGui4:QtGui4.dll
 0001:0003bb98       ?sizeHint@QDialog@@UBE?AVQSize@@XZ 1003cb98 f   QtGui4:QtGui4.dll
 0001:0003bb9e       ?minimumSizeHint@QDialog@@UBE?AVQSize@@XZ 1003cb9e f   QtGui4:QtGui4.dll
 0001:0003bba4       ?keyPressEvent@QDialog@@MAEXPAVQKeyEvent@@@Z 1003cba4 f   QtGui4:QtGui4.dll
 0001:0003bbaa       ?resizeEvent@QDialog@@MAEXPAVQResizeEvent@@@Z 1003cbaa f   QtGui4:QtGui4.dll
 0001:0003bbb0       ?closeEvent@QDialog@@MAEXPAVQCloseEvent@@@Z 1003cbb0 f   QtGui4:QtGui4.dll
 0001:0003bbb6       ?contextMenuEvent@QDialog@@MAEXPAVQContextMenuEvent@@@Z 1003cbb6 f   QtGui4:QtGui4.dll
 0001:0003bbbc       ?showEvent@QDialog@@MAEXPAVQShowEvent@@@Z 1003cbbc f   QtGui4:QtGui4.dll
 0001:0003bbc2       ?done@QDialog@@UAEXH@Z     1003cbc2 f   QtGui4:QtGui4.dll
 0001:0003bbc8       ?accept@QDialog@@UAEXXZ    1003cbc8 f   QtGui4:QtGui4.dll
 0001:0003bbce       ?reject@QDialog@@UAEXXZ    1003cbce f   QtGui4:QtGui4.dll
 0001:0003bbd4       ??0QMdiArea@@QAE@PAVQWidget@@@Z 1003cbd4 f   QtGui4:QtGui4.dll
 0001:0003bbda       ?setEnabled@QWidget@@QAEX_N@Z 1003cbda f   QtGui4:QtGui4.dll
 0001:0003bbe0       ?metaObject@QMdiArea@@UBEPBUQMetaObject@@XZ 1003cbe0 f   QtGui4:QtGui4.dll
 0001:0003bbe6       ?qt_metacast@QMdiArea@@UAEPAXPBD@Z 1003cbe6 f   QtGui4:QtGui4.dll
 0001:0003bbec       ?qt_metacall@QMdiArea@@UAEHW4Call@QMetaObject@@HPAPAX@Z 1003cbec f   QtGui4:QtGui4.dll
 0001:0003bbf2       ?event@QMdiArea@@MAE_NPAVQEvent@@@Z 1003cbf2 f   QtGui4:QtGui4.dll
 0001:0003bbf8       ?eventFilter@QMdiArea@@MAE_NPAVQObject@@PAVQEvent@@@Z 1003cbf8 f   QtGui4:QtGui4.dll
 0001:0003bbfe       ?timerEvent@QMdiArea@@MAEXPAVQTimerEvent@@@Z 1003cbfe f   QtGui4:QtGui4.dll
 0001:0003bc04       ?childEvent@QMdiArea@@MAEXPAVQChildEvent@@@Z 1003cc04 f   QtGui4:QtGui4.dll
 0001:0003bc0a       ?sizeHint@QMdiArea@@UBE?AVQSize@@XZ 1003cc0a f   QtGui4:QtGui4.dll
 0001:0003bc10       ?minimumSizeHint@QMdiArea@@UBE?AVQSize@@XZ 1003cc10 f   QtGui4:QtGui4.dll
 0001:0003bc16       ?mousePressEvent@QAbstractScrollArea@@MAEXPAVQMouseEvent@@@Z 1003cc16 f   QtGui4:QtGui4.dll
 0001:0003bc1c       ?mouseReleaseEvent@QAbstractScrollArea@@MAEXPAVQMouseEvent@@@Z 1003cc1c f   QtGui4:QtGui4.dll
 0001:0003bc22       ?mouseDoubleClickEvent@QAbstractScrollArea@@MAEXPAVQMouseEvent@@@Z 1003cc22 f   QtGui4:QtGui4.dll
 0001:0003bc28       ?mouseMoveEvent@QAbstractScrollArea@@MAEXPAVQMouseEvent@@@Z 1003cc28 f   QtGui4:QtGui4.dll
 0001:0003bc2e       ?wheelEvent@QAbstractScrollArea@@MAEXPAVQWheelEvent@@@Z 1003cc2e f   QtGui4:QtGui4.dll
 0001:0003bc34       ?keyPressEvent@QAbstractScrollArea@@MAEXPAVQKeyEvent@@@Z 1003cc34 f   QtGui4:QtGui4.dll
 0001:0003bc3a       ?paintEvent@QMdiArea@@MAEXPAVQPaintEvent@@@Z 1003cc3a f   QtGui4:QtGui4.dll
 0001:0003bc40       ?resizeEvent@QMdiArea@@MAEXPAVQResizeEvent@@@Z 1003cc40 f   QtGui4:QtGui4.dll
 0001:0003bc46       ?contextMenuEvent@QAbstractScrollArea@@MAEXPAVQContextMenuEvent@@@Z 1003cc46 f   QtGui4:QtGui4.dll
 0001:0003bc4c       ?dragEnterEvent@QAbstractScrollArea@@MAEXPAVQDragEnterEvent@@@Z 1003cc4c f   QtGui4:QtGui4.dll
 0001:0003bc52       ?dragMoveEvent@QAbstractScrollArea@@MAEXPAVQDragMoveEvent@@@Z 1003cc52 f   QtGui4:QtGui4.dll
 0001:0003bc58       ?dragLeaveEvent@QAbstractScrollArea@@MAEXPAVQDragLeaveEvent@@@Z 1003cc58 f   QtGui4:QtGui4.dll
 0001:0003bc5e       ?dropEvent@QAbstractScrollArea@@MAEXPAVQDropEvent@@@Z 1003cc5e f   QtGui4:QtGui4.dll
 0001:0003bc64       ?showEvent@QMdiArea@@MAEXPAVQShowEvent@@@Z 1003cc64 f   QtGui4:QtGui4.dll
 0001:0003bc6a       ?changeEvent@QFrame@@MAEXPAVQEvent@@@Z 1003cc6a f   QtGui4:QtGui4.dll
 0001:0003bc70       ?viewportEvent@QMdiArea@@MAE_NPAVQEvent@@@Z 1003cc70 f   QtGui4:QtGui4.dll
 0001:0003bc76       ?scrollContentsBy@QMdiArea@@MAEXHH@Z 1003cc76 f   QtGui4:QtGui4.dll
 0001:0003bc7c       ??1QMdiArea@@UAE@XZ        1003cc7c f   QtGui4:QtGui4.dll
 0001:0003bc82       ?showMaximized@QWidget@@QAEXXZ 1003cc82 f   QtGui4:QtGui4.dll
 0001:0003bc88       ?setWindowFlags@QWidget@@QAEXV?$QFlags@W4WindowType@Qt@@@@@Z 1003cc88 f   QtGui4:QtGui4.dll
 0001:0003bc8e       ?addSubWindow@QMdiArea@@QAEPAVQMdiSubWindow@@PAVQWidget@@V?$QFlags@W4WindowType@Qt@@@@@Z 1003cc8e f   QtGui4:QtGui4.dll
 0001:0003bc94       ?update@QWidget@@QAEXXZ    1003cc94 f   QtGui4:QtGui4.dll
 0001:0003bc9a       ??0QStatusBar@@QAE@PAVQWidget@@@Z 1003cc9a f   QtGui4:QtGui4.dll
 0001:0003bca0       ??0QToolBar@@QAE@PAVQWidget@@@Z 1003cca0 f   QtGui4:QtGui4.dll
 0001:0003bca6       ??0QMenuBar@@QAE@PAVQWidget@@@Z 1003cca6 f   QtGui4:QtGui4.dll
 0001:0003bcac       ??0QCheckBox@@QAE@PAVQWidget@@@Z 1003ccac f   QtGui4:QtGui4.dll
 0001:0003bcb2       ?setFlat@QPushButton@@QAEX_N@Z 1003ccb2 f   QtGui4:QtGui4.dll
 0001:0003bcb8       ?setDefault@QPushButton@@QAEX_N@Z 1003ccb8 f   QtGui4:QtGui4.dll
 0001:0003bcbe       ?setAutoDefault@QPushButton@@QAEX_N@Z 1003ccbe f   QtGui4:QtGui4.dll
 0001:0003bcc4       ?setInputMethodHints@QWidget@@QAEXV?$QFlags@W4InputMethodHint@Qt@@@@@Z 1003ccc4 f   QtGui4:QtGui4.dll
 0001:0003bcca       ?setAutoFillBackground@QWidget@@QAEX_N@Z 1003ccca f   QtGui4:QtGui4.dll
 0001:0003bcd0       ?metaObject@QCheckBox@@UBEPBUQMetaObject@@XZ 1003ccd0 f   QtGui4:QtGui4.dll
 0001:0003bcd6       ?qt_metacast@QCheckBox@@UAEPAXPBD@Z 1003ccd6 f   QtGui4:QtGui4.dll
 0001:0003bcdc       ?qt_metacall@QCheckBox@@UAEHW4Call@QMetaObject@@HPAPAX@Z 1003ccdc f   QtGui4:QtGui4.dll
 0001:0003bce2       ?event@QCheckBox@@MAE_NPAVQEvent@@@Z 1003cce2 f   QtGui4:QtGui4.dll
 0001:0003bce8       ?sizeHint@QCheckBox@@UBE?AVQSize@@XZ 1003cce8 f   QtGui4:QtGui4.dll
 0001:0003bcee       ?mouseMoveEvent@QCheckBox@@MAEXPAVQMouseEvent@@@Z 1003ccee f   QtGui4:QtGui4.dll
 0001:0003bcf4       ?paintEvent@QCheckBox@@MAEXPAVQPaintEvent@@@Z 1003ccf4 f   QtGui4:QtGui4.dll
 0001:0003bcfa       ?hitButton@QCheckBox@@MBE_NABVQPoint@@@Z 1003ccfa f   QtGui4:QtGui4.dll
 0001:0003bd00       ?checkStateSet@QCheckBox@@MAEXXZ 1003cd00 f   QtGui4:QtGui4.dll
 0001:0003bd06       ?nextCheckState@QCheckBox@@MAEXXZ 1003cd06 f   QtGui4:QtGui4.dll
 0001:0003bd0c       ?metaObject@QMenuBar@@UBEPBUQMetaObject@@XZ 1003cd0c f   QtGui4:QtGui4.dll
 0001:0003bd12       ?qt_metacast@QMenuBar@@UAEPAXPBD@Z 1003cd12 f   QtGui4:QtGui4.dll
 0001:0003bd18       ?qt_metacall@QMenuBar@@UAEHW4Call@QMetaObject@@HPAPAX@Z 1003cd18 f   QtGui4:QtGui4.dll
 0001:0003bd1e       ?event@QMenuBar@@MAE_NPAVQEvent@@@Z 1003cd1e f   QtGui4:QtGui4.dll
 0001:0003bd24       ?eventFilter@QMenuBar@@MAE_NPAVQObject@@PAVQEvent@@@Z 1003cd24 f   QtGui4:QtGui4.dll
 0001:0003bd2a       ?timerEvent@QMenuBar@@MAEXPAVQTimerEvent@@@Z 1003cd2a f   QtGui4:QtGui4.dll
 0001:0003bd30       ?setVisible@QMenuBar@@UAEX_N@Z 1003cd30 f   QtGui4:QtGui4.dll
 0001:0003bd36       ?sizeHint@QMenuBar@@UBE?AVQSize@@XZ 1003cd36 f   QtGui4:QtGui4.dll
 0001:0003bd3c       ?minimumSizeHint@QMenuBar@@UBE?AVQSize@@XZ 1003cd3c f   QtGui4:QtGui4.dll
 0001:0003bd42       ?heightForWidth@QMenuBar@@UBEHH@Z 1003cd42 f   QtGui4:QtGui4.dll
 0001:0003bd48       ?mousePressEvent@QMenuBar@@MAEXPAVQMouseEvent@@@Z 1003cd48 f   QtGui4:QtGui4.dll
 0001:0003bd4e       ?mouseReleaseEvent@QMenuBar@@MAEXPAVQMouseEvent@@@Z 1003cd4e f   QtGui4:QtGui4.dll
 0001:0003bd54       ?mouseMoveEvent@QMenuBar@@MAEXPAVQMouseEvent@@@Z 1003cd54 f   QtGui4:QtGui4.dll
 0001:0003bd5a       ?keyPressEvent@QMenuBar@@MAEXPAVQKeyEvent@@@Z 1003cd5a f   QtGui4:QtGui4.dll
 0001:0003bd60       ?focusInEvent@QMenuBar@@MAEXPAVQFocusEvent@@@Z 1003cd60 f   QtGui4:QtGui4.dll
 0001:0003bd66       ?focusOutEvent@QMenuBar@@MAEXPAVQFocusEvent@@@Z 1003cd66 f   QtGui4:QtGui4.dll
 0001:0003bd6c       ?leaveEvent@QMenuBar@@MAEXPAVQEvent@@@Z 1003cd6c f   QtGui4:QtGui4.dll
 0001:0003bd72       ?paintEvent@QMenuBar@@MAEXPAVQPaintEvent@@@Z 1003cd72 f   QtGui4:QtGui4.dll
 0001:0003bd78       ?resizeEvent@QMenuBar@@MAEXPAVQResizeEvent@@@Z 1003cd78 f   QtGui4:QtGui4.dll
 0001:0003bd7e       ?actionEvent@QMenuBar@@MAEXPAVQActionEvent@@@Z 1003cd7e f   QtGui4:QtGui4.dll
 0001:0003bd84       ?changeEvent@QMenuBar@@MAEXPAVQEvent@@@Z 1003cd84 f   QtGui4:QtGui4.dll
 0001:0003bd8a       ?metaObject@QToolBar@@UBEPBUQMetaObject@@XZ 1003cd8a f   QtGui4:QtGui4.dll
 0001:0003bd90       ?qt_metacast@QToolBar@@UAEPAXPBD@Z 1003cd90 f   QtGui4:QtGui4.dll
 0001:0003bd96       ?qt_metacall@QToolBar@@UAEHW4Call@QMetaObject@@HPAPAX@Z 1003cd96 f   QtGui4:QtGui4.dll
 0001:0003bd9c       ?event@QToolBar@@MAE_NPAVQEvent@@@Z 1003cd9c f   QtGui4:QtGui4.dll
 0001:0003bda2       ?childEvent@QToolBar@@MAEXPAVQChildEvent@@@Z 1003cda2 f   QtGui4:QtGui4.dll
 0001:0003bda8       ?paintEvent@QToolBar@@MAEXPAVQPaintEvent@@@Z 1003cda8 f   QtGui4:QtGui4.dll
 0001:0003bdae       ?resizeEvent@QToolBar@@MAEXPAVQResizeEvent@@@Z 1003cdae f   QtGui4:QtGui4.dll
 0001:0003bdb4       ?actionEvent@QToolBar@@MAEXPAVQActionEvent@@@Z 1003cdb4 f   QtGui4:QtGui4.dll
 0001:0003bdba       ?changeEvent@QToolBar@@MAEXPAVQEvent@@@Z 1003cdba f   QtGui4:QtGui4.dll
 0001:0003bdc0       ?metaObject@QStatusBar@@UBEPBUQMetaObject@@XZ 1003cdc0 f   QtGui4:QtGui4.dll
 0001:0003bdc6       ?qt_metacast@QStatusBar@@UAEPAXPBD@Z 1003cdc6 f   QtGui4:QtGui4.dll
 0001:0003bdcc       ?qt_metacall@QStatusBar@@UAEHW4Call@QMetaObject@@HPAPAX@Z 1003cdcc f   QtGui4:QtGui4.dll
 0001:0003bdd2       ?event@QStatusBar@@MAE_NPAVQEvent@@@Z 1003cdd2 f   QtGui4:QtGui4.dll
 0001:0003bdd8       ?paintEvent@QStatusBar@@MAEXPAVQPaintEvent@@@Z 1003cdd8 f   QtGui4:QtGui4.dll
 0001:0003bdde       ?resizeEvent@QStatusBar@@MAEXPAVQResizeEvent@@@Z 1003cdde f   QtGui4:QtGui4.dll
 0001:0003bde4       ?showEvent@QStatusBar@@MAEXPAVQShowEvent@@@Z 1003cde4 f   QtGui4:QtGui4.dll
 0001:0003bdea       ??1QMenuBar@@UAE@XZ        1003cdea f   QtGui4:QtGui4.dll
 0001:0003bdf0       ??1QToolBar@@UAE@XZ        1003cdf0 f   QtGui4:QtGui4.dll
 0001:0003bdf6       ??1QStatusBar@@UAE@XZ      1003cdf6 f   QtGui4:QtGui4.dll
 0001:0003bdfc       ??1QPainter@@QAE@XZ        1003cdfc f   QtGui4:QtGui4.dll
 0001:0003be02       ?drawImage@QPainter@@QAEXHHABVQImage@@HHHHV?$QFlags@W4ImageConversionFlag@Qt@@@@@Z 1003ce02 f   QtGui4:QtGui4.dll
 0001:0003be08       ?setColor@QImage@@QAEXHI@Z 1003ce08 f   QtGui4:QtGui4.dll
 0001:0003be0e       ?setPixel@QImage@@QAEXHHI@Z 1003ce0e f   QtGui4:QtGui4.dll
 0001:0003be14       ??0QImage@@QAE@HHW4Format@0@@Z 1003ce14 f   QtGui4:QtGui4.dll
 0001:0003be1a       ??0QPainter@@QAE@PAVQPaintDevice@@@Z 1003ce1a f   QtGui4:QtGui4.dll
 0001:0003be20       ?devType@QImage@@UBEHXZ    1003ce20 f   QtGui4:QtGui4.dll
 0001:0003be26       ?paintEngine@QImage@@UBEPAVQPaintEngine@@XZ 1003ce26 f   QtGui4:QtGui4.dll
 0001:0003be2c       ?getDC@QPaintDevice@@UBEPAUHDC__@@XZ 1003ce2c f   QtGui4:QtGui4.dll
 0001:0003be32       ?releaseDC@QPaintDevice@@UBEXPAUHDC__@@@Z 1003ce32 f   QtGui4:QtGui4.dll
 0001:0003be38       ?metric@QImage@@MBEHW4PaintDeviceMetric@QPaintDevice@@@Z 1003ce38 f   QtGui4:QtGui4.dll
 0001:0003be3e       ??1QImage@@UAE@XZ          1003ce3e f   QtGui4:QtGui4.dll
 0001:0003be44       ??0QImage@@QAE@PBD0@Z      1003ce44 f   QtGui4:QtGui4.dll
 0001:0003be4a       ??0QImage@@QAE@ABVQString@@PBD@Z 1003ce4a f   QtGui4:QtGui4.dll
 0001:0003be50       ??1QPalette@@QAE@XZ        1003ce50 f   QtGui4:QtGui4.dll
 0001:0003be56       ??1QBrush@@QAE@XZ          1003ce56 f   QtGui4:QtGui4.dll
 0001:0003be5c       ??0QPlainTextEdit@@QAE@PAVQWidget@@@Z 1003ce5c f   QtGui4:QtGui4.dll
 0001:0003be62       ?setPalette@QWidget@@QAEXABVQPalette@@@Z 1003ce62 f   QtGui4:QtGui4.dll
 0001:0003be68       ?setBrush@QPalette@@QAEXW4ColorGroup@1@W4ColorRole@1@ABVQBrush@@@Z 1003ce68 f   QtGui4:QtGui4.dll
 0001:0003be6e       ?setStyle@QBrush@@QAEXW4BrushStyle@Qt@@@Z 1003ce6e f   QtGui4:QtGui4.dll
 0001:0003be74       ??0QBrush@@QAE@ABVQColor@@W4BrushStyle@Qt@@@Z 1003ce74 f   QtGui4:QtGui4.dll
 0001:0003be7a       ?setRgb@QColor@@QAEXHHHH@Z 1003ce7a f   QtGui4:QtGui4.dll
 0001:0003be80       ??0QPalette@@QAE@XZ        1003ce80 f   QtGui4:QtGui4.dll
 0001:0003be86       ??0QTextEdit@@QAE@PAVQWidget@@@Z 1003ce86 f   QtGui4:QtGui4.dll
 0001:0003be8c       ?setChecked@QAbstractButton@@QAEX_N@Z 1003ce8c f   QtGui4:QtGui4.dll
 0001:0003be92       ?metaObject@QTextEdit@@UBEPBUQMetaObject@@XZ 1003ce92 f   QtGui4:QtGui4.dll
 0001:0003be98       ?qt_metacast@QTextEdit@@UAEPAXPBD@Z 1003ce98 f   QtGui4:QtGui4.dll
 0001:0003be9e       ?qt_metacall@QTextEdit@@UAEHW4Call@QMetaObject@@HPAPAX@Z 1003ce9e f   QtGui4:QtGui4.dll
 0001:0003bea4       ?event@QTextEdit@@MAE_NPAVQEvent@@@Z 1003cea4 f   QtGui4:QtGui4.dll
 0001:0003beaa       ?mousePressEvent@QTextEdit@@MAEXPAVQMouseEvent@@@Z 1003ceaa f   QtGui4:QtGui4.dll
 0001:0003beb0       ?mouseReleaseEvent@QTextEdit@@MAEXPAVQMouseEvent@@@Z 1003ceb0 f   QtGui4:QtGui4.dll
 0001:0003beb6       ?mouseMoveEvent@QTextEdit@@MAEXPAVQMouseEvent@@@Z 1003ceb6 f   QtGui4:QtGui4.dll
 0001:0003bebc       ?keyPressEvent@QTextEdit@@MAEXPAVQKeyEvent@@@Z 1003cebc f   QtGui4:QtGui4.dll
 0001:0003bec2       ?focusOutEvent@QTextEdit@@MAEXPAVQFocusEvent@@@Z 1003cec2 f   QtGui4:QtGui4.dll
 0001:0003bec8       ?paintEvent@QTextEdit@@MAEXPAVQPaintEvent@@@Z 1003cec8 f   QtGui4:QtGui4.dll
 0001:0003bece       ?focusNextPrevChild@QTextEdit@@MAE_N_N@Z 1003cece f   QtGui4:QtGui4.dll
 0001:0003bed4       ?loadResource@QTextEdit@@UAE?AVQVariant@@HABVQUrl@@@Z 1003ced4 f   QtGui4:QtGui4.dll
 0001:0003beda       ?metaObject@QPlainTextEdit@@UBEPBUQMetaObject@@XZ 1003ceda f   QtGui4:QtGui4.dll
 0001:0003bee0       ?qt_metacast@QPlainTextEdit@@UAEPAXPBD@Z 1003cee0 f   QtGui4:QtGui4.dll
 0001:0003bee6       ?qt_metacall@QPlainTextEdit@@UAEHW4Call@QMetaObject@@HPAPAX@Z 1003cee6 f   QtGui4:QtGui4.dll
 0001:0003beec       ?event@QPlainTextEdit@@MAE_NPAVQEvent@@@Z 1003ceec f   QtGui4:QtGui4.dll
 0001:0003bef2       ?timerEvent@QPlainTextEdit@@MAEXPAVQTimerEvent@@@Z 1003cef2 f   QtGui4:QtGui4.dll
 0001:0003bef8       ?mousePressEvent@QPlainTextEdit@@MAEXPAVQMouseEvent@@@Z 1003cef8 f   QtGui4:QtGui4.dll
 0001:0003befe       ?mouseReleaseEvent@QPlainTextEdit@@MAEXPAVQMouseEvent@@@Z 1003cefe f   QtGui4:QtGui4.dll
 0001:0003bf04       ?mouseDoubleClickEvent@QPlainTextEdit@@MAEXPAVQMouseEvent@@@Z 1003cf04 f   QtGui4:QtGui4.dll
 0001:0003bf0a       ?mouseMoveEvent@QPlainTextEdit@@MAEXPAVQMouseEvent@@@Z 1003cf0a f   QtGui4:QtGui4.dll
 0001:0003bf10       ?wheelEvent@QPlainTextEdit@@MAEXPAVQWheelEvent@@@Z 1003cf10 f   QtGui4:QtGui4.dll
 0001:0003bf16       ?keyPressEvent@QPlainTextEdit@@MAEXPAVQKeyEvent@@@Z 1003cf16 f   QtGui4:QtGui4.dll
 0001:0003bf1c       ?keyReleaseEvent@QPlainTextEdit@@MAEXPAVQKeyEvent@@@Z 1003cf1c f   QtGui4:QtGui4.dll
 0001:0003bf22       ?focusInEvent@QPlainTextEdit@@MAEXPAVQFocusEvent@@@Z 1003cf22 f   QtGui4:QtGui4.dll
 0001:0003bf28       ?focusOutEvent@QPlainTextEdit@@MAEXPAVQFocusEvent@@@Z 1003cf28 f   QtGui4:QtGui4.dll
 0001:0003bf2e       ?paintEvent@QPlainTextEdit@@MAEXPAVQPaintEvent@@@Z 1003cf2e f   QtGui4:QtGui4.dll
 0001:0003bf34       ?resizeEvent@QPlainTextEdit@@MAEXPAVQResizeEvent@@@Z 1003cf34 f   QtGui4:QtGui4.dll
 0001:0003bf3a       ?contextMenuEvent@QPlainTextEdit@@MAEXPAVQContextMenuEvent@@@Z 1003cf3a f   QtGui4:QtGui4.dll
 0001:0003bf40       ?dragEnterEvent@QPlainTextEdit@@MAEXPAVQDragEnterEvent@@@Z 1003cf40 f   QtGui4:QtGui4.dll
 0001:0003bf46       ?dragMoveEvent@QPlainTextEdit@@MAEXPAVQDragMoveEvent@@@Z 1003cf46 f   QtGui4:QtGui4.dll
 0001:0003bf4c       ?dragLeaveEvent@QPlainTextEdit@@MAEXPAVQDragLeaveEvent@@@Z 1003cf4c f   QtGui4:QtGui4.dll
 0001:0003bf52       ?dropEvent@QPlainTextEdit@@MAEXPAVQDropEvent@@@Z 1003cf52 f   QtGui4:QtGui4.dll
 0001:0003bf58       ?showEvent@QPlainTextEdit@@MAEXPAVQShowEvent@@@Z 1003cf58 f   QtGui4:QtGui4.dll
 0001:0003bf5e       ?changeEvent@QPlainTextEdit@@MAEXPAVQEvent@@@Z 1003cf5e f   QtGui4:QtGui4.dll
 0001:0003bf64       ?inputMethodEvent@QPlainTextEdit@@MAEXPAVQInputMethodEvent@@@Z 1003cf64 f   QtGui4:QtGui4.dll
 0001:0003bf6a       ?inputMethodQuery@QPlainTextEdit@@MBE?AVQVariant@@W4InputMethodQuery@Qt@@@Z 1003cf6a f   QtGui4:QtGui4.dll
 0001:0003bf70       ?focusNextPrevChild@QPlainTextEdit@@MAE_N_N@Z 1003cf70 f   QtGui4:QtGui4.dll
 0001:0003bf76       ?scrollContentsBy@QPlainTextEdit@@MAEXHH@Z 1003cf76 f   QtGui4:QtGui4.dll
 0001:0003bf7c       ?loadResource@QPlainTextEdit@@UAE?AVQVariant@@HABVQUrl@@@Z 1003cf7c f   QtGui4:QtGui4.dll
 0001:0003bf82       ?createMimeDataFromSelection@QPlainTextEdit@@MBEPAVQMimeData@@XZ 1003cf82 f   QtGui4:QtGui4.dll
 0001:0003bf88       ?canInsertFromMimeData@QPlainTextEdit@@MBE_NPBVQMimeData@@@Z 1003cf88 f   QtGui4:QtGui4.dll
 0001:0003bf8e       ?insertFromMimeData@QPlainTextEdit@@MAEXPBVQMimeData@@@Z 1003cf8e f   QtGui4:QtGui4.dll
 0001:0003bf94       ??1QTextEdit@@UAE@XZ       1003cf94 f   QtGui4:QtGui4.dll
 0001:0003bf9a       ??1QPlainTextEdit@@UAE@XZ  1003cf9a f   QtGui4:QtGui4.dll
 0001:0003bfa0       ??1QPixmap@@UAE@XZ         1003cfa0 f   QtGui4:QtGui4.dll
 0001:0003bfa6       ?setPixmap@QLabel@@QAEXABVQPixmap@@@Z 1003cfa6 f   QtGui4:QtGui4.dll
 0001:0003bfac       ?fromImage@QPixmap@@SA?AV1@ABVQImage@@V?$QFlags@W4ImageConversionFlag@Qt@@@@@Z 1003cfac f   QtGui4:QtGui4.dll
 0001:0003bfb2       ??0QLabel@@QAE@ABVQString@@PAVQWidget@@V?$QFlags@W4WindowType@Qt@@@@@Z 1003cfb2 f   QtGui4:QtGui4.dll
 0001:0003bfb8       ??1QScrollArea@@UAE@XZ     1003cfb8 f   QtGui4:QtGui4.dll
 0001:0003bfbe       ?scrollBarWidgets@QAbstractScrollArea@@QAE?AV?$QList@PAVQWidget@@@@V?$QFlags@W4AlignmentFlag@Qt@@@@@Z 1003cfbe f   QtGui4:QtGui4.dll
 0001:0003bfc4       ?setWidget@QScrollArea@@QAEXPAVQWidget@@@Z 1003cfc4 f   QtGui4:QtGui4.dll
 0001:0003bfca       ??0QScrollArea@@QAE@PAVQWidget@@@Z 1003cfca f   QtGui4:QtGui4.dll
 0001:0003bfd0       ?event@QScrollArea@@MAE_NPAVQEvent@@@Z 1003cfd0 f   QtGui4:QtGui4.dll
 0001:0003bfd6       ?eventFilter@QScrollArea@@MAE_NPAVQObject@@PAVQEvent@@@Z 1003cfd6 f   QtGui4:QtGui4.dll
 0001:0003bfdc       ?sizeHint@QScrollArea@@UBE?AVQSize@@XZ 1003cfdc f   QtGui4:QtGui4.dll
 0001:0003bfe2       ?paintEvent@QAbstractScrollArea@@MAEXPAVQPaintEvent@@@Z 1003cfe2 f   QtGui4:QtGui4.dll
 0001:0003bfe8       ?resizeEvent@QScrollArea@@MAEXPAVQResizeEvent@@@Z 1003cfe8 f   QtGui4:QtGui4.dll
 0001:0003bfee       ?focusNextPrevChild@QScrollArea@@UAE_N_N@Z 1003cfee f   QtGui4:QtGui4.dll
 0001:0003bff4       ?scrollContentsBy@QScrollArea@@MAEXHH@Z 1003cff4 f   QtGui4:QtGui4.dll
 0001:0003bffa       ?setDisabled@QWidget@@QAEX_N@Z 1003cffa f   QtGui4:QtGui4.dll
 0001:0003c000       ?isChecked@QAbstractButton@@QBE_NXZ 1003d000 f   QtGui4:QtGui4.dll
 0001:0003c006       ?addWidget@QGridLayout@@QAEXPAVQWidget@@HHHHV?$QFlags@W4AlignmentFlag@Qt@@@@@Z 1003d006 f   QtGui4:QtGui4.dll
 0001:0003c00c       ??0QGridLayout@@QAE@PAVQWidget@@@Z 1003d00c f   QtGui4:QtGui4.dll
 0001:0003c012       ?metaObject@QGridLayout@@UBEPBUQMetaObject@@XZ 1003d012 f   QtGui4:QtGui4.dll
 0001:0003c018       ?qt_metacast@QGridLayout@@UAEPAXPBD@Z 1003d018 f   QtGui4:QtGui4.dll
 0001:0003c01e       ?qt_metacall@QGridLayout@@UAEHW4Call@QMetaObject@@HPAPAX@Z 1003d01e f   QtGui4:QtGui4.dll
 0001:0003c024       ?addItem@QGridLayout@@MAEXPAVQLayoutItem@@@Z 1003d024 f   QtGui4:QtGui4.dll
 0001:0003c02a       ?itemAt@QGridLayout@@UBEPAVQLayoutItem@@H@Z 1003d02a f   QtGui4:QtGui4.dll
 0001:0003c030       ?takeAt@QGridLayout@@UAEPAVQLayoutItem@@H@Z 1003d030 f   QtGui4:QtGui4.dll
 0001:0003c036       ?count@QGridLayout@@UBEHXZ 1003d036 f   QtGui4:QtGui4.dll
 0001:0003c03c       ?sizeHint@QGridLayout@@UBE?AVQSize@@XZ 1003d03c f   QtGui4:QtGui4.dll
 0001:0003c042       ?minimumSize@QGridLayout@@UBE?AVQSize@@XZ 1003d042 f   QtGui4:QtGui4.dll
 0001:0003c048       ?maximumSize@QGridLayout@@UBE?AVQSize@@XZ 1003d048 f   QtGui4:QtGui4.dll
 0001:0003c04e       ?expandingDirections@QGridLayout@@UBE?AV?$QFlags@W4Orientation@Qt@@@@XZ 1003d04e f   QtGui4:QtGui4.dll
 0001:0003c054       ?setGeometry@QGridLayout@@UAEXABVQRect@@@Z 1003d054 f   QtGui4:QtGui4.dll
 0001:0003c05a       ?hasHeightForWidth@QGridLayout@@UBE_NXZ 1003d05a f   QtGui4:QtGui4.dll
 0001:0003c060       ?heightForWidth@QGridLayout@@UBEHH@Z 1003d060 f   QtGui4:QtGui4.dll
 0001:0003c066       ?minimumHeightForWidth@QGridLayout@@UBEHH@Z 1003d066 f   QtGui4:QtGui4.dll
 0001:0003c06c       ?invalidate@QGridLayout@@UAEXXZ 1003d06c f   QtGui4:QtGui4.dll
 0001:0003c072       ??1QGridLayout@@UAE@XZ     1003d072 f   QtGui4:QtGui4.dll
 0001:0003c078       ?close@QWidget@@QAE_NXZ    1003d078 f   QtGui4:QtGui4.dll
 0001:0003c07e       ??0QComboBox@@QAE@PAVQWidget@@@Z 1003d07e f   QtGui4:QtGui4.dll
 0001:0003c084       ?metaObject@QComboBox@@UBEPBUQMetaObject@@XZ 1003d084 f   QtGui4:QtGui4.dll
 0001:0003c08a       ?qt_metacast@QComboBox@@UAEPAXPBD@Z 1003d08a f   QtGui4:QtGui4.dll
 0001:0003c090       ?qt_metacall@QComboBox@@UAEHW4Call@QMetaObject@@HPAPAX@Z 1003d090 f   QtGui4:QtGui4.dll
 0001:0003c096       ?event@QComboBox@@UAE_NPAVQEvent@@@Z 1003d096 f   QtGui4:QtGui4.dll
 0001:0003c09c       ?sizeHint@QComboBox@@UBE?AVQSize@@XZ 1003d09c f   QtGui4:QtGui4.dll
 0001:0003c0a2       ?minimumSizeHint@QComboBox@@UBE?AVQSize@@XZ 1003d0a2 f   QtGui4:QtGui4.dll
 0001:0003c0a8       ?mousePressEvent@QComboBox@@MAEXPAVQMouseEvent@@@Z 1003d0a8 f   QtGui4:QtGui4.dll
 0001:0003c0ae       ?mouseReleaseEvent@QComboBox@@MAEXPAVQMouseEvent@@@Z 1003d0ae f   QtGui4:QtGui4.dll
 0001:0003c0b4       ?wheelEvent@QComboBox@@MAEXPAVQWheelEvent@@@Z 1003d0b4 f   QtGui4:QtGui4.dll
 0001:0003c0ba       ?keyPressEvent@QComboBox@@MAEXPAVQKeyEvent@@@Z 1003d0ba f   QtGui4:QtGui4.dll
 0001:0003c0c0       ?keyReleaseEvent@QComboBox@@MAEXPAVQKeyEvent@@@Z 1003d0c0 f   QtGui4:QtGui4.dll
 0001:0003c0c6       ?focusInEvent@QComboBox@@MAEXPAVQFocusEvent@@@Z 1003d0c6 f   QtGui4:QtGui4.dll
 0001:0003c0cc       ?focusOutEvent@QComboBox@@MAEXPAVQFocusEvent@@@Z 1003d0cc f   QtGui4:QtGui4.dll
 0001:0003c0d2       ?paintEvent@QComboBox@@MAEXPAVQPaintEvent@@@Z 1003d0d2 f   QtGui4:QtGui4.dll
 0001:0003c0d8       ?resizeEvent@QComboBox@@MAEXPAVQResizeEvent@@@Z 1003d0d8 f   QtGui4:QtGui4.dll
 0001:0003c0de       ?contextMenuEvent@QComboBox@@MAEXPAVQContextMenuEvent@@@Z 1003d0de f   QtGui4:QtGui4.dll
 0001:0003c0e4       ?showEvent@QComboBox@@MAEXPAVQShowEvent@@@Z 1003d0e4 f   QtGui4:QtGui4.dll
 0001:0003c0ea       ?hideEvent@QComboBox@@MAEXPAVQHideEvent@@@Z 1003d0ea f   QtGui4:QtGui4.dll
 0001:0003c0f0       ?changeEvent@QComboBox@@MAEXPAVQEvent@@@Z 1003d0f0 f   QtGui4:QtGui4.dll
 0001:0003c0f6       ?inputMethodEvent@QComboBox@@MAEXPAVQInputMethodEvent@@@Z 1003d0f6 f   QtGui4:QtGui4.dll
 0001:0003c0fc       ?inputMethodQuery@QComboBox@@MBE?AVQVariant@@W4InputMethodQuery@Qt@@@Z 1003d0fc f   QtGui4:QtGui4.dll
 0001:0003c102       ?showPopup@QComboBox@@UAEXXZ 1003d102 f   QtGui4:QtGui4.dll
 0001:0003c108       ?hidePopup@QComboBox@@UAEXXZ 1003d108 f   QtGui4:QtGui4.dll
 0001:0003c10e       ??1QComboBox@@UAE@XZ       1003d10e f   QtGui4:QtGui4.dll
 0001:0003c114       ?insertItems@QComboBox@@QAEXHABVQStringList@@@Z 1003d114 f   QtGui4:QtGui4.dll
 0001:0003c11a       ?count@QComboBox@@QBEHXZ   1003d11a f   QtGui4:QtGui4.dll
 0001:0003c120       ?qt_metacast@QDialog@@UAEPAXPBD@Z 1003d120 f   QtGui4:QtGui4.dll
 0001:0003c126       ?qt_metacall@QDialog@@UAEHW4Call@QMetaObject@@HPAPAX@Z 1003d126 f   QtGui4:QtGui4.dll
 0001:0003c12c       ?qt_metacast@QScrollArea@@UAEPAXPBD@Z 1003d12c f   QtGui4:QtGui4.dll
 0001:0003c132       ?qt_metacall@QScrollArea@@UAEHW4Call@QMetaObject@@HPAPAX@Z 1003d132 f   QtGui4:QtGui4.dll
 0001:0003c140       ?isValid@Slot@@QBE_NXZ     1003d140 f i PlugInLib:ViewerShell.obj
 0001:0003c150       ??1Slot@@QAE@XZ            1003d150 f i PlugInLib:ViewerShell.obj
 0001:0003c170       ??0SlotWrapper@Slot@@QAE@XZ 1003d170 f i PlugInLib:ViewerShell.obj
 0001:0003c180       ??1PlugInCallback@@UAE@XZ  1003d180 f i PlugInLib:ViewerShell.obj
 0001:0003c190       ??_GPlugInCallback@@UAEPAXI@Z 1003d190 f i PlugInLib:ViewerShell.obj
 0001:0003c190       ??_EPlugInCallback@@UAEPAXI@Z 1003d190 f i PlugInLib:ViewerShell.obj
 0001:0003c1b0       ?getInputSpecification@ViewerShell@@UAE_NAAPAVPlugInArgList@@@Z 1003d1b0 f   PlugInLib:ViewerShell.obj
 0001:0003c1c0       ?getOutputSpecification@ViewerShell@@UAE_NAAPAVPlugInArgList@@@Z 1003d1c0 f   PlugInLib:ViewerShell.obj
 0001:0003c1d0       ??0PlugInCallback@@QAE@XZ  1003d1d0 f i PlugInLib:ViewerShell.obj
 0001:0003c1e0       ?cleanupWidget@ViewerShell@@QAEXAAVSubject@@ABV?$basic_string@DU?$char_traits@D@std@@V?$allocator@D@2@@std@@ABVany@boost@@@Z 1003d1e0 f   PlugInLib:ViewerShell.obj
 0001:0003c210       ??0?$EnumWrapper@W4PlugInCallbackTypeEnum@@@@QAE@ABW4PlugInCallbackTypeEnum@@@Z 1003d210 f i PlugInLib:ViewerShell.obj
 0001:0003c230       ??1?$EnumWrapper@W4PlugInCallbackTypeEnum@@@@QAE@XZ 1003d230 f i PlugInLib:ViewerShell.obj
 0001:0003c240       ?get@?$SafePtr@VApplicationServices@@@@QAEPAVApplicationServices@@XZ 1003d240 f i PlugInLib:ViewerShell.obj
 0001:0003c250       ?attach@?$SafePtr@VApplicationServices@@@@IAEXABV?$basic_string@DU?$char_traits@D@std@@V?$allocator@D@2@@std@@ABVSlot@@@Z 1003d250 f i PlugInLib:ViewerShell.obj
 0001:0003c270       ?detach@?$SafePtr@VApplicationServices@@@@IAEXABV?$basic_string@DU?$char_traits@D@std@@V?$allocator@D@2@@std@@ABVSlot@@@Z 1003d270 f i PlugInLib:ViewerShell.obj
 0001:0003c290       ??E?$_Vector_const_iterator@V?$_Vector_val@U?$pair@V?$basic_string@DU?$char_traits@D@std@@V?$allocator@D@2@@std@@VSlot@@@std@@V?$allocator@U?$pair@V?$basic_string@DU?$char_traits@D@std@@V?$allocator@D@2@@std@@VSlot@@@std@@@2@@std@@@std@@QAEAAV01@XZ 1003d290 f i PlugInLib:ViewerShell.obj
 0001:0003c2a0       ?_Inside@?$vector@U?$pair@V?$basic_string@DU?$char_traits@D@std@@V?$allocator@D@2@@std@@VSlot@@@std@@V?$allocator@U?$pair@V?$basic_string@DU?$char_traits@D@std@@V?$allocator@D@2@@std@@VSlot@@@std@@@2@@std@@IBE_NPBU?$pair@V?$basic_string@DU?$char_traits@D@std@@V?$allocator@D@2@@std@@VSlot@@@2@@Z 1003d2a0 f i PlugInLib:ViewerShell.obj
 0001:0003c2c0       ?_Orphan_range@?$vector@U?$pair@V?$basic_string@DU?$char_traits@D@std@@V?$allocator@D@2@@std@@VSlot@@@std@@V?$allocator@U?$pair@V?$basic_string@DU?$char_traits@D@std@@V?$allocator@D@2@@std@@VSlot@@@std@@@2@@std@@IBEXPAU?$pair@V?$basic_string@DU?$char_traits@D@std@@V?$allocator@D@2@@std@@VSlot@@@2@0@Z 1003d2c0 f i PlugInLib:ViewerShell.obj
 0001:0003c2d0       ??1?$_Vector_val@U?$pair@V?$basic_string@DU?$char_traits@D@std@@V?$allocator@D@2@@std@@VSlot@@@std@@V?$allocator@U?$pair@V?$basic_string@DU?$char_traits@D@std@@V?$allocator@D@2@@std@@VSlot@@@std@@@2@@std@@QAE@XZ 1003d2d0 f i PlugInLib:ViewerShell.obj
 0001:0003c2e0       ??0?$allocator@U?$pair@V?$basic_string@DU?$char_traits@D@std@@V?$allocator@D@2@@std@@VSlot@@@std@@@std@@QAE@XZ 1003d2e0 f i PlugInLib:ViewerShell.obj
 0001:0003c2f0       ?subjectDeleted@?$SafePtr@VApplicationServices@@@@AAEXAAVSubject@@ABV?$basic_string@DU?$char_traits@D@std@@V?$allocator@D@2@@std@@ABVany@boost@@@Z 1003d2f0 f i PlugInLib:ViewerShell.obj
 0001:0003c310       ??D?$_Vector_const_iterator@V?$_Vector_val@U?$pair@V?$basic_string@DU?$char_traits@D@std@@V?$allocator@D@2@@std@@VSlot@@@std@@V?$allocator@U?$pair@V?$basic_string@DU?$char_traits@D@std@@V?$allocator@D@2@@std@@VSlot@@@std@@@2@@std@@@std@@QBEABU?$pair@V?$basic_string@DU?$char_traits@D@std@@V?$allocator@D@2@@std@@VSlot@@@1@XZ 1003d310 f i PlugInLib:ViewerShell.obj
 0001:0003c320       ?capacity@?$vector@U?$pair@V?$basic_string@DU?$char_traits@D@std@@V?$allocator@D@2@@std@@VSlot@@@std@@V?$allocator@U?$pair@V?$basic_string@DU?$char_traits@D@std@@V?$allocator@D@2@@std@@VSlot@@@std@@@2@@std@@QBEIXZ 1003d320 f i PlugInLib:ViewerShell.obj
 0001:0003c330       ?size@?$vector@U?$pair@V?$basic_string@DU?$char_traits@D@std@@V?$allocator@D@2@@std@@VSlot@@@std@@V?$allocator@U?$pair@V?$basic_string@DU?$char_traits@D@std@@V?$allocator@D@2@@std@@VSlot@@@std@@@2@@std@@QBEIXZ 1003d330 f i PlugInLib:ViewerShell.obj
 0001:0003c340       ?_Xlen@?$vector@U?$pair@V?$basic_string@DU?$char_traits@D@std@@V?$allocator@D@2@@std@@VSlot@@@std@@V?$allocator@U?$pair@V?$basic_string@DU?$char_traits@D@std@@V?$allocator@D@2@@std@@VSlot@@@std@@@2@@std@@IBEXXZ 1003d340 f i PlugInLib:ViewerShell.obj
 0001:0003c350       ??0?$allocator@U?$pair@V?$basic_string@DU?$char_traits@D@std@@V?$allocator@D@2@@std@@VSlot@@@std@@@std@@QAE@ABV01@@Z 1003d350 f i PlugInLib:ViewerShell.obj
 0001:0003c360       ?deallocate@?$allocator@U?$pair@V?$basic_string@DU?$char_traits@D@std@@V?$allocator@D@2@@std@@VSlot@@@std@@@std@@QAEXPAU?$pair@V?$basic_string@DU?$char_traits@D@std@@V?$allocator@D@2@@std@@VSlot@@@2@I@Z 1003d360 f i PlugInLib:ViewerShell.obj
 0001:0003c370       ??0?$_Vector_const_iterator@V?$_Vector_val@U?$pair@V?$basic_string@DU?$char_traits@D@std@@V?$allocator@D@2@@std@@VSlot@@@std@@V?$allocator@U?$pair@V?$basic_string@DU?$char_traits@D@std@@V?$allocator@D@2@@std@@VSlot@@@std@@@2@@std@@@std@@QAE@PAU?$pair@V?$basic_string@DU?$char_traits@D@std@@V?$allocator@D@2@@std@@VSlot@@@1@PBU_Container_base0@1@@Z 1003d370 f i PlugInLib:ViewerShell.obj
 0001:0003c380       ?_Compat@?$_Vector_const_iterator@V?$_Vector_val@U?$pair@V?$basic_string@DU?$char_traits@D@std@@V?$allocator@D@2@@std@@VSlot@@@std@@V?$allocator@U?$pair@V?$basic_string@DU?$char_traits@D@std@@V?$allocator@D@2@@std@@VSlot@@@std@@@2@@std@@@std@@QBEXABV12@@Z 1003d380 f i PlugInLib:ViewerShell.obj
 0001:0003c390       ?max_size@?$allocator@U?$pair@V?$basic_string@DU?$char_traits@D@std@@V?$allocator@D@2@@std@@VSlot@@@std@@@std@@QBEIXZ 1003d390 f i PlugInLib:ViewerShell.obj
 0001:0003c3a0       ??$addressof@U?$pair@V?$basic_string@DU?$char_traits@D@std@@V?$allocator@D@2@@std@@VSlot@@@std@@@std@@YAPAU?$pair@V?$basic_string@DU?$char_traits@D@std@@V?$allocator@D@2@@std@@VSlot@@@0@AAU10@@Z 1003d3a0 f i PlugInLib:ViewerShell.obj
 0001:0003c3b0       ??$forward@U?$pair@V?$basic_string@DU?$char_traits@D@std@@V?$allocator@D@2@@std@@VSlot@@@std@@@std@@YA$$QAU?$pair@V?$basic_string@DU?$char_traits@D@std@@V?$allocator@D@2@@std@@VSlot@@@0@AAU10@@Z 1003d3b0 f i PlugInLib:ViewerShell.obj
 0001:0003c3c0       ??$_Allocate@U?$pair@V?$basic_string@DU?$char_traits@D@std@@V?$allocator@D@2@@std@@VSlot@@@std@@@std@@YAPAU?$pair@V?$basic_string@DU?$char_traits@D@std@@V?$allocator@D@2@@std@@VSlot@@@0@IPAU10@@Z 1003d3c0 f i PlugInLib:ViewerShell.obj
 0001:0003c420       ??0?$SlotValue@VViewerShell@@@Slot@@QAE@PAVViewerShell@@P82@AEXAAVSubject@@ABV?$basic_string@DU?$char_traits@D@std@@V?$allocator@D@2@@std@@ABVany@boost@@@Z@Z 1003d420 f i PlugInLib:ViewerShell.obj
 0001:0003c440       ??1?$SlotValue@VViewerShell@@@Slot@@UAE@XZ 1003d440 f i PlugInLib:ViewerShell.obj
 0001:0003c450       ?callAttachMethod@?$SlotValue@VViewerShell@@@Slot@@UAEXAAVSubject@@ABV?$basic_string@DU?$char_traits@D@std@@V?$allocator@D@2@@std@@ABV2@@Z 1003d450 f i PlugInLib:ViewerShell.obj
 0001:0003c480       ?callDetachMethod@?$SlotValue@VViewerShell@@@Slot@@UAEXAAVSubject@@ABV?$basic_string@DU?$char_traits@D@std@@V?$allocator@D@2@@std@@ABV2@@Z 1003d480 f i PlugInLib:ViewerShell.obj
 0001:0003c4b0       ?clone@?$SlotValue@VViewerShell@@@Slot@@UBEPAVSlotWrapper@2@XZ 1003d4b0 f i PlugInLib:ViewerShell.obj
 0001:0003c4e0       ?getType@?$SlotValue@VViewerShell@@@Slot@@UBEABVtype_info@@XZ 1003d4e0 f i PlugInLib:ViewerShell.obj
 0001:0003c4f0       ?matches@?$SlotValue@VViewerShell@@@Slot@@UBE_NABVSlotWrapper@2@@Z 1003d4f0 f i PlugInLib:ViewerShell.obj
 0001:0003c550       ??0?$SlotValue@V?$SafePtr@VApplicationServices@@@@@Slot@@QAE@PAV?$SafePtr@VApplicationServices@@@@P82@AEXAAVSubject@@ABV?$basic_string@DU?$char_traits@D@std@@V?$allocator@D@2@@std@@ABVany@boost@@@Z@Z 1003d550 f i PlugInLib:ViewerShell.obj
 0001:0003c570       ??1?$SlotValue@V?$SafePtr@VApplicationServices@@@@@Slot@@UAE@XZ 1003d570 f i PlugInLib:ViewerShell.obj
 0001:0003c580       ?callAttachMethod@?$SlotValue@V?$SafePtr@VApplicationServices@@@@@Slot@@UAEXAAVSubject@@ABV?$basic_string@DU?$char_traits@D@std@@V?$allocator@D@2@@std@@ABV2@@Z 1003d580 f i PlugInLib:ViewerShell.obj
 0001:0003c5b0       ?callDetachMethod@?$SlotValue@V?$SafePtr@VApplicationServices@@@@@Slot@@UAEXAAVSubject@@ABV?$basic_string@DU?$char_traits@D@std@@V?$allocator@D@2@@std@@ABV2@@Z 1003d5b0 f i PlugInLib:ViewerShell.obj
 0001:0003c5e0       ?clone@?$SlotValue@V?$SafePtr@VApplicationServices@@@@@Slot@@UBEPAVSlotWrapper@2@XZ 1003d5e0 f i PlugInLib:ViewerShell.obj
 0001:0003c610       ?getType@?$SlotValue@V?$SafePtr@VApplicationServices@@@@@Slot@@UBEABVtype_info@@XZ 1003d610 f i PlugInLib:ViewerShell.obj
 0001:0003c620       ?matches@?$SlotValue@V?$SafePtr@VApplicationServices@@@@@Slot@@UBE_NABVSlotWrapper@2@@Z 1003d620 f i PlugInLib:ViewerShell.obj
 0001:0003c670       ??_G?$SlotValue@VViewerShell@@@Slot@@UAEPAXI@Z 1003d670 f i PlugInLib:ViewerShell.obj
 0001:0003c670       ??_E?$SlotValue@VViewerShell@@@Slot@@UAEPAXI@Z 1003d670 f i PlugInLib:ViewerShell.obj
 0001:0003c690       ??_G?$SlotValue@V?$SafePtr@VApplicationServices@@@@@Slot@@UAEPAXI@Z 1003d690 f i PlugInLib:ViewerShell.obj
 0001:0003c690       ??_E?$SlotValue@V?$SafePtr@VApplicationServices@@@@@Slot@@UAEPAXI@Z 1003d690 f i PlugInLib:ViewerShell.obj
 0001:0003c6b0       ??$_Ptr_cat@U?$pair@V?$basic_string@DU?$char_traits@D@std@@V?$allocator@D@2@@std@@VSlot@@@std@@U12@@std@@YA?AU_Nonscalar_ptr_iterator_tag@0@PAU?$pair@V?$basic_string@DU?$char_traits@D@std@@V?$allocator@D@2@@std@@VSlot@@@0@0@Z 1003d6b0 f i PlugInLib:ViewerShell.obj
 0001:0003c6c0       ??$move@AAVSlot@@@std@@YA$$QAVSlot@@AAV1@@Z 1003d6c0 f i PlugInLib:ViewerShell.obj
 0001:0003c6d0       ??$forward@VSlot@@@std@@YA$$QAVSlot@@AAV1@@Z 1003d6d0 f i PlugInLib:ViewerShell.obj
 0001:0003c6e0       ??$_Val_type@PAU?$pair@V?$basic_string@DU?$char_traits@D@std@@V?$allocator@D@2@@std@@VSlot@@@std@@@std@@YAPAU?$pair@V?$basic_string@DU?$char_traits@D@std@@V?$allocator@D@2@@std@@VSlot@@@0@PAU10@@Z 1003d6e0 f i PlugInLib:ViewerShell.obj
 0001:0003c6f0       ??0Slot@@QAE@ABV0@@Z       1003d6f0 f i PlugInLib:ViewerShell.obj
 0001:0003c720       ??0ViewerCallback@@QAE@PAVPlugIn@@PAVQWidget@@@Z 1003d720 f i PlugInLib:ViewerShell.obj
 0001:0003c740       ??1ViewerCallback@@UAE@XZ  1003d740 f i PlugInLib:ViewerShell.obj
 0001:0003c750       ??RViewerCallback@@UAEXXZ  1003d750 f i PlugInLib:ViewerShell.obj
 0001:0003c780       ?finish@ViewerCallback@@UAE_NXZ 1003d780 f i PlugInLib:ViewerShell.obj
 0001:0003c790       ?getPlugIn@ViewerCallback@@UBEPAVPlugIn@@XZ 1003d790 f i PlugInLib:ViewerShell.obj
 0001:0003c7a0       ?progress@ViewerCallback@@UBEPAVProgress@@XZ 1003d7a0 f i PlugInLib:ViewerShell.obj
 0001:0003c7b0       ??_GViewerCallback@@UAEPAXI@Z 1003d7b0 f i PlugInLib:ViewerShell.obj
 0001:0003c7b0       ??_EViewerCallback@@UAEPAXI@Z 1003d7b0 f i PlugInLib:ViewerShell.obj
 0001:0003c7d0       ?abort@ViewerShell@@UAE_NXZ 1003d7d0 f   PlugInLib:ViewerShell.obj
 0001:0003c8a0       ??C?$_Vector_const_iterator@V?$_Vector_val@U?$pair@V?$basic_string@DU?$char_traits@D@std@@V?$allocator@D@2@@std@@VSlot@@@std@@V?$allocator@U?$pair@V?$basic_string@DU?$char_traits@D@std@@V?$allocator@D@2@@std@@VSlot@@@std@@@2@@std@@@std@@QBEPBU?$pair@V?$basic_string@DU?$char_traits@D@std@@V?$allocator@D@2@@std@@VSlot@@@1@XZ 1003d8a0 f i PlugInLib:ViewerShell.obj
 0001:0003c8b0       ??0?$_Vector_val@U?$pair@V?$basic_string@DU?$char_traits@D@std@@V?$allocator@D@2@@std@@VSlot@@@std@@V?$allocator@U?$pair@V?$basic_string@DU?$char_traits@D@std@@V?$allocator@D@2@@std@@VSlot@@@std@@@2@@std@@QAE@V?$allocator@U?$pair@V?$basic_string@DU?$char_traits@D@std@@V?$allocator@D@2@@std@@VSlot@@@std@@@1@@Z 1003d8b0 f i PlugInLib:ViewerShell.obj
 0001:0003c8c0       ??8?$_Vector_const_iterator@V?$_Vector_val@U?$pair@V?$basic_string@DU?$char_traits@D@std@@V?$allocator@D@2@@std@@VSlot@@@std@@V?$allocator@U?$pair@V?$basic_string@DU?$char_traits@D@std@@V?$allocator@D@2@@std@@VSlot@@@std@@@2@@std@@@std@@QBE_NABV01@@Z 1003d8c0 f i PlugInLib:ViewerShell.obj
 0001:0003c8d0       ??0?$_Vector_iterator@V?$_Vector_val@U?$pair@V?$basic_string@DU?$char_traits@D@std@@V?$allocator@D@2@@std@@VSlot@@@std@@V?$allocator@U?$pair@V?$basic_string@DU?$char_traits@D@std@@V?$allocator@D@2@@std@@VSlot@@@std@@@2@@std@@@std@@QAE@PAU?$pair@V?$basic_string@DU?$char_traits@D@std@@V?$allocator@D@2@@std@@VSlot@@@1@PBU_Container_base0@1@@Z 1003d8d0 f i PlugInLib:ViewerShell.obj
 0001:0003c8e0       ?max_size@?$vector@U?$pair@V?$basic_string@DU?$char_traits@D@std@@V?$allocator@D@2@@std@@VSlot@@@std@@V?$allocator@U?$pair@V?$basic_string@DU?$char_traits@D@std@@V?$allocator@D@2@@std@@VSlot@@@std@@@2@@std@@QBEIXZ 1003d8e0 f i PlugInLib:ViewerShell.obj
 0001:0003c8f0       ?_Grow_to@?$vector@U?$pair@V?$basic_string@DU?$char_traits@D@std@@V?$allocator@D@2@@std@@VSlot@@@std@@V?$allocator@U?$pair@V?$basic_string@DU?$char_traits@D@std@@V?$allocator@D@2@@std@@VSlot@@@std@@@2@@std@@IBEII@Z 1003d8f0 f i PlugInLib:ViewerShell.obj
 0001:0003c920       ?allocate@?$allocator@U?$pair@V?$basic_string@DU?$char_traits@D@std@@V?$allocator@D@2@@std@@VSlot@@@std@@@std@@QAEPAU?$pair@V?$basic_string@DU?$char_traits@D@std@@V?$allocator@D@2@@std@@VSlot@@@2@I@Z 1003d920 f i PlugInLib:ViewerShell.obj
 0001:0003c980       ??$?0VViewerShell@@P80@AEXAAVSubject@@ABV?$basic_string@DU?$char_traits@D@std@@V?$allocator@D@2@@std@@ABVany@boost@@@Z@Slot@@QAE@PAVViewerShell@@P81@AEXAAVSubject@@ABV?$basic_string@DU?$char_traits@D@std@@V?$allocator@D@2@@std@@ABVany@boost@@@Z@Z 1003d980 f i PlugInLib:ViewerShell.obj
 0001:0003c9f0       ??$?0V?$SafePtr@VApplicationServices@@@@P80@AEXAAVSubject@@ABV?$basic_string@DU?$char_traits@D@std@@V?$allocator@D@2@@std@@ABVany@boost@@@Z@Slot@@QAE@PAV?$SafePtr@VApplicationServices@@@@P81@AEXAAVSubject@@ABV?$basic_string@DU?$char_traits@D@std@@V?$allocator@D@2@@std@@ABVany@boost@@@Z@Z 1003d9f0 f i PlugInLib:ViewerShell.obj
 0001:0003ca60       ??0?$vector@U?$pair@V?$basic_string@DU?$char_traits@D@std@@V?$allocator@D@2@@std@@VSlot@@@std@@V?$allocator@U?$pair@V?$basic_string@DU?$char_traits@D@std@@V?$allocator@D@2@@std@@VSlot@@@std@@@2@@std@@QAE@XZ 1003da60 f i PlugInLib:ViewerShell.obj
 0001:0003ca70       ?begin@?$vector@U?$pair@V?$basic_string@DU?$char_traits@D@std@@V?$allocator@D@2@@std@@VSlot@@@std@@V?$allocator@U?$pair@V?$basic_string@DU?$char_traits@D@std@@V?$allocator@D@2@@std@@VSlot@@@std@@@2@@std@@QAE?AV?$_Vector_iterator@V?$_Vector_val@U?$pair@V?$basic_string@DU?$char_traits@D@std@@V?$allocator@D@2@@std@@VSlot@@@std@@V?$allocator@U?$pair@V?$basic_string@DU?$char_traits@D@std@@V?$allocator@D@2@@std@@VSlot@@@std@@@2@@std@@@2@XZ 1003da70 f i PlugInLib:ViewerShell.obj
 0001:0003ca80       ?end@?$vector@U?$pair@V?$basic_string@DU?$char_traits@D@std@@V?$allocator@D@2@@std@@VSlot@@@std@@V?$allocator@U?$pair@V?$basic_string@DU?$char_traits@D@std@@V?$allocator@D@2@@std@@VSlot@@@std@@@2@@std@@QAE?AV?$_Vector_iterator@V?$_Vector_val@U?$pair@V?$basic_string@DU?$char_traits@D@std@@V?$allocator@D@2@@std@@VSlot@@@std@@V?$allocator@U?$pair@V?$basic_string@DU?$char_traits@D@std@@V?$allocator@D@2@@std@@VSlot@@@std@@@2@@std@@@2@XZ 1003da80 f i PlugInLib:ViewerShell.obj
 0001:0003ca90       ??9?$_Vector_const_iterator@V?$_Vector_val@U?$pair@V?$basic_string@DU?$char_traits@D@std@@V?$allocator@D@2@@std@@VSlot@@@std@@V?$allocator@U?$pair@V?$basic_string@DU?$char_traits@D@std@@V?$allocator@D@2@@std@@VSlot@@@std@@@2@@std@@@std@@QBE_NABV01@@Z 1003da90 f i PlugInLib:ViewerShell.obj
 0001:0003caa0       ??1?$_Pair_base@V?$basic_string@DU?$char_traits@D@std@@V?$allocator@D@2@@std@@VSlot@@@std@@QAE@XZ 1003daa0 f i PlugInLib:ViewerShell.obj
 0001:0003cae0       ??1?$pair@V?$basic_string@DU?$char_traits@D@std@@V?$allocator@D@2@@std@@VSlot@@@std@@QAE@XZ 1003dae0 f i PlugInLib:ViewerShell.obj
 0001:0003cb20       ??_G?$pair@V?$basic_string@DU?$char_traits@D@std@@V?$allocator@D@2@@std@@VSlot@@@std@@QAEPAXI@Z 1003db20 f i PlugInLib:ViewerShell.obj
 0001:0003cb80       ?update@?$SlotValue@VViewerShell@@@Slot@@UBEXAAVSubject@@ABV?$basic_string@DU?$char_traits@D@std@@V?$allocator@D@2@@std@@ABVany@boost@@@Z 1003db80 f i PlugInLib:ViewerShell.obj
 0001:0003cc20       ?update@?$SlotValue@V?$SafePtr@VApplicationServices@@@@@Slot@@UBEXAAVSubject@@ABV?$basic_string@DU?$char_traits@D@std@@V?$allocator@D@2@@std@@ABVany@boost@@@Z 1003dc20 f i PlugInLib:ViewerShell.obj
 0001:0003ccc0       ??$_Destroy@U?$pair@V?$basic_string@DU?$char_traits@D@std@@V?$allocator@D@2@@std@@VSlot@@@std@@@std@@YAXPAU?$pair@V?$basic_string@DU?$char_traits@D@std@@V?$allocator@D@2@@std@@VSlot@@@0@@Z 1003dcc0 f i PlugInLib:ViewerShell.obj
 0001:0003cd00       ?signalDeleted@Subject@@SAABV?$basic_string@DU?$char_traits@D@std@@V?$allocator@D@2@@std@@XZ 1003dd00 f i PlugInLib:ViewerShell.obj
 0001:0003cd80       ?signalSessionClosed@ApplicationServices@@SAABV?$basic_string@DU?$char_traits@D@std@@V?$allocator@D@2@@std@@XZ 1003dd80 f i PlugInLib:ViewerShell.obj
 0001:0003ce00       ?ViewerType@PlugInManagerServices@@SA?AV?$basic_string@DU?$char_traits@D@std@@V?$allocator@D@2@@std@@XZ 1003de00 f i PlugInLib:ViewerShell.obj
 0001:0003ce30       ?detachFromDeleted@?$SafePtr@VApplicationServices@@@@AAEXXZ 1003de30 f i PlugInLib:ViewerShell.obj
 0001:0003cef0       ?attachToDeleted@?$SafePtr@VApplicationServices@@@@AAEXXZ 1003def0 f i PlugInLib:ViewerShell.obj
 0001:0003cfb0       ?destroy@?$allocator@U?$pair@V?$basic_string@DU?$char_traits@D@std@@V?$allocator@D@2@@std@@VSlot@@@std@@@std@@QAEXPAU?$pair@V?$basic_string@DU?$char_traits@D@std@@V?$allocator@D@2@@std@@VSlot@@@2@@Z 1003dfb0 f i PlugInLib:ViewerShell.obj
 0001:0003d000       ??1?$SafePtr@VApplicationServices@@@@UAE@XZ 1003e000 f i PlugInLib:ViewerShell.obj
 0001:0003d020       ??_G?$SafePtr@VApplicationServices@@@@UAEPAXI@Z 1003e020 f i PlugInLib:ViewerShell.obj
 0001:0003d020       ??_E?$SafePtr@VApplicationServices@@@@UAEPAXI@Z 1003e020 f i PlugInLib:ViewerShell.obj
 0001:0003d050       ??0?$SafePtr@VApplicationServices@@@@QAE@PAVApplicationServices@@@Z 1003e050 f i PlugInLib:ViewerShell.obj
 0001:0003d070       ?reset@?$SafePtr@VApplicationServices@@@@QAEXPAVApplicationServices@@@Z 1003e070 f i PlugInLib:ViewerShell.obj
 0001:0003d0a0       ??0?$_Pair_base@V?$basic_string@DU?$char_traits@D@std@@V?$allocator@D@2@@std@@VSlot@@@std@@QAE@$$QAV?$basic_string@DU?$char_traits@D@std@@V?$allocator@D@2@@1@$$QAVSlot@@@Z 1003e0a0 f i PlugInLib:ViewerShell.obj
 0001:0003d110       ??$?0V?$basic_string@DU?$char_traits@D@std@@V?$allocator@D@2@@std@@VSlot@@@?$pair@V?$basic_string@DU?$char_traits@D@std@@V?$allocator@D@2@@std@@VSlot@@@std@@QAE@$$QAU01@@Z 1003e110 f i PlugInLib:ViewerShell.obj
 0001:0003d180       ??$_Dest_val@V?$allocator@U?$pair@V?$basic_string@DU?$char_traits@D@std@@V?$allocator@D@2@@std@@VSlot@@@std@@@std@@U?$pair@V?$basic_string@DU?$char_traits@D@std@@V?$allocator@D@2@@std@@VSlot@@@2@@std@@YAXAAV?$allocator@U?$pair@V?$basic_string@DU?$char_traits@D@std@@V?$allocator@D@2@@std@@VSlot@@@std@@@0@PAU?$pair@V?$basic_string@DU?$char_traits@D@std@@V?$allocator@D@2@@std@@VSlot@@@0@@Z 1003e180 f i PlugInLib:ViewerShell.obj
 0001:0003d1c0       ?reset@?$AttachmentPtr@VApplicationServices@@@@QAEXPAVApplicationServices@@@Z 1003e1c0 f i PlugInLib:ViewerShell.obj
 0001:0003d240       ?construct@?$allocator@U?$pair@V?$basic_string@DU?$char_traits@D@std@@V?$allocator@D@2@@std@@VSlot@@@std@@@std@@QAEXPAU?$pair@V?$basic_string@DU?$char_traits@D@std@@V?$allocator@D@2@@std@@VSlot@@@2@$$QAU32@@Z 1003e240 f i PlugInLib:ViewerShell.obj
 0001:0003d2c0       ??0?$pair@V?$basic_string@DU?$char_traits@D@std@@V?$allocator@D@2@@std@@VSlot@@@std@@QAE@$$QAV?$basic_string@DU?$char_traits@D@std@@V?$allocator@D@2@@1@$$QAVSlot@@@Z 1003e2c0 f i PlugInLib:ViewerShell.obj
 0001:0003d330       ??$_Destroy_range@V?$allocator@U?$pair@V?$basic_string@DU?$char_traits@D@std@@V?$allocator@D@2@@std@@VSlot@@@std@@@std@@@std@@YAXPAU?$pair@V?$basic_string@DU?$char_traits@D@std@@V?$allocator@D@2@@std@@VSlot@@@0@0AAV?$allocator@U?$pair@V?$basic_string@DU?$char_traits@D@std@@V?$allocator@D@2@@std@@VSlot@@@std@@@0@U_Nonscalar_ptr_iterator_tag@0@@Z 1003e330 f i PlugInLib:ViewerShell.obj
 0001:0003d390       ??$make_pair@V?$basic_string@DU?$char_traits@D@std@@V?$allocator@D@2@@std@@VSlot@@@std@@YA?AU?$pair@V?$basic_string@DU?$char_traits@D@std@@V?$allocator@D@2@@std@@VSlot@@@0@ABV?$basic_string@DU?$char_traits@D@std@@V?$allocator@D@2@@0@ABVSlot@@@Z 1003e390 f i PlugInLib:ViewerShell.obj
 0001:0003d480       ??$_Cons_val@V?$allocator@U?$pair@V?$basic_string@DU?$char_traits@D@std@@V?$allocator@D@2@@std@@VSlot@@@std@@@std@@U?$pair@V?$basic_string@DU?$char_traits@D@std@@V?$allocator@D@2@@std@@VSlot@@@2@U32@@std@@YAXAAV?$allocator@U?$pair@V?$basic_string@DU?$char_traits@D@std@@V?$allocator@D@2@@std@@VSlot@@@std@@@0@PAU?$pair@V?$basic_string@DU?$char_traits@D@std@@V?$allocator@D@2@@std@@VSlot@@@0@$$QAU20@@Z 1003e480 f i PlugInLib:ViewerShell.obj
 0001:0003d500       ??$_Destroy_range@V?$allocator@U?$pair@V?$basic_string@DU?$char_traits@D@std@@V?$allocator@D@2@@std@@VSlot@@@std@@@std@@@std@@YAXPAU?$pair@V?$basic_string@DU?$char_traits@D@std@@V?$allocator@D@2@@std@@VSlot@@@0@0AAV?$allocator@U?$pair@V?$basic_string@DU?$char_traits@D@std@@V?$allocator@D@2@@std@@VSlot@@@std@@@0@@Z 1003e500 f i PlugInLib:ViewerShell.obj
 0001:0003d520       ??$_Uninit_move@PAU?$pair@V?$basic_string@DU?$char_traits@D@std@@V?$allocator@D@2@@std@@VSlot@@@std@@PAU12@V?$allocator@U?$pair@V?$basic_string@DU?$char_traits@D@std@@V?$allocator@D@2@@std@@VSlot@@@std@@@2@U12@@std@@YAPAU?$pair@V?$basic_string@DU?$char_traits@D@std@@V?$allocator@D@2@@std@@VSlot@@@0@PAU10@00AAV?$allocator@U?$pair@V?$basic_string@DU?$char_traits@D@std@@V?$allocator@D@2@@std@@VSlot@@@std@@@0@0U_Nonscalar_ptr_iterator_tag@0@@Z 1003e520 f i PlugInLib:ViewerShell.obj
 0001:0003d5e0       ?_Destroy@?$vector@U?$pair@V?$basic_string@DU?$char_traits@D@std@@V?$allocator@D@2@@std@@VSlot@@@std@@V?$allocator@U?$pair@V?$basic_string@DU?$char_traits@D@std@@V?$allocator@D@2@@std@@VSlot@@@std@@@2@@std@@IAEXPAU?$pair@V?$basic_string@DU?$char_traits@D@std@@V?$allocator@D@2@@std@@VSlot@@@2@0@Z 1003e5e0 f i PlugInLib:ViewerShell.obj
 0001:0003d600       ??$_Uninitialized_move@PAU?$pair@V?$basic_string@DU?$char_traits@D@std@@V?$allocator@D@2@@std@@VSlot@@@std@@PAU12@V?$allocator@U?$pair@V?$basic_string@DU?$char_traits@D@std@@V?$allocator@D@2@@std@@VSlot@@@std@@@2@@std@@YAPAU?$pair@V?$basic_string@DU?$char_traits@D@std@@V?$allocator@D@2@@std@@VSlot@@@0@PAU10@00AAV?$allocator@U?$pair@V?$basic_string@DU?$char_traits@D@std@@V?$allocator@D@2@@std@@VSlot@@@std@@@0@@Z 1003e600 f i PlugInLib:ViewerShell.obj
 0001:0003d630       ?_Tidy@?$vector@U?$pair@V?$basic_string@DU?$char_traits@D@std@@V?$allocator@D@2@@std@@VSlot@@@std@@V?$allocator@U?$pair@V?$basic_string@DU?$char_traits@D@std@@V?$allocator@D@2@@std@@VSlot@@@std@@@2@@std@@IAEXXZ 1003e630 f i PlugInLib:ViewerShell.obj
 0001:0003d670       ??$_Umove@PAU?$pair@V?$basic_string@DU?$char_traits@D@std@@V?$allocator@D@2@@std@@VSlot@@@std@@@?$vector@U?$pair@V?$basic_string@DU?$char_traits@D@std@@V?$allocator@D@2@@std@@VSlot@@@std@@V?$allocator@U?$pair@V?$basic_string@DU?$char_traits@D@std@@V?$allocator@D@2@@std@@VSlot@@@std@@@2@@std@@IAEPAU?$pair@V?$basic_string@DU?$char_traits@D@std@@V?$allocator@D@2@@std@@VSlot@@@1@PAU21@00@Z 1003e670 f i PlugInLib:ViewerShell.obj
 0001:0003d6a0       ??1?$vector@U?$pair@V?$basic_string@DU?$char_traits@D@std@@V?$allocator@D@2@@std@@VSlot@@@std@@V?$allocator@U?$pair@V?$basic_string@DU?$char_traits@D@std@@V?$allocator@D@2@@std@@VSlot@@@std@@@2@@std@@QAE@XZ 1003e6a0 f i PlugInLib:ViewerShell.obj
 0001:0003d6e0       ?reserve@?$vector@U?$pair@V?$basic_string@DU?$char_traits@D@std@@V?$allocator@D@2@@std@@VSlot@@@std@@V?$allocator@U?$pair@V?$basic_string@DU?$char_traits@D@std@@V?$allocator@D@2@@std@@VSlot@@@std@@@2@@std@@QAEXI@Z 1003e6e0 f i PlugInLib:ViewerShell.obj
 0001:0003d7c0       ??0?$AttachmentPtr@VApplicationServices@@@@QAE@XZ 1003e7c0 f i PlugInLib:ViewerShell.obj
 0001:0003d7f0       ??1?$AttachmentPtr@VApplicationServices@@@@UAE@XZ 1003e7f0 f i PlugInLib:ViewerShell.obj
 0001:0003d880       ??_E?$AttachmentPtr@VApplicationServices@@@@UAEPAXI@Z 1003e880 f i PlugInLib:ViewerShell.obj
 0001:0003d880       ??_G?$AttachmentPtr@VApplicationServices@@@@UAEPAXI@Z 1003e880 f i PlugInLib:ViewerShell.obj
 0001:0003d8a0       ?_Reserve@?$vector@U?$pair@V?$basic_string@DU?$char_traits@D@std@@V?$allocator@D@2@@std@@VSlot@@@std@@V?$allocator@U?$pair@V?$basic_string@DU?$char_traits@D@std@@V?$allocator@D@2@@std@@VSlot@@@std@@@2@@std@@IAEXI@Z 1003e8a0 f i PlugInLib:ViewerShell.obj
 0001:0003d910       ??1ViewerShell@@UAE@XZ     1003e910 f   PlugInLib:ViewerShell.obj
 0001:0003d970       ??_EViewerShell@@W3AEPAXI@Z 1003e970 f i PlugInLib:ViewerShell.obj
 0001:0003d980       ?push_back@?$vector@U?$pair@V?$basic_string@DU?$char_traits@D@std@@V?$allocator@D@2@@std@@VSlot@@@std@@V?$allocator@U?$pair@V?$basic_string@DU?$char_traits@D@std@@V?$allocator@D@2@@std@@VSlot@@@std@@@2@@std@@QAEX$$QAU?$pair@V?$basic_string@DU?$char_traits@D@std@@V?$allocator@D@2@@std@@VSlot@@@2@@Z 1003e980 f i PlugInLib:ViewerShell.obj
 0001:0003d9f0       ??_GViewerShell@@UAEPAXI@Z 1003e9f0 f i PlugInLib:ViewerShell.obj
 0001:0003d9f0       ??_EViewerShell@@UAEPAXI@Z 1003e9f0 f i PlugInLib:ViewerShell.obj
 0001:0003da60       ?addSignal@?$AttachmentPtr@VApplicationServices@@@@QAEXABV?$basic_string@DU?$char_traits@D@std@@V?$allocator@D@2@@std@@ABVSlot@@@Z 1003ea60 f i PlugInLib:ViewerShell.obj
 0001:0003db10       ??0ViewerShell@@QAE@XZ     1003eb10 f   PlugInLib:ViewerShell.obj
 0001:0003dc80       ??1Executable@@MAE@XZ      1003ec80 f i PlugInLib:ExecutableShell.obj
 0001:0003dc90       ??_GExecutable@@MAEPAXI@Z  1003ec90 f i PlugInLib:ExecutableShell.obj
 0001:0003dc90       ??_EExecutable@@MAEPAXI@Z  1003ec90 f i PlugInLib:ExecutableShell.obj
 0001:0003dcb0       ??0Executable@@QAE@XZ      1003ecb0 f i PlugInLib:ExecutableShell.obj
 0001:0003dcc0       ?isExecutedOnStartup@ExecutableShell@@UBE_NXZ 1003ecc0 f   PlugInLib:ExecutableShell.obj
 0001:0003dcd0       ?isDestroyedAfterExecute@ExecutableShell@@UBE_NXZ 1003ecd0 f   PlugInLib:ExecutableShell.obj
 0001:0003dce0       ?getMenuLocations@ExecutableShell@@UBEABV?$vector@V?$basic_string@DU?$char_traits@D@std@@V?$allocator@D@2@@std@@V?$allocator@V?$basic_string@DU?$char_traits@D@std@@V?$allocator@D@2@@std@@@2@@std@@XZ 1003ece0 f   PlugInLib:ExecutableShell.obj
 0001:0003dcf0       ?setBatch@ExecutableShell@@UAE_NXZ 1003ecf0 f   PlugInLib:ExecutableShell.obj
 0001:0003dd00       ?setInteractive@ExecutableShell@@UAE_NXZ 1003ed00 f   PlugInLib:ExecutableShell.obj
 0001:0003dd10       ?initialize@ExecutableShell@@UAE_NXZ 1003ed10 f   PlugInLib:ExecutableShell.obj
 0001:0003dd20       ?abort@ExecutableShell@@UAE_NXZ 1003ed20 f   PlugInLib:ExecutableShell.obj
 0001:0003dd40       ?hasAbort@ExecutableShell@@UAE_NXZ 1003ed40 f   PlugInLib:ExecutableShell.obj
 0001:0003dd50       ?isBackground@ExecutableShell@@UBE_NXZ 1003ed50 f   PlugInLib:ExecutableShell.obj
 0001:0003dd60       ?isBatch@ExecutableShell@@QBE_NXZ 1003ed60 f   PlugInLib:ExecutableShell.obj
 0001:0003dd70       ?isAborted@ExecutableShell@@QBE_NXZ 1003ed70 f   PlugInLib:ExecutableShell.obj
 0001:0003dd80       ?hasWizardSupport@ExecutableShell@@UBE_NXZ 1003ed80 f   PlugInLib:ExecutableShell.obj
 0001:0003dd90       ?executeOnStartup@ExecutableShell@@IAEX_N@Z 1003ed90 f   PlugInLib:ExecutableShell.obj
 0001:0003dda0       ?destroyAfterExecute@ExecutableShell@@IAEX_N@Z 1003eda0 f   PlugInLib:ExecutableShell.obj
 0001:0003ddb0       ?setAbortSupported@ExecutableShell@@IAEX_N@Z 1003edb0 f   PlugInLib:ExecutableShell.obj
 0001:0003ddc0       ?setBackground@ExecutableShell@@IAEX_N@Z 1003edc0 f   PlugInLib:ExecutableShell.obj
 0001:0003ddd0       ?setWizardSupported@ExecutableShell@@IAEX_N@Z 1003edd0 f   PlugInLib:ExecutableShell.obj
 0001:0003dde0       ?_Make_iter@?$vector@V?$basic_string@DU?$char_traits@D@std@@V?$allocator@D@2@@std@@V?$allocator@V?$basic_string@DU?$char_traits@D@std@@V?$allocator@D@2@@std@@@2@@std@@QBE?AV?$_Vector_iterator@V?$_Vector_val@V?$basic_string@DU?$char_traits@D@std@@V?$allocator@D@2@@std@@V?$allocator@V?$basic_string@DU?$char_traits@D@std@@V?$allocator@D@2@@std@@@2@@std@@@2@V?$_Vector_const_iterator@V?$_Vector_val@V?$basic_string@DU?$char_traits@D@std@@V?$allocator@D@2@@std@@V?$allocator@V?$basic_string@DU?$char_traits@D@std@@V?$allocator@D@2@@std@@@2@@std@@@2@@Z 1003ede0 f i PlugInLib:ExecutableShell.obj
 0001:0003ddf0       ??$_Move@PAV?$basic_string@DU?$char_traits@D@std@@V?$allocator@D@2@@std@@PAV12@@std@@YAPAV?$basic_string@DU?$char_traits@D@std@@V?$allocator@D@2@@0@PAV10@00U_Nonscalar_ptr_iterator_tag@0@@Z 1003edf0 f i PlugInLib:ExecutableShell.obj
 0001:0003de80       ??$_Move@PAV?$basic_string@DU?$char_traits@D@std@@V?$allocator@D@2@@std@@PAV12@@std@@YAPAV?$basic_string@DU?$char_traits@D@std@@V?$allocator@D@2@@0@PAV10@00@Z 1003ee80 f i PlugInLib:ExecutableShell.obj
 0001:0003dea0       ?erase@?$vector@V?$basic_string@DU?$char_traits@D@std@@V?$allocator@D@2@@std@@V?$allocator@V?$basic_string@DU?$char_traits@D@std@@V?$allocator@D@2@@std@@@2@@std@@QAE?AV?$_Vector_iterator@V?$_Vector_val@V?$basic_string@DU?$char_traits@D@std@@V?$allocator@D@2@@std@@V?$allocator@V?$basic_string@DU?$char_traits@D@std@@V?$allocator@D@2@@std@@@2@@std@@@2@V?$_Vector_const_iterator@V?$_Vector_val@V?$basic_string@DU?$char_traits@D@std@@V?$allocator@D@2@@std@@V?$allocator@V?$basic_string@DU?$char_traits@D@std@@V?$allocator@D@2@@std@@@2@@std@@@2@0@Z 1003eea0 f i PlugInLib:ExecutableShell.obj
 0001:0003def0       ?clear@?$vector@V?$basic_string@DU?$char_traits@D@std@@V?$allocator@D@2@@std@@V?$allocator@V?$basic_string@DU?$char_traits@D@std@@V?$allocator@D@2@@std@@@2@@std@@QAEXXZ 1003eef0 f i PlugInLib:ExecutableShell.obj
 0001:0003df30       ??0ExecutableShell@@QAE@XZ 1003ef30 f   PlugInLib:ExecutableShell.obj
 0001:0003dfb0       ??_EExecutableShell@@W3AEPAXI@Z 1003efb0 f i PlugInLib:ExecutableShell.obj
 0001:0003dfc0       ??1ExecutableShell@@UAE@XZ 1003efc0 f   PlugInLib:ExecutableShell.obj
 0001:0003e060       ??_GExecutableShell@@UAEPAXI@Z 1003f060 f i PlugInLib:ExecutableShell.obj
 0001:0003e060       ??_EExecutableShell@@UAEPAXI@Z 1003f060 f i PlugInLib:ExecutableShell.obj
 0001:0003e080       ?addMenuLocation@ExecutableShell@@IAEXABV?$basic_string@DU?$char_traits@D@std@@V?$allocator@D@2@@std@@@Z 1003f080 f   PlugInLib:ExecutableShell.obj
 0001:0003e090       ?setMenuLocation@ExecutableShell@@IAEXABV?$basic_string@DU?$char_traits@D@std@@V?$allocator@D@2@@std@@@Z 1003f090 f   PlugInLib:ExecutableShell.obj
 0001:0003e0e0       ??1SessionItem@@MAE@XZ     1003f0e0 f i PlugInLib:PlugInShell.obj
 0001:0003e0f0       ??_ESessionItem@@MAEPAXI@Z 1003f0f0 f i PlugInLib:PlugInShell.obj
 0001:0003e0f0       ??_GSessionItem@@MAEPAXI@Z 1003f0f0 f i PlugInLib:PlugInShell.obj
 0001:0003e110       ??1PlugIn@@MAE@XZ          1003f110 f i PlugInLib:PlugInShell.obj
 0001:0003e120       ??0SessionItem@@QAE@XZ     1003f120 f i PlugInLib:PlugInShell.obj
 0001:0003e130       ?serialize@PlugInShell@@UBE_NAAVSessionItemSerializer@@@Z 1003f130 f   PlugInLib:PlugInShell.obj
 0001:0003e140       ?deserialize@PlugInShell@@UAE_NAAVSessionItemDeserializer@@@Z 1003f140 f   PlugInLib:PlugInShell.obj
 0001:0003e150       ?isProduction@PlugInShell@@UBE_NXZ 1003f150 f   PlugInLib:PlugInShell.obj
 0001:0003e160       ?areMultipleInstancesAllowed@PlugInShell@@UBE_NXZ 1003f160 f   PlugInLib:PlugInShell.obj
 0001:0003e170       ?setProductionStatus@PlugInShell@@IAEX_N@Z 1003f170 f   PlugInLib:PlugInShell.obj
 0001:0003e180       ?allowMultipleInstances@PlugInShell@@IAEX_N@Z 1003f180 f   PlugInLib:PlugInShell.obj
 0001:0003e190       ?empty@?$basic_string@DU?$char_traits@D@std@@V?$allocator@D@2@@std@@QBE_NXZ 1003f190 f i PlugInLib:PlugInShell.obj
 0001:0003e1a0       ??1?$EnumWrapper@W4BuddyTypeEnum@ContextMenuAction@@@@QAE@XZ 1003f1a0 f i PlugInLib:PlugInShell.obj
 0001:0003e1b0       ??C?$Service@VApplicationServices@@@@QBEPAVApplicationServices@@XZ 1003f1b0 f i PlugInLib:PlugInShell.obj
 0001:0003e1c0       ?get@?$Resource@VSettableSessionItem@@VFactoryObject@@@@QBEPBVSettableSessionItem@@XZ 1003f1c0 f i PlugInLib:PlugInShell.obj
 0001:0003e1d0       ?get@?$Resource@VSettableSessionItem@@VFactoryObject@@@@QAEPAVSettableSessionItem@@XZ 1003f1d0 f i PlugInLib:PlugInShell.obj
 0001:0003e1e0       ?_Color@?$_Tree_val@V?$_Tmap_traits@V?$basic_string@DU?$char_traits@D@std@@V?$allocator@D@2@@std@@V12@U?$less@V?$basic_string@DU?$char_traits@D@std@@V?$allocator@D@2@@std@@@2@V?$allocator@U?$pair@$$CBV?$basic_string@DU?$char_traits@D@std@@V?$allocator@D@2@@std@@V12@@std@@@2@$0A@@std@@@std@@SAAADPAU_Node@?$_Tree_nod@V?$_Tmap_traits@V?$basic_string@DU?$char_traits@D@std@@V?$allocator@D@2@@std@@V12@U?$less@V?$basic_string@DU?$char_traits@D@std@@V?$allocator@D@2@@std@@@2@V?$allocator@U?$pair@$$CBV?$basic_string@DU?$char_traits@D@std@@V?$allocator@D@2@@std@@V12@@std@@@2@$0A@@std@@@2@@Z 1003f1e0 f i PlugInLib:PlugInShell.obj
 0001:0003e1f0       ?_Isnil@?$_Tree_val@V?$_Tmap_traits@V?$basic_string@DU?$char_traits@D@std@@V?$allocator@D@2@@std@@V12@U?$less@V?$basic_string@DU?$char_traits@D@std@@V?$allocator@D@2@@std@@@2@V?$allocator@U?$pair@$$CBV?$basic_string@DU?$char_traits@D@std@@V?$allocator@D@2@@std@@V12@@std@@@2@$0A@@std@@@std@@SAAADPAU_Node@?$_Tree_nod@V?$_Tmap_traits@V?$basic_string@DU?$char_traits@D@std@@V?$allocator@D@2@@std@@V12@U?$less@V?$basic_string@DU?$char_traits@D@std@@V?$allocator@D@2@@std@@@2@V?$allocator@U?$pair@$$CBV?$basic_string@DU?$char_traits@D@std@@V?$allocator@D@2@@std@@V12@@std@@@2@$0A@@std@@@2@@Z 1003f1f0 f i PlugInLib:PlugInShell.obj
 0001:0003e200       ?_Left@?$_Tree_val@V?$_Tmap_traits@V?$basic_string@DU?$char_traits@D@std@@V?$allocator@D@2@@std@@V12@U?$less@V?$basic_string@DU?$char_traits@D@std@@V?$allocator@D@2@@std@@@2@V?$allocator@U?$pair@$$CBV?$basic_string@DU?$char_traits@D@std@@V?$allocator@D@2@@std@@V12@@std@@@2@$0A@@std@@@std@@SAAAPAU_Node@?$_Tree_nod@V?$_Tmap_traits@V?$basic_string@DU?$char_traits@D@std@@V?$allocator@D@2@@std@@V12@U?$less@V?$basic_string@DU?$char_traits@D@std@@V?$allocator@D@2@@std@@@2@V?$allocator@U?$pair@$$CBV?$basic_string@DU?$char_traits@D@std@@V?$allocator@D@2@@std@@V12@@std@@@2@$0A@@std@@@2@PAU342@@Z 1003f200 f i PlugInLib:PlugInShell.obj
 0001:0003e210       ?_Parent@?$_Tree_val@V?$_Tmap_traits@V?$basic_string@DU?$char_traits@D@std@@V?$allocator@D@2@@std@@V12@U?$less@V?$basic_string@DU?$char_traits@D@std@@V?$allocator@D@2@@std@@@2@V?$allocator@U?$pair@$$CBV?$basic_string@DU?$char_traits@D@std@@V?$allocator@D@2@@std@@V12@@std@@@2@$0A@@std@@@std@@SAAAPAU_Node@?$_Tree_nod@V?$_Tmap_traits@V?$basic_string@DU?$char_traits@D@std@@V?$allocator@D@2@@std@@V12@U?$less@V?$basic_string@DU?$char_traits@D@std@@V?$allocator@D@2@@std@@@2@V?$allocator@U?$pair@$$CBV?$basic_string@DU?$char_traits@D@std@@V?$allocator@D@2@@std@@V12@@std@@@2@$0A@@std@@@2@PAU342@@Z 1003f210 f i PlugInLib:PlugInShell.obj
 0001:0003e220       ?_Right@?$_Tree_val@V?$_Tmap_traits@V?$basic_string@DU?$char_traits@D@std@@V?$allocator@D@2@@std@@V12@U?$less@V?$basic_string@DU?$char_traits@D@std@@V?$allocator@D@2@@std@@@2@V?$allocator@U?$pair@$$CBV?$basic_string@DU?$char_traits@D@std@@V?$allocator@D@2@@std@@V12@@std@@@2@$0A@@std@@@std@@SAAAPAU_Node@?$_Tree_nod@V?$_Tmap_traits@V?$basic_string@DU?$char_traits@D@std@@V?$allocator@D@2@@std@@V12@U?$less@V?$basic_string@DU?$char_traits@D@std@@V?$allocator@D@2@@std@@@2@V?$allocator@U?$pair@$$CBV?$basic_string@DU?$char_traits@D@std@@V?$allocator@D@2@@std@@V12@@std@@@2@$0A@@std@@@2@PAU342@@Z 1003f220 f i PlugInLib:PlugInShell.obj
 0001:0003e230       ?_Myval@?$_Tree_val@V?$_Tmap_traits@V?$basic_string@DU?$char_traits@D@std@@V?$allocator@D@2@@std@@V12@U?$less@V?$basic_string@DU?$char_traits@D@std@@V?$allocator@D@2@@std@@@2@V?$allocator@U?$pair@$$CBV?$basic_string@DU?$char_traits@D@std@@V?$allocator@D@2@@std@@V12@@std@@@2@$0A@@std@@@std@@SAAAU?$pair@$$CBV?$basic_string@DU?$char_traits@D@std@@V?$allocator@D@2@@std@@V12@@2@PAU_Node@?$_Tree_nod@V?$_Tmap_traits@V?$basic_string@DU?$char_traits@D@std@@V?$allocator@D@2@@std@@V12@U?$less@V?$basic_string@DU?$char_traits@D@std@@V?$allocator@D@2@@std@@@2@V?$allocator@U?$pair@$$CBV?$basic_string@DU?$char_traits@D@std@@V?$allocator@D@2@@std@@V12@@std@@@2@$0A@@std@@@2@@Z 1003f230 f i PlugInLib:PlugInShell.obj
 0001:0003e240       ?_Max@?$_Tree_val@V?$_Tmap_traits@V?$basic_string@DU?$char_traits@D@std@@V?$allocator@D@2@@std@@V12@U?$less@V?$basic_string@DU?$char_traits@D@std@@V?$allocator@D@2@@std@@@2@V?$allocator@U?$pair@$$CBV?$basic_string@DU?$char_traits@D@std@@V?$allocator@D@2@@std@@V12@@std@@@2@$0A@@std@@@std@@SAPAU_Node@?$_Tree_nod@V?$_Tmap_traits@V?$basic_string@DU?$char_traits@D@std@@V?$allocator@D@2@@std@@V12@U?$less@V?$basic_string@DU?$char_traits@D@std@@V?$allocator@D@2@@std@@@2@V?$allocator@U?$pair@$$CBV?$basic_string@DU?$char_traits@D@std@@V?$allocator@D@2@@std@@V12@@std@@@2@$0A@@std@@@2@PAU342@@Z 1003f240 f i PlugInLib:PlugInShell.obj
 0001:0003e260       ?_Min@?$_Tree_val@V?$_Tmap_traits@V?$basic_string@DU?$char_traits@D@std@@V?$allocator@D@2@@std@@V12@U?$less@V?$basic_string@DU?$char_traits@D@std@@V?$allocator@D@2@@std@@@2@V?$allocator@U?$pair@$$CBV?$basic_string@DU?$char_traits@D@std@@V?$allocator@D@2@@std@@V12@@std@@@2@$0A@@std@@@std@@SAPAU_Node@?$_Tree_nod@V?$_Tmap_traits@V?$basic_string@DU?$char_traits@D@std@@V?$allocator@D@2@@std@@V12@U?$less@V?$basic_string@DU?$char_traits@D@std@@V?$allocator@D@2@@std@@@2@V?$allocator@U?$pair@$$CBV?$basic_string@DU?$char_traits@D@std@@V?$allocator@D@2@@std@@V12@@std@@@2@$0A@@std@@@2@PAU342@@Z 1003f260 f i PlugInLib:PlugInShell.obj
 0001:0003e280       ??0?$allocator@U?$pair@$$CBV?$basic_string@DU?$char_traits@D@std@@V?$allocator@D@2@@std@@V12@@std@@@std@@QAE@XZ 1003f280 f i PlugInLib:PlugInShell.obj
 0001:0003e290       ?deallocate@?$allocator@U_Node@?$_Tree_nod@V?$_Tmap_traits@V?$basic_string@DU?$char_traits@D@std@@V?$allocator@D@2@@std@@V12@U?$less@V?$basic_string@DU?$char_traits@D@std@@V?$allocator@D@2@@std@@@2@V?$allocator@U?$pair@$$CBV?$basic_string@DU?$char_traits@D@std@@V?$allocator@D@2@@std@@V12@@std@@@2@$0A@@std@@@std@@@std@@QAEXPAU_Node@?$_Tree_nod@V?$_Tmap_traits@V?$basic_string@DU?$char_traits@D@std@@V?$allocator@D@2@@std@@V12@U?$less@V?$basic_string@DU?$char_traits@D@std@@V?$allocator@D@2@@std@@@2@V?$allocator@U?$pair@$$CBV?$basic_string@DU?$char_traits@D@std@@V?$allocator@D@2@@std@@V12@@std@@@2@$0A@@std@@@2@I@Z 1003f290 f i PlugInLib:PlugInShell.obj
 0001:0003e2a0       ??8?$_Tree_const_iterator@V?$_Tree_val@V?$_Tmap_traits@V?$basic_string@DU?$char_traits@D@std@@V?$allocator@D@2@@std@@V12@U?$less@V?$basic_string@DU?$char_traits@D@std@@V?$allocator@D@2@@std@@@2@V?$allocator@U?$pair@$$CBV?$basic_string@DU?$char_traits@D@std@@V?$allocator@D@2@@std@@V12@@std@@@2@$0A@@std@@@std@@@std@@QBE_NABV01@@Z 1003f2a0 f i PlugInLib:PlugInShell.obj
 0001:0003e2b0       ?_Mynode@?$_Tree_unchecked_const_iterator@V?$_Tree_val@V?$_Tmap_traits@V?$basic_string@DU?$char_traits@D@std@@V?$allocator@D@2@@std@@V12@U?$less@V?$basic_string@DU?$char_traits@D@std@@V?$allocator@D@2@@std@@@2@V?$allocator@U?$pair@$$CBV?$basic_string@DU?$char_traits@D@std@@V?$allocator@D@2@@std@@V12@@std@@@2@$0A@@std@@@std@@U_Iterator_base0@2@@std@@QBEPAU_Node@?$_Tree_nod@V?$_Tmap_traits@V?$basic_string@DU?$char_traits@D@std@@V?$allocator@D@2@@std@@V12@U?$less@V?$basic_string@DU?$char_traits@D@std@@V?$allocator@D@2@@std@@@2@V?$allocator@U?$pair@$$CBV?$basic_string@DU?$char_traits@D@std@@V?$allocator@D@2@@std@@V12@@std@@@2@$0A@@std@@@2@XZ 1003f2b0 f i PlugInLib:PlugInShell.obj
 0001:0003e2c0       ?key_comp@?$_Tree@V?$_Tmap_traits@V?$basic_string@DU?$char_traits@D@std@@V?$allocator@D@2@@std@@V12@U?$less@V?$basic_string@DU?$char_traits@D@std@@V?$allocator@D@2@@std@@@2@V?$allocator@U?$pair@$$CBV?$basic_string@DU?$char_traits@D@std@@V?$allocator@D@2@@std@@V12@@std@@@2@$0A@@std@@@std@@QBE?AU?$less@V?$basic_string@DU?$char_traits@D@std@@V?$allocator@D@2@@std@@@2@XZ 1003f2c0 f i PlugInLib:PlugInShell.obj
 0001:0003e2d0       ??0?$allocator@U?$pair@$$CBV?$basic_string@DU?$char_traits@D@std@@V?$allocator@D@2@@std@@V12@@std@@@std@@QAE@ABV01@@Z 1003f2d0 f i PlugInLib:PlugInShell.obj
 0001:0003e2e0       ?deallocate@?$allocator@U_Node@?$_List_nod@UContextMenuAction@@V?$allocator@UContextMenuAction@@@std@@@std@@@std@@QAEXPAU_Node@?$_List_nod@UContextMenuAction@@V?$allocator@UContextMenuAction@@@std@@@2@I@Z 1003f2e0 f i PlugInLib:PlugInShell.obj
 0001:0003e2f0       ??D?$_Tree_const_iterator@V?$_Tree_val@V?$_Tmap_traits@V?$basic_string@DU?$char_traits@D@std@@V?$allocator@D@2@@std@@V12@U?$less@V?$basic_string@DU?$char_traits@D@std@@V?$allocator@D@2@@std@@@2@V?$allocator@U?$pair@$$CBV?$basic_string@DU?$char_traits@D@std@@V?$allocator@D@2@@std@@V12@@std@@@2@$0A@@std@@@std@@@std@@QBEABU?$pair@$$CBV?$basic_string@DU?$char_traits@D@std@@V?$allocator@D@2@@std@@V12@@1@XZ 1003f2f0 f i PlugInLib:PlugInShell.obj
 0001:0003e300       ??E?$_Tree_unchecked_const_iterator@V?$_Tree_val@V?$_Tmap_traits@V?$basic_string@DU?$char_traits@D@std@@V?$allocator@D@2@@std@@V12@U?$less@V?$basic_string@DU?$char_traits@D@std@@V?$allocator@D@2@@std@@@2@V?$allocator@U?$pair@$$CBV?$basic_string@DU?$char_traits@D@std@@V?$allocator@D@2@@std@@V12@@std@@@2@$0A@@std@@@std@@U_Iterator_base0@2@@std@@QAEAAV01@XZ 1003f300 f i PlugInLib:PlugInShell.obj
 0001:0003e350       ?size@?$_Tree@V?$_Tmap_traits@V?$basic_string@DU?$char_traits@D@std@@V?$allocator@D@2@@std@@V12@U?$less@V?$basic_string@DU?$char_traits@D@std@@V?$allocator@D@2@@std@@@2@V?$allocator@U?$pair@$$CBV?$basic_string@DU?$char_traits@D@std@@V?$allocator@D@2@@std@@V12@@std@@@2@$0A@@std@@@std@@QBEIXZ 1003f350 f i PlugInLib:PlugInShell.obj
 0001:0003e360       ?_Nextnode@?$_List_val@UContextMenuAction@@V?$allocator@UContextMenuAction@@@std@@@std@@SAAAPAU_Node@?$_List_nod@UContextMenuAction@@V?$allocator@UContextMenuAction@@@std@@@2@PAU342@@Z 1003f360 f i PlugInLib:PlugInShell.obj
 0001:0003e370       ?_Prevnode@?$_List_val@UContextMenuAction@@V?$allocator@UContextMenuAction@@@std@@@std@@SAAAPAU_Node@?$_List_nod@UContextMenuAction@@V?$allocator@UContextMenuAction@@@std@@@2@PAU342@@Z 1003f370 f i PlugInLib:PlugInShell.obj
 0001:0003e380       ??0?$_Tree_unchecked_const_iterator@V?$_Tree_val@V?$_Tmap_traits@V?$basic_string@DU?$char_traits@D@std@@V?$allocator@D@2@@std@@V12@U?$less@V?$basic_string@DU?$char_traits@D@std@@V?$allocator@D@2@@std@@@2@V?$allocator@U?$pair@$$CBV?$basic_string@DU?$char_traits@D@std@@V?$allocator@D@2@@std@@V12@@std@@@2@$0A@@std@@@std@@U_Iterator_base0@2@@std@@QAE@PAU_Node@?$_Tree_nod@V?$_Tmap_traits@V?$basic_string@DU?$char_traits@D@std@@V?$allocator@D@2@@std@@V12@U?$less@V?$basic_string@DU?$char_traits@D@std@@V?$allocator@D@2@@std@@@2@V?$allocator@U?$pair@$$CBV?$basic_string@DU?$char_traits@D@std@@V?$allocator@D@2@@std@@V12@@std@@@2@$0A@@std@@@1@PBV?$_Tree_val@V?$_Tmap_traits@V?$basic_string@DU?$char_traits@D@std@@V?$allocator@D@2@@std@@V12@U?$less@V?$basic_string@DU?$char_traits@D@std@@V?$allocator@D@2@@std@@@2@V?$allocator@U?$pair@$$CBV?$basic_string@DU?$char_traits@D@std@@V?$allocator@D@2@@std@@V12@@std@@@2@$0A@@std@@@1@@Z 1003f380 f i PlugInLib:PlugInShell.obj
 0001:0003e390       ??0?$_Tmap_traits@V?$basic_string@DU?$char_traits@D@std@@V?$allocator@D@2@@std@@V12@U?$less@V?$basic_string@DU?$char_traits@D@std@@V?$allocator@D@2@@std@@@2@V?$allocator@U?$pair@$$CBV?$basic_string@DU?$char_traits@D@std@@V?$allocator@D@2@@std@@V12@@std@@@2@$0A@@std@@QAE@U?$less@V?$basic_string@DU?$char_traits@D@std@@V?$allocator@D@2@@std@@@1@@Z 1003f390 f i PlugInLib:PlugInShell.obj
 0001:0003e3a0       ??$addressof@U?$pair@$$CBV?$basic_string@DU?$char_traits@D@std@@V?$allocator@D@2@@std@@V12@@std@@@std@@YAPAU?$pair@$$CBV?$basic_string@DU?$char_traits@D@std@@V?$allocator@D@2@@std@@V12@@0@AAU10@@Z 1003f3a0 f i PlugInLib:PlugInShell.obj
 0001:0003e3b0       ??$_Kfn@$$CBV?$basic_string@DU?$char_traits@D@std@@V?$allocator@D@2@@std@@V12@@?$_Tmap_traits@V?$basic_string@DU?$char_traits@D@std@@V?$allocator@D@2@@std@@V12@U?$less@V?$basic_string@DU?$char_traits@D@std@@V?$allocator@D@2@@std@@@2@V?$allocator@U?$pair@$$CBV?$basic_string@DU?$char_traits@D@std@@V?$allocator@D@2@@std@@V12@@std@@@2@$0A@@std@@SAABV?$basic_string@DU?$char_traits@D@std@@V?$allocator@D@2@@1@ABU?$pair@$$CBV?$basic_string@DU?$char_traits@D@std@@V?$allocator@D@2@@std@@V12@@1@@Z 1003f3b0 f i PlugInLib:PlugInShell.obj
 0001:0003e3c0       ??$?0U?$pair@$$CBV?$basic_string@DU?$char_traits@D@std@@V?$allocator@D@2@@std@@V12@@std@@@?$allocator@U_Node@?$_Tree_nod@V?$_Tmap_traits@V?$basic_string@DU?$char_traits@D@std@@V?$allocator@D@2@@std@@V12@U?$less@V?$basic_string@DU?$char_traits@D@std@@V?$allocator@D@2@@std@@@2@V?$allocator@U?$pair@$$CBV?$basic_string@DU?$char_traits@D@std@@V?$allocator@D@2@@std@@V12@@std@@@2@$0A@@std@@@std@@@std@@QAE@ABV?$allocator@U?$pair@$$CBV?$basic_string@DU?$char_traits@D@std@@V?$allocator@D@2@@std@@V12@@std@@@1@@Z 1003f3c0 f i PlugInLib:PlugInShell.obj
 0001:0003e3d0       ??$_Allocate@U_Node@?$_Tree_nod@V?$_Tmap_traits@V?$basic_string@DU?$char_traits@D@std@@V?$allocator@D@2@@std@@V12@U?$less@V?$basic_string@DU?$char_traits@D@std@@V?$allocator@D@2@@std@@@2@V?$allocator@U?$pair@$$CBV?$basic_string@DU?$char_traits@D@std@@V?$allocator@D@2@@std@@V12@@std@@@2@$0A@@std@@@std@@@std@@YAPAU_Node@?$_Tree_nod@V?$_Tmap_traits@V?$basic_string@DU?$char_traits@D@std@@V?$allocator@D@2@@std@@V12@U?$less@V?$basic_string@DU?$char_traits@D@std@@V?$allocator@D@2@@std@@@2@V?$allocator@U?$pair@$$CBV?$basic_string@DU?$char_traits@D@std@@V?$allocator@D@2@@std@@V12@@std@@@2@$0A@@std@@@0@IPAU120@@Z 1003f3d0 f i PlugInLib:PlugInShell.obj
 0001:0003e430       ??0?$_Tree_unchecked_const_iterator@V?$_Tree_val@V?$_Tmap_traits@V?$basic_string@DU?$char_traits@D@std@@V?$allocator@D@2@@std@@V12@U?$less@V?$basic_string@DU?$char_traits@D@std@@V?$allocator@D@2@@std@@@2@V?$allocator@U?$pair@$$CBV?$basic_string@DU?$char_traits@D@std@@V?$allocator@D@2@@std@@V12@@std@@@2@$0A@@std@@@std@@U_Iterator_base0@2@@std@@QAE@XZ 1003f430 f i PlugInLib:PlugInShell.obj
 0001:0003e440       ??F?$_Tree_unchecked_const_iterator@V?$_Tree_val@V?$_Tmap_traits@V?$basic_string@DU?$char_traits@D@std@@V?$allocator@D@2@@std@@V12@U?$less@V?$basic_string@DU?$char_traits@D@std@@V?$allocator@D@2@@std@@@2@V?$allocator@U?$pair@$$CBV?$basic_string@DU?$char_traits@D@std@@V?$allocator@D@2@@std@@V12@@std@@@2@$0A@@std@@@std@@U_Iterator_base0@2@@std@@QAEAAV01@XZ 1003f440 f i PlugInLib:PlugInShell.obj
 0001:0003e4a0       ?max_size@?$allocator@U?$pair@$$CBV?$basic_string@DU?$char_traits@D@std@@V?$allocator@D@2@@std@@V12@@std@@@std@@QBEIXZ 1003f4a0 f i PlugInLib:PlugInShell.obj
 0001:0003e4b0       ??$forward@U?$pair@$$CBV?$basic_string@DU?$char_traits@D@std@@V?$allocator@D@2@@std@@V12@@std@@@std@@YA$$QAU?$pair@$$CBV?$basic_string@DU?$char_traits@D@std@@V?$allocator@D@2@@std@@V12@@0@AAU10@@Z 1003f4b0 f i PlugInLib:PlugInShell.obj
 0001:0003e4c0       ??$forward@AAU?$pair@$$CBV?$basic_string@DU?$char_traits@D@std@@V?$allocator@D@2@@std@@V12@@std@@@std@@YAAAU?$pair@$$CBV?$basic_string@DU?$char_traits@D@std@@V?$allocator@D@2@@std@@V12@@0@AAU10@@Z 1003f4c0 f i PlugInLib:PlugInShell.obj
 0001:0003e4d0       ??$move@AAV?$_Tree_iterator@V?$_Tree_val@V?$_Tmap_traits@V?$basic_string@DU?$char_traits@D@std@@V?$allocator@D@2@@std@@V12@U?$less@V?$basic_string@DU?$char_traits@D@std@@V?$allocator@D@2@@std@@@2@V?$allocator@U?$pair@$$CBV?$basic_string@DU?$char_traits@D@std@@V?$allocator@D@2@@std@@V12@@std@@@2@$0A@@std@@@std@@@std@@@std@@YA$$QAV?$_Tree_iterator@V?$_Tree_val@V?$_Tmap_traits@V?$basic_string@DU?$char_traits@D@std@@V?$allocator@D@2@@std@@V12@U?$less@V?$basic_string@DU?$char_traits@D@std@@V?$allocator@D@2@@std@@@2@V?$allocator@U?$pair@$$CBV?$basic_string@DU?$char_traits@D@std@@V?$allocator@D@2@@std@@V12@@std@@@2@$0A@@std@@@std@@@0@AAV10@@Z 1003f4d0 f i PlugInLib:PlugInShell.obj
 0001:0003e4e0       ??$forward@AAV?$_Tree_iterator@V?$_Tree_val@V?$_Tmap_traits@V?$basic_string@DU?$char_traits@D@std@@V?$allocator@D@2@@std@@V12@U?$less@V?$basic_string@DU?$char_traits@D@std@@V?$allocator@D@2@@std@@@2@V?$allocator@U?$pair@$$CBV?$basic_string@DU?$char_traits@D@std@@V?$allocator@D@2@@std@@V12@@std@@@2@$0A@@std@@@std@@@std@@@std@@YAAAV?$_Tree_iterator@V?$_Tree_val@V?$_Tmap_traits@V?$basic_string@DU?$char_traits@D@std@@V?$allocator@D@2@@std@@V12@U?$less@V?$basic_string@DU?$char_traits@D@std@@V?$allocator@D@2@@std@@@2@V?$allocator@U?$pair@$$CBV?$basic_string@DU?$char_traits@D@std@@V?$allocator@D@2@@std@@V12@@std@@@2@$0A@@std@@@std@@@0@AAV10@@Z 1003f4e0 f i PlugInLib:PlugInShell.obj
 0001:0003e4f0       ??$?0AAV?$_Tree_iterator@V?$_Tree_val@V?$_Tmap_traits@V?$basic_string@DU?$char_traits@D@std@@V?$allocator@D@2@@std@@V12@U?$less@V?$basic_string@DU?$char_traits@D@std@@V?$allocator@D@2@@std@@@2@V?$allocator@U?$pair@$$CBV?$basic_string@DU?$char_traits@D@std@@V?$allocator@D@2@@std@@V12@@std@@@2@$0A@@std@@@std@@@std@@_N@?$_Pair_base@V?$_Tree_iterator@V?$_Tree_val@V?$_Tmap_traits@V?$basic_string@DU?$char_traits@D@std@@V?$allocator@D@2@@std@@V12@U?$less@V?$basic_string@DU?$char_traits@D@std@@V?$allocator@D@2@@std@@@2@V?$allocator@U?$pair@$$CBV?$basic_string@DU?$char_traits@D@std@@V?$allocator@D@2@@std@@V12@@std@@@2@$0A@@std@@@std@@@std@@_N@std@@QAE@AAV?$_Tree_iterator@V?$_Tree_val@V?$_Tmap_traits@V?$basic_string@DU?$char_traits@D@std@@V?$allocator@D@2@@std@@V12@U?$less@V?$basic_string@DU?$char_traits@D@std@@V?$allocator@D@2@@std@@@2@V?$allocator@U?$pair@$$CBV?$basic_string@DU?$char_traits@D@std@@V?$allocator@D@2@@std@@V12@@std@@@2@$0A@@std@@@std@@@1@$$QA_N@Z 1003f4f0 f i PlugInLib:PlugInShell.obj
 0001:0003e510       ??$forward@$$CBV?$basic_string@DU?$char_traits@D@std@@V?$allocator@D@2@@std@@@std@@YA$$QBV?$basic_string@DU?$char_traits@D@std@@V?$allocator@D@2@@0@ABV10@@Z 1003f510 f i PlugInLib:PlugInShell.obj
 0001:0003e520       ??$move@ABV?$basic_string@DU?$char_traits@D@std@@V?$allocator@D@2@@std@@@std@@YA$$QBV?$basic_string@DU?$char_traits@D@std@@V?$allocator@D@2@@0@ABV10@@Z 1003f520 f i PlugInLib:PlugInShell.obj
 0001:0003e530       ?getFactory@FactoryAllocator@@IBEPAVObjectFactory@@XZ 1003f530 f i PlugInLib:PlugInShell.obj
 0001:0003e550       ??0PlugIn@@QAE@XZ          1003f550 f i PlugInLib:PlugInShell.obj
 0001:0003e560       ??_GPlugIn@@MAEPAXI@Z      1003f560 f i PlugInLib:PlugInShell.obj
 0001:0003e560       ??_EPlugIn@@MAEPAXI@Z      1003f560 f i PlugInLib:PlugInShell.obj
 0001:0003e580       ??C?$Resource@VSettableSessionItem@@VFactoryObject@@@@QBEPBVSettableSessionItem@@XZ 1003f580 f i PlugInLib:PlugInShell.obj
 0001:0003e590       ??C?$Resource@VSettableSessionItem@@VFactoryObject@@@@QAEPAVSettableSessionItem@@XZ 1003f590 f i PlugInLib:PlugInShell.obj
 0001:0003e5a0       ??9?$_Tree_const_iterator@V?$_Tree_val@V?$_Tmap_traits@V?$basic_string@DU?$char_traits@D@std@@V?$allocator@D@2@@std@@V12@U?$less@V?$basic_string@DU?$char_traits@D@std@@V?$allocator@D@2@@std@@@2@V?$allocator@U?$pair@$$CBV?$basic_string@DU?$char_traits@D@std@@V?$allocator@D@2@@std@@V12@@std@@@2@$0A@@std@@@std@@@std@@QBE_NABV01@@Z 1003f5a0 f i PlugInLib:PlugInShell.obj
 0001:0003e5b0       ?_Lmost@?$_Tree@V?$_Tmap_traits@V?$basic_string@DU?$char_traits@D@std@@V?$allocator@D@2@@std@@V12@U?$less@V?$basic_string@DU?$char_traits@D@std@@V?$allocator@D@2@@std@@@2@V?$allocator@U?$pair@$$CBV?$basic_string@DU?$char_traits@D@std@@V?$allocator@D@2@@std@@V12@@std@@@2@$0A@@std@@@std@@IBEAAPAU_Node@?$_Tree_nod@V?$_Tmap_traits@V?$basic_string@DU?$char_traits@D@std@@V?$allocator@D@2@@std@@V12@U?$less@V?$basic_string@DU?$char_traits@D@std@@V?$allocator@D@2@@std@@@2@V?$allocator@U?$pair@$$CBV?$basic_string@DU?$char_traits@D@std@@V?$allocator@D@2@@std@@V12@@std@@@2@$0A@@std@@@2@XZ 1003f5b0 f i PlugInLib:PlugInShell.obj
 0001:0003e5c0       ?_Rmost@?$_Tree@V?$_Tmap_traits@V?$basic_string@DU?$char_traits@D@std@@V?$allocator@D@2@@std@@V12@U?$less@V?$basic_string@DU?$char_traits@D@std@@V?$allocator@D@2@@std@@@2@V?$allocator@U?$pair@$$CBV?$basic_string@DU?$char_traits@D@std@@V?$allocator@D@2@@std@@V12@@std@@@2@$0A@@std@@@std@@IBEAAPAU_Node@?$_Tree_nod@V?$_Tmap_traits@V?$basic_string@DU?$char_traits@D@std@@V?$allocator@D@2@@std@@V12@U?$less@V?$basic_string@DU?$char_traits@D@std@@V?$allocator@D@2@@std@@@2@V?$allocator@U?$pair@$$CBV?$basic_string@DU?$char_traits@D@std@@V?$allocator@D@2@@std@@V12@@std@@@2@$0A@@std@@@2@XZ 1003f5c0 f i PlugInLib:PlugInShell.obj
 0001:0003e5d0       ?_Root@?$_Tree@V?$_Tmap_traits@V?$basic_string@DU?$char_traits@D@std@@V?$allocator@D@2@@std@@V12@U?$less@V?$basic_string@DU?$char_traits@D@std@@V?$allocator@D@2@@std@@@2@V?$allocator@U?$pair@$$CBV?$basic_string@DU?$char_traits@D@std@@V?$allocator@D@2@@std@@V12@@std@@@2@$0A@@std@@@std@@IBEAAPAU_Node@?$_Tree_nod@V?$_Tmap_traits@V?$basic_string@DU?$char_traits@D@std@@V?$allocator@D@2@@std@@V12@U?$less@V?$basic_string@DU?$char_traits@D@std@@V?$allocator@D@2@@std@@@2@V?$allocator@U?$pair@$$CBV?$basic_string@DU?$char_traits@D@std@@V?$allocator@D@2@@std@@V12@@std@@@2@$0A@@std@@@2@XZ 1003f5d0 f i PlugInLib:PlugInShell.obj
 0001:0003e5e0       ?_Rrotate@?$_Tree@V?$_Tmap_traits@V?$basic_string@DU?$char_traits@D@std@@V?$allocator@D@2@@std@@V12@U?$less@V?$basic_string@DU?$char_traits@D@std@@V?$allocator@D@2@@std@@@2@V?$allocator@U?$pair@$$CBV?$basic_string@DU?$char_traits@D@std@@V?$allocator@D@2@@std@@V12@@std@@@2@$0A@@std@@@std@@IAEXPAU_Node@?$_Tree_nod@V?$_Tmap_traits@V?$basic_string@DU?$char_traits@D@std@@V?$allocator@D@2@@std@@V12@U?$less@V?$basic_string@DU?$char_traits@D@std@@V?$allocator@D@2@@std@@@2@V?$allocator@U?$pair@$$CBV?$basic_string@DU?$char_traits@D@std@@V?$allocator@D@2@@std@@V12@@std@@@2@$0A@@std@@@2@@Z 1003f5e0 f i PlugInLib:PlugInShell.obj
 0001:0003e640       ??1?$_Tree_val@V?$_Tmap_traits@V?$basic_string@DU?$char_traits@D@std@@V?$allocator@D@2@@std@@V12@U?$less@V?$basic_string@DU?$char_traits@D@std@@V?$allocator@D@2@@std@@@2@V?$allocator@U?$pair@$$CBV?$basic_string@DU?$char_traits@D@std@@V?$allocator@D@2@@std@@V12@@std@@@2@$0A@@std@@@std@@QAE@XZ 1003f640 f i PlugInLib:PlugInShell.obj
 0001:0003e650       ?_Key@?$_Tree_val@V?$_Tmap_traits@V?$basic_string@DU?$char_traits@D@std@@V?$allocator@D@2@@std@@V12@U?$less@V?$basic_string@DU?$char_traits@D@std@@V?$allocator@D@2@@std@@@2@V?$allocator@U?$pair@$$CBV?$basic_string@DU?$char_traits@D@std@@V?$allocator@D@2@@std@@V12@@std@@@2@$0A@@std@@@std@@SAAAV?$basic_string@DU?$char_traits@D@std@@V?$allocator@D@2@@2@PAU_Node@?$_Tree_nod@V?$_Tmap_traits@V?$basic_string@DU?$char_traits@D@std@@V?$allocator@D@2@@std@@V12@U?$less@V?$basic_string@DU?$char_traits@D@std@@V?$allocator@D@2@@std@@@2@V?$allocator@U?$pair@$$CBV?$basic_string@DU?$char_traits@D@std@@V?$allocator@D@2@@std@@V12@@std@@@2@$0A@@std@@@2@@Z 1003f650 f i PlugInLib:PlugInShell.obj
 0001:0003e660       ??1?$_List_val@UContextMenuAction@@V?$allocator@UContextMenuAction@@@std@@@std@@QAE@XZ 1003f660 f i PlugInLib:PlugInShell.obj
 0001:0003e670       ??D?$_Tree_iterator@V?$_Tree_val@V?$_Tmap_traits@V?$basic_string@DU?$char_traits@D@std@@V?$allocator@D@2@@std@@V12@U?$less@V?$basic_string@DU?$char_traits@D@std@@V?$allocator@D@2@@std@@@2@V?$allocator@U?$pair@$$CBV?$basic_string@DU?$char_traits@D@std@@V?$allocator@D@2@@std@@V12@@std@@@2@$0A@@std@@@std@@@std@@QBEAAU?$pair@$$CBV?$basic_string@DU?$char_traits@D@std@@V?$allocator@D@2@@std@@V12@@1@XZ 1003f670 f i PlugInLib:PlugInShell.obj
 0001:0003e680       ??E?$_Tree_const_iterator@V?$_Tree_val@V?$_Tmap_traits@V?$basic_string@DU?$char_traits@D@std@@V?$allocator@D@2@@std@@V12@U?$less@V?$basic_string@DU?$char_traits@D@std@@V?$allocator@D@2@@std@@@2@V?$allocator@U?$pair@$$CBV?$basic_string@DU?$char_traits@D@std@@V?$allocator@D@2@@std@@V12@@std@@@2@$0A@@std@@@std@@@std@@QAEAAV01@XZ 1003f680 f i PlugInLib:PlugInShell.obj
 0001:0003e690       ??0?$_Tree_const_iterator@V?$_Tree_val@V?$_Tmap_traits@V?$basic_string@DU?$char_traits@D@std@@V?$allocator@D@2@@std@@V12@U?$less@V?$basic_string@DU?$char_traits@D@std@@V?$allocator@D@2@@std@@@2@V?$allocator@U?$pair@$$CBV?$basic_string@DU?$char_traits@D@std@@V?$allocator@D@2@@std@@V12@@std@@@2@$0A@@std@@@std@@@std@@QAE@PAU_Node@?$_Tree_nod@V?$_Tmap_traits@V?$basic_string@DU?$char_traits@D@std@@V?$allocator@D@2@@std@@V12@U?$less@V?$basic_string@DU?$char_traits@D@std@@V?$allocator@D@2@@std@@@2@V?$allocator@U?$pair@$$CBV?$basic_string@DU?$char_traits@D@std@@V?$allocator@D@2@@std@@V12@@std@@@2@$0A@@std@@@1@PBV?$_Tree_val@V?$_Tmap_traits@V?$basic_string@DU?$char_traits@D@std@@V?$allocator@D@2@@std@@V12@U?$less@V?$basic_string@DU?$char_traits@D@std@@V?$allocator@D@2@@std@@@2@V?$allocator@U?$pair@$$CBV?$basic_string@DU?$char_traits@D@std@@V?$allocator@D@2@@std@@V12@@std@@@2@$0A@@std@@@1@@Z 1003f690 f i PlugInLib:PlugInShell.obj
 0001:0003e6a0       ??0?$_Tree_nod@V?$_Tmap_traits@V?$basic_string@DU?$char_traits@D@std@@V?$allocator@D@2@@std@@V12@U?$less@V?$basic_string@DU?$char_traits@D@std@@V?$allocator@D@2@@std@@@2@V?$allocator@U?$pair@$$CBV?$basic_string@DU?$char_traits@D@std@@V?$allocator@D@2@@std@@V12@@std@@@2@$0A@@std@@@std@@QAE@ABU?$less@V?$basic_string@DU?$char_traits@D@std@@V?$allocator@D@2@@std@@@1@V?$allocator@U?$pair@$$CBV?$basic_string@DU?$char_traits@D@std@@V?$allocator@D@2@@std@@V12@@std@@@1@@Z 1003f6a0 f i PlugInLib:PlugInShell.obj
 0001:0003e6b0       ?allocate@?$allocator@U_Node@?$_Tree_nod@V?$_Tmap_traits@V?$basic_string@DU?$char_traits@D@std@@V?$allocator@D@2@@std@@V12@U?$less@V?$basic_string@DU?$char_traits@D@std@@V?$allocator@D@2@@std@@@2@V?$allocator@U?$pair@$$CBV?$basic_string@DU?$char_traits@D@std@@V?$allocator@D@2@@std@@V12@@std@@@2@$0A@@std@@@std@@@std@@QAEPAU_Node@?$_Tree_nod@V?$_Tmap_traits@V?$basic_string@DU?$char_traits@D@std@@V?$allocator@D@2@@std@@V12@U?$less@V?$basic_string@DU?$char_traits@D@std@@V?$allocator@D@2@@std@@@2@V?$allocator@U?$pair@$$CBV?$basic_string@DU?$char_traits@D@std@@V?$allocator@D@2@@std@@V12@@std@@@2@$0A@@std@@@2@I@Z 1003f6b0 f i PlugInLib:PlugInShell.obj
 0001:0003e710       ??E?$_Tree_const_iterator@V?$_Tree_val@V?$_Tmap_traits@V?$basic_string@DU?$char_traits@D@std@@V?$allocator@D@2@@std@@V12@U?$less@V?$basic_string@DU?$char_traits@D@std@@V?$allocator@D@2@@std@@@2@V?$allocator@U?$pair@$$CBV?$basic_string@DU?$char_traits@D@std@@V?$allocator@D@2@@std@@V12@@std@@@2@$0A@@std@@@std@@@std@@QAE?AV01@H@Z 1003f710 f i PlugInLib:PlugInShell.obj
 0001:0003e730       ?_Buynode@?$_Tree_val@V?$_Tmap_traits@V?$basic_string@DU?$char_traits@D@std@@V?$allocator@D@2@@std@@V12@U?$less@V?$basic_string@DU?$char_traits@D@std@@V?$allocator@D@2@@std@@@2@V?$allocator@U?$pair@$$CBV?$basic_string@DU?$char_traits@D@std@@V?$allocator@D@2@@std@@V12@@std@@@2@$0A@@std@@@std@@QAEPAU_Node@?$_Tree_nod@V?$_Tmap_traits@V?$basic_string@DU?$char_traits@D@std@@V?$allocator@D@2@@std@@V12@U?$less@V?$basic_string@DU?$char_traits@D@std@@V?$allocator@D@2@@std@@@2@V?$allocator@U?$pair@$$CBV?$basic_string@DU?$char_traits@D@std@@V?$allocator@D@2@@std@@V12@@std@@@2@$0A@@std@@@2@XZ 1003f730 f i PlugInLib:PlugInShell.obj
 0001:0003e790       ??0?$_Tree_const_iterator@V?$_Tree_val@V?$_Tmap_traits@V?$basic_string@DU?$char_traits@D@std@@V?$allocator@D@2@@std@@V12@U?$less@V?$basic_string@DU?$char_traits@D@std@@V?$allocator@D@2@@std@@@2@V?$allocator@U?$pair@$$CBV?$basic_string@DU?$char_traits@D@std@@V?$allocator@D@2@@std@@V12@@std@@@2@$0A@@std@@@std@@@std@@QAE@XZ 1003f790 f i PlugInLib:PlugInShell.obj
 0001:0003e7a0       ??F?$_Tree_const_iterator@V?$_Tree_val@V?$_Tmap_traits@V?$basic_string@DU?$char_traits@D@std@@V?$allocator@D@2@@std@@V12@U?$less@V?$basic_string@DU?$char_traits@D@std@@V?$allocator@D@2@@std@@@2@V?$allocator@U?$pair@$$CBV?$basic_string@DU?$char_traits@D@std@@V?$allocator@D@2@@std@@V12@@std@@@2@$0A@@std@@@std@@@std@@QAEAAV01@XZ 1003f7a0 f i PlugInLib:PlugInShell.obj
 0001:0003e7b0       ?max_size@?$_Tree@V?$_Tmap_traits@V?$basic_string@DU?$char_traits@D@std@@V?$allocator@D@2@@std@@V12@U?$less@V?$basic_string@DU?$char_traits@D@std@@V?$allocator@D@2@@std@@@2@V?$allocator@U?$pair@$$CBV?$basic_string@DU?$char_traits@D@std@@V?$allocator@D@2@@std@@V12@@std@@@2@$0A@@std@@@std@@QBEIXZ 1003f7b0 f i PlugInLib:PlugInShell.obj
 0001:0003e7c0       ??F?$_Tree_iterator@V?$_Tree_val@V?$_Tmap_traits@V?$basic_string@DU?$char_traits@D@std@@V?$allocator@D@2@@std@@V12@U?$less@V?$basic_string@DU?$char_traits@D@std@@V?$allocator@D@2@@std@@@2@V?$allocator@U?$pair@$$CBV?$basic_string@DU?$char_traits@D@std@@V?$allocator@D@2@@std@@V12@@std@@@2@$0A@@std@@@std@@@std@@QAEAAV01@XZ 1003f7c0 f i PlugInLib:PlugInShell.obj
 0001:0003e7d0       ??0?$_Pair_base@V?$_Tree_iterator@V?$_Tree_val@V?$_Tmap_traits@V?$basic_string@DU?$char_traits@D@std@@V?$allocator@D@2@@std@@V12@U?$less@V?$basic_string@DU?$char_traits@D@std@@V?$allocator@D@2@@std@@@2@V?$allocator@U?$pair@$$CBV?$basic_string@DU?$char_traits@D@std@@V?$allocator@D@2@@std@@V12@@std@@@2@$0A@@std@@@std@@@std@@_N@std@@QAE@$$QAV?$_Tree_iterator@V?$_Tree_val@V?$_Tmap_traits@V?$basic_string@DU?$char_traits@D@std@@V?$allocator@D@2@@std@@V12@U?$less@V?$basic_string@DU?$char_traits@D@std@@V?$allocator@D@2@@std@@@2@V?$allocator@U?$pair@$$CBV?$basic_string@DU?$char_traits@D@std@@V?$allocator@D@2@@std@@V12@@std@@@2@$0A@@std@@@std@@@1@$$QA_N@Z 1003f7d0 f i PlugInLib:PlugInShell.obj
 0001:0003e7f0       ??$?0AAV?$_Tree_iterator@V?$_Tree_val@V?$_Tmap_traits@V?$basic_string@DU?$char_traits@D@std@@V?$allocator@D@2@@std@@V12@U?$less@V?$basic_string@DU?$char_traits@D@std@@V?$allocator@D@2@@std@@@2@V?$allocator@U?$pair@$$CBV?$basic_string@DU?$char_traits@D@std@@V?$allocator@D@2@@std@@V12@@std@@@2@$0A@@std@@@std@@@std@@_N@?$pair@V?$_Tree_iterator@V?$_Tree_val@V?$_Tmap_traits@V?$basic_string@DU?$char_traits@D@std@@V?$allocator@D@2@@std@@V12@U?$less@V?$basic_string@DU?$char_traits@D@std@@V?$allocator@D@2@@std@@@2@V?$allocator@U?$pair@$$CBV?$basic_string@DU?$char_traits@D@std@@V?$allocator@D@2@@std@@V12@@std@@@2@$0A@@std@@@std@@@std@@_N@std@@QAE@AAV?$_Tree_iterator@V?$_Tree_val@V?$_Tmap_traits@V?$basic_string@DU?$char_traits@D@std@@V?$allocator@D@2@@std@@V12@U?$less@V?$basic_string@DU?$char_traits@D@std@@V?$allocator@D@2@@std@@@2@V?$allocator@U?$pair@$$CBV?$basic_string@DU?$char_traits@D@std@@V?$allocator@D@2@@std@@V12@@std@@@2@$0A@@std@@@std@@@1@$$QA_N@Z 1003f7f0 f i PlugInLib:PlugInShell.obj
 0001:0003e810       ?getId@PlugInShell@@UBEABV?$basic_string@DU?$char_traits@D@std@@V?$allocator@D@2@@std@@XZ 1003f810 f   PlugInLib:PlugInShell.obj
 0001:0003e820       ?getIcon@PlugInShell@@UBEABVQIcon@@XZ 1003f820 f   PlugInLib:PlugInShell.obj
 0001:0003e830       ?getName@PlugInShell@@UBEABV?$basic_string@DU?$char_traits@D@std@@V?$allocator@D@2@@std@@XZ 1003f830 f   PlugInLib:PlugInShell.obj
 0001:0003e840       ?getDisplayName@PlugInShell@@UBEABV?$basic_string@DU?$char_traits@D@std@@V?$allocator@D@2@@std@@_N@Z 1003f840 f   PlugInLib:PlugInShell.obj
 0001:0003e850       ?getDisplayText@PlugInShell@@UBEABV?$basic_string@DU?$char_traits@D@std@@V?$allocator@D@2@@std@@XZ 1003f850 f   PlugInLib:PlugInShell.obj
 0001:0003e860       ?hasFilenameDisplay@PlugInShell@@UBE_NXZ 1003f860 f   PlugInLib:PlugInShell.obj
 0001:0003e870       ?setId@PlugInShell@@UAE_NABVSessionItemId@@@Z 1003f870 f   PlugInLib:PlugInShell.obj
 0001:0003e880       ?setName@PlugInShell@@IAEXABV?$basic_string@DU?$char_traits@D@std@@V?$allocator@D@2@@std@@@Z 1003f880 f   PlugInLib:PlugInShell.obj
 0001:0003e890       ?setDisplayName@PlugInShell@@IAEXABV?$basic_string@DU?$char_traits@D@std@@V?$allocator@D@2@@std@@@Z 1003f890 f   PlugInLib:PlugInShell.obj
 0001:0003e8a0       ?setDisplayText@PlugInShell@@IAEXABV?$basic_string@DU?$char_traits@D@std@@V?$allocator@D@2@@std@@@Z 1003f8a0 f   PlugInLib:PlugInShell.obj
 0001:0003e8b0       ?addContextMenuAction@PlugInShell@@IAEXABUContextMenuAction@@@Z 1003f8b0 f   PlugInLib:PlugInShell.obj
 0001:0003e8c0       ?setContextMenuActions@PlugInShell@@IAEXABV?$list@UContextMenuAction@@V?$allocator@UContextMenuAction@@@std@@@std@@@Z 1003f8c0 f   PlugInLib:PlugInShell.obj
 0001:0003e8d0       ?setFilenameDisplay@PlugInShell@@IAEX_N@Z 1003f8d0 f   PlugInLib:PlugInShell.obj
 0001:0003e8e0       ?addPropertiesPage@PlugInShell@@IAEXABV?$basic_string@DU?$char_traits@D@std@@V?$allocator@D@2@@std@@@Z 1003f8e0 f   PlugInLib:PlugInShell.obj
 0001:0003e8f0       ?removePropertiesPage@PlugInShell@@IAEXABV?$basic_string@DU?$char_traits@D@std@@V?$allocator@D@2@@std@@@Z 1003f8f0 f   PlugInLib:PlugInShell.obj
 0001:0003e900       ?setPropertiesPages@PlugInShell@@IAEXABV?$vector@V?$basic_string@DU?$char_traits@D@std@@V?$allocator@D@2@@std@@V?$allocator@V?$basic_string@DU?$char_traits@D@std@@V?$allocator@D@2@@std@@@2@@std@@@Z 1003f900 f   PlugInLib:PlugInShell.obj
 0001:0003e910       ?isValidSessionSaveItem@PlugInShell@@UBE_NXZ 1003f910 f   PlugInLib:PlugInShell.obj
 0001:0003e920       ?setValidSessionSaveItem@PlugInShell@@IAEX_N@Z 1003f920 f   PlugInLib:PlugInShell.obj
 0001:0003e930       ?_Lrotate@?$_Tree@V?$_Tmap_traits@V?$basic_string@DU?$char_traits@D@std@@V?$allocator@D@2@@std@@V12@U?$less@V?$basic_string@DU?$char_traits@D@std@@V?$allocator@D@2@@std@@@2@V?$allocator@U?$pair@$$CBV?$basic_string@DU?$char_traits@D@std@@V?$allocator@D@2@@std@@V12@@std@@@2@$0A@@std@@@std@@IAEXPAU_Node@?$_Tree_nod@V?$_Tmap_traits@V?$basic_string@DU?$char_traits@D@std@@V?$allocator@D@2@@std@@V12@U?$less@V?$basic_string@DU?$char_traits@D@std@@V?$allocator@D@2@@std@@@2@V?$allocator@U?$pair@$$CBV?$basic_string@DU?$char_traits@D@std@@V?$allocator@D@2@@std@@V12@@std@@@2@$0A@@std@@@2@@Z 1003f930 f i PlugInLib:PlugInShell.obj
 0001:0003e980       ??0?$_Tree_iterator@V?$_Tree_val@V?$_Tmap_traits@V?$basic_string@DU?$char_traits@D@std@@V?$allocator@D@2@@std@@V12@U?$less@V?$basic_string@DU?$char_traits@D@std@@V?$allocator@D@2@@std@@@2@V?$allocator@U?$pair@$$CBV?$basic_string@DU?$char_traits@D@std@@V?$allocator@D@2@@std@@V12@@std@@@2@$0A@@std@@@std@@@std@@QAE@PAU_Node@?$_Tree_nod@V?$_Tmap_traits@V?$basic_string@DU?$char_traits@D@std@@V?$allocator@D@2@@std@@V12@U?$less@V?$basic_string@DU?$char_traits@D@std@@V?$allocator@D@2@@std@@@2@V?$allocator@U?$pair@$$CBV?$basic_string@DU?$char_traits@D@std@@V?$allocator@D@2@@std@@V12@@std@@@2@$0A@@std@@@1@PBV?$_Tree_val@V?$_Tmap_traits@V?$basic_string@DU?$char_traits@D@std@@V?$allocator@D@2@@std@@V12@U?$less@V?$basic_string@DU?$char_traits@D@std@@V?$allocator@D@2@@std@@@2@V?$allocator@U?$pair@$$CBV?$basic_string@DU?$char_traits@D@std@@V?$allocator@D@2@@std@@V12@@std@@@2@$0A@@std@@@1@@Z 1003f980 f i PlugInLib:PlugInShell.obj
 0001:0003e990       ?begin@?$_Tree@V?$_Tmap_traits@V?$basic_string@DU?$char_traits@D@std@@V?$allocator@D@2@@std@@V12@U?$less@V?$basic_string@DU?$char_traits@D@std@@V?$allocator@D@2@@std@@@2@V?$allocator@U?$pair@$$CBV?$basic_string@DU?$char_traits@D@std@@V?$allocator@D@2@@std@@V12@@std@@@2@$0A@@std@@@std@@QAE?AV?$_Tree_iterator@V?$_Tree_val@V?$_Tmap_traits@V?$basic_string@DU?$char_traits@D@std@@V?$allocator@D@2@@std@@V12@U?$less@V?$basic_string@DU?$char_traits@D@std@@V?$allocator@D@2@@std@@@2@V?$allocator@U?$pair@$$CBV?$basic_string@DU?$char_traits@D@std@@V?$allocator@D@2@@std@@V12@@std@@@2@$0A@@std@@@std@@@2@XZ 1003f990 f i PlugInLib:PlugInShell.obj
 0001:0003e9a0       ??0?$_Tree_val@V?$_Tmap_traits@V?$basic_string@DU?$char_traits@D@std@@V?$allocator@D@2@@std@@V12@U?$less@V?$basic_string@DU?$char_traits@D@std@@V?$allocator@D@2@@std@@@2@V?$allocator@U?$pair@$$CBV?$basic_string@DU?$char_traits@D@std@@V?$allocator@D@2@@std@@V12@@std@@@2@$0A@@std@@@std@@QAE@ABU?$less@V?$basic_string@DU?$char_traits@D@std@@V?$allocator@D@2@@std@@@1@V?$allocator@U?$pair@$$CBV?$basic_string@DU?$char_traits@D@std@@V?$allocator@D@2@@std@@V12@@std@@@1@@Z 1003f9a0 f i PlugInLib:PlugInShell.obj
 0001:0003ea20       ??0?$pair@V?$_Tree_iterator@V?$_Tree_val@V?$_Tmap_traits@V?$basic_string@DU?$char_traits@D@std@@V?$allocator@D@2@@std@@V12@U?$less@V?$basic_string@DU?$char_traits@D@std@@V?$allocator@D@2@@std@@@2@V?$allocator@U?$pair@$$CBV?$basic_string@DU?$char_traits@D@std@@V?$allocator@D@2@@std@@V12@@std@@@2@$0A@@std@@@std@@@std@@_N@std@@QAE@$$QAV?$_Tree_iterator@V?$_Tree_val@V?$_Tmap_traits@V?$basic_string@DU?$char_traits@D@std@@V?$allocator@D@2@@std@@V12@U?$less@V?$basic_string@DU?$char_traits@D@std@@V?$allocator@D@2@@std@@@2@V?$allocator@U?$pair@$$CBV?$basic_string@DU?$char_traits@D@std@@V?$allocator@D@2@@std@@V12@@std@@@2@$0A@@std@@@std@@@1@$$QA_N@Z 1003fa20 f i PlugInLib:PlugInShell.obj
 0001:0003ea40       ?end@?$_Tree@V?$_Tmap_traits@V?$basic_string@DU?$char_traits@D@std@@V?$allocator@D@2@@std@@V12@U?$less@V?$basic_string@DU?$char_traits@D@std@@V?$allocator@D@2@@std@@@2@V?$allocator@U?$pair@$$CBV?$basic_string@DU?$char_traits@D@std@@V?$allocator@D@2@@std@@V12@@std@@@2@$0A@@std@@@std@@QAE?AV?$_Tree_iterator@V?$_Tree_val@V?$_Tmap_traits@V?$basic_string@DU?$char_traits@D@std@@V?$allocator@D@2@@std@@V12@U?$less@V?$basic_string@DU?$char_traits@D@std@@V?$allocator@D@2@@std@@@2@V?$allocator@U?$pair@$$CBV?$basic_string@DU?$char_traits@D@std@@V?$allocator@D@2@@std@@V12@@std@@@2@$0A@@std@@@std@@@2@XZ 1003fa40 f i PlugInLib:PlugInShell.obj
 0001:0003ea50       ??1Args@FactoryAllocator@@QAE@XZ 1003fa50 f i PlugInLib:PlugInShell.obj
 0001:0003ea80       ??1?$_Pair_base@$$CBV?$basic_string@DU?$char_traits@D@std@@V?$allocator@D@2@@std@@V12@@std@@QAE@XZ 1003fa80 f i PlugInLib:PlugInShell.obj
 0001:0003ead0       ??0?$_Tree@V?$_Tmap_traits@V?$basic_string@DU?$char_traits@D@std@@V?$allocator@D@2@@std@@V12@U?$less@V?$basic_string@DU?$char_traits@D@std@@V?$allocator@D@2@@std@@@2@V?$allocator@U?$pair@$$CBV?$basic_string@DU?$char_traits@D@std@@V?$allocator@D@2@@std@@V12@@std@@@2@$0A@@std@@@std@@QAE@ABU?$less@V?$basic_string@DU?$char_traits@D@std@@V?$allocator@D@2@@std@@@1@ABV?$allocator@U?$pair@$$CBV?$basic_string@DU?$char_traits@D@std@@V?$allocator@D@2@@std@@V12@@std@@@1@@Z 1003fad0 f i PlugInLib:PlugInShell.obj
 0001:0003eb50       ??R?$less@V?$basic_string@DU?$char_traits@D@std@@V?$allocator@D@2@@std@@@std@@QBE_NABV?$basic_string@DU?$char_traits@D@std@@V?$allocator@D@2@@1@0@Z 1003fb50 f i PlugInLib:PlugInShell.obj
 0001:0003eb80       ?_Lbound@?$_Tree@V?$_Tmap_traits@V?$basic_string@DU?$char_traits@D@std@@V?$allocator@D@2@@std@@V12@U?$less@V?$basic_string@DU?$char_traits@D@std@@V?$allocator@D@2@@std@@@2@V?$allocator@U?$pair@$$CBV?$basic_string@DU?$char_traits@D@std@@V?$allocator@D@2@@std@@V12@@std@@@2@$0A@@std@@@std@@IAEPAU_Node@?$_Tree_nod@V?$_Tmap_traits@V?$basic_string@DU?$char_traits@D@std@@V?$allocator@D@2@@std@@V12@U?$less@V?$basic_string@DU?$char_traits@D@std@@V?$allocator@D@2@@std@@@2@V?$allocator@U?$pair@$$CBV?$basic_string@DU?$char_traits@D@std@@V?$allocator@D@2@@std@@V12@@std@@@2@$0A@@std@@@2@ABV?$basic_string@DU?$char_traits@D@std@@V?$allocator@D@2@@2@@Z 1003fb80 f i PlugInLib:PlugInShell.obj
 0001:0003ec10       ??1ContextMenuAction@@QAE@XZ 1003fc10 f i PlugInLib:PlugInShell.obj
 0001:0003ec60       ??1?$pair@$$CBV?$basic_string@DU?$char_traits@D@std@@V?$allocator@D@2@@std@@V12@@std@@QAE@XZ 1003fc60 f i PlugInLib:PlugInShell.obj
 0001:0003ecb0       ?lower_bound@?$_Tree@V?$_Tmap_traits@V?$basic_string@DU?$char_traits@D@std@@V?$allocator@D@2@@std@@V12@U?$less@V?$basic_string@DU?$char_traits@D@std@@V?$allocator@D@2@@std@@@2@V?$allocator@U?$pair@$$CBV?$basic_string@DU?$char_traits@D@std@@V?$allocator@D@2@@std@@V12@@std@@@2@$0A@@std@@@std@@QAE?AV?$_Tree_iterator@V?$_Tree_val@V?$_Tmap_traits@V?$basic_string@DU?$char_traits@D@std@@V?$allocator@D@2@@std@@V12@U?$less@V?$basic_string@DU?$char_traits@D@std@@V?$allocator@D@2@@std@@@2@V?$allocator@U?$pair@$$CBV?$basic_string@DU?$char_traits@D@std@@V?$allocator@D@2@@std@@V12@@std@@@2@$0A@@std@@@std@@@2@ABV?$basic_string@DU?$char_traits@D@std@@V?$allocator@D@2@@2@@Z 1003fcb0 f i PlugInLib:PlugInShell.obj
 0001:0003ecd0       ??_G?$pair@$$CBV?$basic_string@DU?$char_traits@D@std@@V?$allocator@D@2@@std@@V12@@std@@QAEPAXI@Z 1003fcd0 f i PlugInLib:PlugInShell.obj
 0001:0003ed30       ??1_Node@?$_List_nod@UContextMenuAction@@V?$allocator@UContextMenuAction@@@std@@@std@@QAE@XZ 1003fd30 f i PlugInLib:PlugInShell.obj
 0001:0003ed80       ?find@?$_Tree@V?$_Tmap_traits@V?$basic_string@DU?$char_traits@D@std@@V?$allocator@D@2@@std@@V12@U?$less@V?$basic_string@DU?$char_traits@D@std@@V?$allocator@D@2@@std@@@2@V?$allocator@U?$pair@$$CBV?$basic_string@DU?$char_traits@D@std@@V?$allocator@D@2@@std@@V12@@std@@@2@$0A@@std@@@std@@QAE?AV?$_Tree_iterator@V?$_Tree_val@V?$_Tmap_traits@V?$basic_string@DU?$char_traits@D@std@@V?$allocator@D@2@@std@@V12@U?$less@V?$basic_string@DU?$char_traits@D@std@@V?$allocator@D@2@@std@@@2@V?$allocator@U?$pair@$$CBV?$basic_string@DU?$char_traits@D@std@@V?$allocator@D@2@@std@@V12@@std@@@2@$0A@@std@@@std@@@2@ABV?$basic_string@DU?$char_traits@D@std@@V?$allocator@D@2@@2@@Z 1003fd80 f i PlugInLib:PlugInShell.obj
 0001:0003edf0       ??0Args@FactoryAllocator@@QAE@ABV01@@Z 1003fdf0 f i PlugInLib:PlugInShell.obj
 0001:0003ee20       ??$_Destroy@U?$pair@$$CBV?$basic_string@DU?$char_traits@D@std@@V?$allocator@D@2@@std@@V12@@std@@@std@@YAXPAU?$pair@$$CBV?$basic_string@DU?$char_traits@D@std@@V?$allocator@D@2@@std@@V12@@0@@Z 1003fe20 f i PlugInLib:PlugInShell.obj
 0001:0003ee70       ??_G_Node@?$_List_nod@UContextMenuAction@@V?$allocator@UContextMenuAction@@@std@@@std@@QAEPAXI@Z 1003fe70 f i PlugInLib:PlugInShell.obj
 0001:0003eed0       ??$?0ABV?$basic_string@DU?$char_traits@D@std@@V?$allocator@D@2@@std@@AAV01@@?$_Pair_base@$$CBV?$basic_string@DU?$char_traits@D@std@@V?$allocator@D@2@@std@@V12@@std@@QAE@ABV?$basic_string@DU?$char_traits@D@std@@V?$allocator@D@2@@1@AAV21@@Z 1003fed0 f i PlugInLib:PlugInShell.obj
 0001:0003ef50       ?getVersion@PlugInShell@@UBE?AV?$basic_string@DU?$char_traits@D@std@@V?$allocator@D@2@@std@@XZ 1003ff50 f   PlugInLib:PlugInShell.obj
 0001:0003ef80       ?getCreator@PlugInShell@@UBE?AV?$basic_string@DU?$char_traits@D@std@@V?$allocator@D@2@@std@@XZ 1003ff80 f   PlugInLib:PlugInShell.obj
 0001:0003efb0       ?getCopyright@PlugInShell@@UBE?AV?$basic_string@DU?$char_traits@D@std@@V?$allocator@D@2@@std@@XZ 1003ffb0 f   PlugInLib:PlugInShell.obj
 0001:0003efe0       ?getDescription@PlugInShell@@UBE?AV?$basic_string@DU?$char_traits@D@std@@V?$allocator@D@2@@std@@XZ 1003ffe0 f   PlugInLib:PlugInShell.obj
 0001:0003f010       ?getShortDescription@PlugInShell@@UBE?AV?$basic_string@DU?$char_traits@D@std@@V?$allocator@D@2@@std@@XZ 10040010 f   PlugInLib:PlugInShell.obj
 0001:0003f040       ?getDescriptorId@PlugInShell@@UBE?AV?$basic_string@DU?$char_traits@D@std@@V?$allocator@D@2@@std@@XZ 10040040 f   PlugInLib:PlugInShell.obj
 0001:0003f070       ?getType@PlugInShell@@UBE?AV?$basic_string@DU?$char_traits@D@std@@V?$allocator@D@2@@std@@XZ 10040070 f   PlugInLib:PlugInShell.obj
 0001:0003f0a0       ?getSubtype@PlugInShell@@UBE?AV?$basic_string@DU?$char_traits@D@std@@V?$allocator@D@2@@std@@XZ 100400a0 f   PlugInLib:PlugInShell.obj
 0001:0003f0d0       ?destroy@?$allocator@U?$pair@$$CBV?$basic_string@DU?$char_traits@D@std@@V?$allocator@D@2@@std@@V12@@std@@@std@@QAEXPAU?$pair@$$CBV?$basic_string@DU?$char_traits@D@std@@V?$allocator@D@2@@std@@V12@@2@@Z 100400d0 f i PlugInLib:PlugInShell.obj
 0001:0003f120       ??$_Destroy@U_Node@?$_List_nod@UContextMenuAction@@V?$allocator@UContextMenuAction@@@std@@@std@@@std@@YAXPAU_Node@?$_List_nod@UContextMenuAction@@V?$allocator@UContextMenuAction@@@std@@@0@@Z 10040120 f i PlugInLib:PlugInShell.obj
 0001:0003f170       ??$?0$$CBV?$basic_string@DU?$char_traits@D@std@@V?$allocator@D@2@@std@@V01@@?$pair@$$CBV?$basic_string@DU?$char_traits@D@std@@V?$allocator@D@2@@std@@V12@@std@@QAE@AAU01@@Z 10040170 f i PlugInLib:PlugInShell.obj
 0001:0003f1f0       ??0Args@FactoryAllocator@@QAE@PBD@Z 100401f0 f i PlugInLib:PlugInShell.obj
 0001:0003f230       ?obtainResource@FactoryObject@@QBEPAXABVArgs@FactoryAllocator@@@Z 10040230 f i PlugInLib:PlugInShell.obj
 0001:0003f2e0       ?releaseResource@FactoryObject@@QBEXABVArgs@FactoryAllocator@@PAX@Z 100402e0 f i PlugInLib:PlugInShell.obj
 0001:0003f390       ?setVersion@PlugInShell@@IAEXABV?$basic_string@DU?$char_traits@D@std@@V?$allocator@D@2@@std@@@Z 10040390 f   PlugInLib:PlugInShell.obj
 0001:0003f3b0       ?setCreator@PlugInShell@@IAEXABV?$basic_string@DU?$char_traits@D@std@@V?$allocator@D@2@@std@@@Z 100403b0 f   PlugInLib:PlugInShell.obj
 0001:0003f3d0       ?setCopyright@PlugInShell@@IAEXABV?$basic_string@DU?$char_traits@D@std@@V?$allocator@D@2@@std@@@Z 100403d0 f   PlugInLib:PlugInShell.obj
 0001:0003f3f0       ?setDescription@PlugInShell@@IAEXABV?$basic_string@DU?$char_traits@D@std@@V?$allocator@D@2@@std@@@Z 100403f0 f   PlugInLib:PlugInShell.obj
 0001:0003f410       ?setShortDescription@PlugInShell@@IAEXABV?$basic_string@DU?$char_traits@D@std@@V?$allocator@D@2@@std@@@Z 10040410 f   PlugInLib:PlugInShell.obj
 0001:0003f430       ?setDescriptorId@PlugInShell@@IAEXABV?$basic_string@DU?$char_traits@D@std@@V?$allocator@D@2@@std@@@Z 10040430 f   PlugInLib:PlugInShell.obj
 0001:0003f450       ?setType@PlugInShell@@IAEXABV?$basic_string@DU?$char_traits@D@std@@V?$allocator@D@2@@std@@@Z 10040450 f   PlugInLib:PlugInShell.obj
 0001:0003f470       ?setSubtype@PlugInShell@@IAEXABV?$basic_string@DU?$char_traits@D@std@@V?$allocator@D@2@@std@@@Z 10040470 f   PlugInLib:PlugInShell.obj
 0001:0003f490       ??0?$Resource@VSettableSessionItem@@VFactoryObject@@@@QAE@ABVArgs@FactoryAllocator@@@Z 10040490 f i PlugInLib:PlugInShell.obj
 0001:0003f510       ?destroyIfOwned@?$Resource@VSettableSessionItem@@VFactoryObject@@@@IAEXXZ 10040510 f i PlugInLib:PlugInShell.obj
 0001:0003f540       ??0?$_Pair_base@$$CBV?$basic_string@DU?$char_traits@D@std@@V?$allocator@D@2@@std@@V12@@std@@QAE@ABV?$basic_string@DU?$char_traits@D@std@@V?$allocator@D@2@@1@$$QAV21@@Z 10040540 f i PlugInLib:PlugInShell.obj
 0001:0003f5c0       ??$_Dest_val@V?$allocator@U?$pair@$$CBV?$basic_string@DU?$char_traits@D@std@@V?$allocator@D@2@@std@@V12@@std@@@std@@U?$pair@$$CBV?$basic_string@DU?$char_traits@D@std@@V?$allocator@D@2@@std@@V12@@2@@std@@YAXAAV?$allocator@U?$pair@$$CBV?$basic_string@DU?$char_traits@D@std@@V?$allocator@D@2@@std@@V12@@std@@@0@PAU?$pair@$$CBV?$basic_string@DU?$char_traits@D@std@@V?$allocator@D@2@@std@@V12@@0@@Z 100405c0 f i PlugInLib:PlugInShell.obj
 0001:0003f610       ?destroy@?$allocator@U_Node@?$_List_nod@UContextMenuAction@@V?$allocator@UContextMenuAction@@@std@@@std@@@std@@QAEXPAU_Node@?$_List_nod@UContextMenuAction@@V?$allocator@UContextMenuAction@@@std@@@2@@Z 10040610 f i PlugInLib:PlugInShell.obj
 0001:0003f660       ?_Insert@?$_Tree@V?$_Tmap_traits@V?$basic_string@DU?$char_traits@D@std@@V?$allocator@D@2@@std@@V12@U?$less@V?$basic_string@DU?$char_traits@D@std@@V?$allocator@D@2@@std@@@2@V?$allocator@U?$pair@$$CBV?$basic_string@DU?$char_traits@D@std@@V?$allocator@D@2@@std@@V12@@std@@@2@$0A@@std@@@std@@IAE?AV?$_Tree_iterator@V?$_Tree_val@V?$_Tmap_traits@V?$basic_string@DU?$char_traits@D@std@@V?$allocator@D@2@@std@@V12@U?$less@V?$basic_string@DU?$char_traits@D@std@@V?$allocator@D@2@@std@@@2@V?$allocator@U?$pair@$$CBV?$basic_string@DU?$char_traits@D@std@@V?$allocator@D@2@@std@@V12@@std@@@2@$0A@@std@@@std@@@2@_NPAU_Node@?$_Tree_nod@V?$_Tmap_traits@V?$basic_string@DU?$char_traits@D@std@@V?$allocator@D@2@@std@@V12@U?$less@V?$basic_string@DU?$char_traits@D@std@@V?$allocator@D@2@@std@@@2@V?$allocator@U?$pair@$$CBV?$basic_string@DU?$char_traits@D@std@@V?$allocator@D@2@@std@@V12@@std@@@2@$0A@@std@@@2@1@Z 10040660 f i PlugInLib:PlugInShell.obj
 0001:0003f8a0       ??$construct@AAU?$pair@$$CBV?$basic_string@DU?$char_traits@D@std@@V?$allocator@D@2@@std@@V12@@std@@@?$allocator@U?$pair@$$CBV?$basic_string@DU?$char_traits@D@std@@V?$allocator@D@2@@std@@V12@@std@@@std@@QAEXPAU?$pair@$$CBV?$basic_string@DU?$char_traits@D@std@@V?$allocator@D@2@@std@@V12@@1@AAU21@@Z 100408a0 f i PlugInLib:PlugInShell.obj
 0001:0003f930       ??0?$_Pair_base@$$CBV?$basic_string@DU?$char_traits@D@std@@V?$allocator@D@2@@std@@V12@@std@@QAE@$$QBV?$basic_string@DU?$char_traits@D@std@@V?$allocator@D@2@@1@$$QAV21@@Z 10040930 f i PlugInLib:PlugInShell.obj
 0001:0003f9b0       ??1?$Resource@VSettableSessionItem@@VFactoryObject@@@@UAE@XZ 100409b0 f i PlugInLib:PlugInShell.obj
 0001:0003fa30       ?erase@?$_Tree@V?$_Tmap_traits@V?$basic_string@DU?$char_traits@D@std@@V?$allocator@D@2@@std@@V12@U?$less@V?$basic_string@DU?$char_traits@D@std@@V?$allocator@D@2@@std@@@2@V?$allocator@U?$pair@$$CBV?$basic_string@DU?$char_traits@D@std@@V?$allocator@D@2@@std@@V12@@std@@@2@$0A@@std@@@std@@QAE?AV?$_Tree_iterator@V?$_Tree_val@V?$_Tmap_traits@V?$basic_string@DU?$char_traits@D@std@@V?$allocator@D@2@@std@@V12@U?$less@V?$basic_string@DU?$char_traits@D@std@@V?$allocator@D@2@@std@@@2@V?$allocator@U?$pair@$$CBV?$basic_string@DU?$char_traits@D@std@@V?$allocator@D@2@@std@@V12@@std@@@2@$0A@@std@@@std@@@2@V?$_Tree_const_iterator@V?$_Tree_val@V?$_Tmap_traits@V?$basic_string@DU?$char_traits@D@std@@V?$allocator@D@2@@std@@V12@U?$less@V?$basic_string@DU?$char_traits@D@std@@V?$allocator@D@2@@std@@@2@V?$allocator@U?$pair@$$CBV?$basic_string@DU?$char_traits@D@std@@V?$allocator@D@2@@std@@V12@@std@@@2@$0A@@std@@@std@@@2@@Z 10040a30 f i PlugInLib:PlugInShell.obj
 0001:0003fcc0       ??_E?$Resource@VSettableSessionItem@@VFactoryObject@@@@UAEPAXI@Z 10040cc0 f i PlugInLib:PlugInShell.obj
 0001:0003fcc0       ??_G?$Resource@VSettableSessionItem@@VFactoryObject@@@@UAEPAXI@Z 10040cc0 f i PlugInLib:PlugInShell.obj
 0001:0003fd50       ??0?$pair@$$CBV?$basic_string@DU?$char_traits@D@std@@V?$allocator@D@2@@std@@V12@@std@@QAE@ABV?$basic_string@DU?$char_traits@D@std@@V?$allocator@D@2@@1@$$QAV21@@Z 10040d50 f i PlugInLib:PlugInShell.obj
 0001:0003fdd0       ?_Erase@?$_Tree@V?$_Tmap_traits@V?$basic_string@DU?$char_traits@D@std@@V?$allocator@D@2@@std@@V12@U?$less@V?$basic_string@DU?$char_traits@D@std@@V?$allocator@D@2@@std@@@2@V?$allocator@U?$pair@$$CBV?$basic_string@DU?$char_traits@D@std@@V?$allocator@D@2@@std@@V12@@std@@@2@$0A@@std@@@std@@IAEXPAU_Node@?$_Tree_nod@V?$_Tmap_traits@V?$basic_string@DU?$char_traits@D@std@@V?$allocator@D@2@@std@@V12@U?$less@V?$basic_string@DU?$char_traits@D@std@@V?$allocator@D@2@@std@@@2@V?$allocator@U?$pair@$$CBV?$basic_string@DU?$char_traits@D@std@@V?$allocator@D@2@@std@@V12@@std@@@2@$0A@@std@@@2@@Z 10040dd0 f i PlugInLib:PlugInShell.obj
 0001:0003fe50       ??$_Dest_val@V?$allocator@U_Node@?$_List_nod@UContextMenuAction@@V?$allocator@UContextMenuAction@@@std@@@std@@@std@@U_Node@?$_List_nod@UContextMenuAction@@V?$allocator@UContextMenuAction@@@std@@@2@@std@@YAXAAV?$allocator@U_Node@?$_List_nod@UContextMenuAction@@V?$allocator@UContextMenuAction@@@std@@@std@@@0@PAU_Node@?$_List_nod@UContextMenuAction@@V?$allocator@UContextMenuAction@@@std@@@0@@Z 10040e50 f i PlugInLib:PlugInShell.obj
 0001:0003fea0       ?_Linsert@?$_Tree@V?$_Tmap_traits@V?$basic_string@DU?$char_traits@D@std@@V?$allocator@D@2@@std@@V12@U?$less@V?$basic_string@DU?$char_traits@D@std@@V?$allocator@D@2@@std@@@2@V?$allocator@U?$pair@$$CBV?$basic_string@DU?$char_traits@D@std@@V?$allocator@D@2@@std@@V12@@std@@@2@$0A@@std@@@std@@QAE?AU?$pair@V?$_Tree_iterator@V?$_Tree_val@V?$_Tmap_traits@V?$basic_string@DU?$char_traits@D@std@@V?$allocator@D@2@@std@@V12@U?$less@V?$basic_string@DU?$char_traits@D@std@@V?$allocator@D@2@@std@@@2@V?$allocator@U?$pair@$$CBV?$basic_string@DU?$char_traits@D@std@@V?$allocator@D@2@@std@@V12@@std@@@2@$0A@@std@@@std@@@std@@_N@2@PAU_Node@?$_Tree_nod@V?$_Tmap_traits@V?$basic_string@DU?$char_traits@D@std@@V?$allocator@D@2@@std@@V12@U?$less@V?$basic_string@DU?$char_traits@D@std@@V?$allocator@D@2@@std@@@2@V?$allocator@U?$pair@$$CBV?$basic_string@DU?$char_traits@D@std@@V?$allocator@D@2@@std@@V12@@std@@@2@$0A@@std@@@2@_N@Z 10040ea0 f i PlugInLib:PlugInShell.obj
 0001:00040050       ??$_Cons_val@V?$allocator@U?$pair@$$CBV?$basic_string@DU?$char_traits@D@std@@V?$allocator@D@2@@std@@V12@@std@@@std@@U?$pair@$$CBV?$basic_string@DU?$char_traits@D@std@@V?$allocator@D@2@@std@@V12@@2@AAU32@@std@@YAXAAV?$allocator@U?$pair@$$CBV?$basic_string@DU?$char_traits@D@std@@V?$allocator@D@2@@std@@V12@@std@@@0@PAU?$pair@$$CBV?$basic_string@DU?$char_traits@D@std@@V?$allocator@D@2@@std@@V12@@0@AAU20@@Z 10041050 f i PlugInLib:PlugInShell.obj
 0001:00040070       ??$?0$$CBV?$basic_string@DU?$char_traits@D@std@@V?$allocator@D@2@@std@@V01@@?$pair@$$CBV?$basic_string@DU?$char_traits@D@std@@V?$allocator@D@2@@std@@V12@@std@@QAE@$$QAU01@@Z 10041070 f i PlugInLib:PlugInShell.obj
 0001:000400f0       ??1?$FactoryResource@VSettableSessionItem@@@@UAE@XZ 100410f0 f i PlugInLib:PlugInShell.obj
 0001:00040170       ??0?$FactoryResource@VSettableSessionItem@@@@QAE@XZ 10041170 f i PlugInLib:PlugInShell.obj
 0001:00040240       ??_E?$FactoryResource@VSettableSessionItem@@@@UAEPAXI@Z 10041240 f i PlugInLib:PlugInShell.obj
 0001:00040240       ??_G?$FactoryResource@VSettableSessionItem@@@@UAEPAXI@Z 10041240 f i PlugInLib:PlugInShell.obj
 0001:000402d0       ?clear@?$list@UContextMenuAction@@V?$allocator@UContextMenuAction@@@std@@@std@@QAEXXZ 100412d0 f i PlugInLib:PlugInShell.obj
 0001:00040350       ?clear@?$_Tree@V?$_Tmap_traits@V?$basic_string@DU?$char_traits@D@std@@V?$allocator@D@2@@std@@V12@U?$less@V?$basic_string@DU?$char_traits@D@std@@V?$allocator@D@2@@std@@@2@V?$allocator@U?$pair@$$CBV?$basic_string@DU?$char_traits@D@std@@V?$allocator@D@2@@std@@V12@@std@@@2@$0A@@std@@@std@@QAEXXZ 10041350 f i PlugInLib:PlugInShell.obj
 0001:00040380       ??$_Buynode@AAU?$pair@$$CBV?$basic_string@DU?$char_traits@D@std@@V?$allocator@D@2@@std@@V12@@std@@@?$_Tree_val@V?$_Tmap_traits@V?$basic_string@DU?$char_traits@D@std@@V?$allocator@D@2@@std@@V12@U?$less@V?$basic_string@DU?$char_traits@D@std@@V?$allocator@D@2@@std@@@2@V?$allocator@U?$pair@$$CBV?$basic_string@DU?$char_traits@D@std@@V?$allocator@D@2@@std@@V12@@std@@@2@$0A@@std@@@std@@QAEPAU_Node@?$_Tree_nod@V?$_Tmap_traits@V?$basic_string@DU?$char_traits@D@std@@V?$allocator@D@2@@std@@V12@U?$less@V?$basic_string@DU?$char_traits@D@std@@V?$allocator@D@2@@std@@@2@V?$allocator@U?$pair@$$CBV?$basic_string@DU?$char_traits@D@std@@V?$allocator@D@2@@std@@V12@@std@@@2@$0A@@std@@@1@AAU?$pair@$$CBV?$basic_string@DU?$char_traits@D@std@@V?$allocator@D@2@@std@@V12@@1@@Z 10041380 f i PlugInLib:PlugInShell.obj
 0001:00040430       ?_Insert@?$_Tree@V?$_Tmap_traits@V?$basic_string@DU?$char_traits@D@std@@V?$allocator@D@2@@std@@V12@U?$less@V?$basic_string@DU?$char_traits@D@std@@V?$allocator@D@2@@std@@@2@V?$allocator@U?$pair@$$CBV?$basic_string@DU?$char_traits@D@std@@V?$allocator@D@2@@std@@V12@@std@@@2@$0A@@std@@@std@@QAE?AV?$_Tree_iterator@V?$_Tree_val@V?$_Tmap_traits@V?$basic_string@DU?$char_traits@D@std@@V?$allocator@D@2@@std@@V12@U?$less@V?$basic_string@DU?$char_traits@D@std@@V?$allocator@D@2@@std@@@2@V?$allocator@U?$pair@$$CBV?$basic_string@DU?$char_traits@D@std@@V?$allocator@D@2@@std@@V12@@std@@@2@$0A@@std@@@std@@@2@V?$_Tree_const_iterator@V?$_Tree_val@V?$_Tmap_traits@V?$basic_string@DU?$char_traits@D@std@@V?$allocator@D@2@@std@@V12@U?$less@V?$basic_string@DU?$char_traits@D@std@@V?$allocator@D@2@@std@@@2@V?$allocator@U?$pair@$$CBV?$basic_string@DU?$char_traits@D@std@@V?$allocator@D@2@@std@@V12@@std@@@2@$0A@@std@@@std@@@2@PAU_Node@?$_Tree_nod@V?$_Tmap_traits@V?$basic_string@DU?$char_traits@D@std@@V?$allocator@D@2@@std@@V12@U?$less@V?$basic_string@DU?$char_traits@D@std@@V?$allocator@D@2@@std@@@2@V?$allocator@U?$pair@$$CBV?$basic_string@DU?$char_traits@D@std@@V?$allocator@D@2@@std@@V12@@std@@@2@$0A@@std@@@2@@Z 10041430 f i PlugInLib:PlugInShell.obj
 0001:000405f0       ?construct@?$allocator@U?$pair@$$CBV?$basic_string@DU?$char_traits@D@std@@V?$allocator@D@2@@std@@V12@@std@@@std@@QAEXPAU?$pair@$$CBV?$basic_string@DU?$char_traits@D@std@@V?$allocator@D@2@@std@@V12@@2@$$QAU32@@Z 100415f0 f i PlugInLib:PlugInShell.obj
 0001:00040680       ?_Tidy@?$list@UContextMenuAction@@V?$allocator@UContextMenuAction@@@std@@@std@@QAEXXZ 10041680 f i PlugInLib:PlugInShell.obj
 0001:00040690       ?erase@?$_Tree@V?$_Tmap_traits@V?$basic_string@DU?$char_traits@D@std@@V?$allocator@D@2@@std@@V12@U?$less@V?$basic_string@DU?$char_traits@D@std@@V?$allocator@D@2@@std@@@2@V?$allocator@U?$pair@$$CBV?$basic_string@DU?$char_traits@D@std@@V?$allocator@D@2@@std@@V12@@std@@@2@$0A@@std@@@std@@QAE?AV?$_Tree_iterator@V?$_Tree_val@V?$_Tmap_traits@V?$basic_string@DU?$char_traits@D@std@@V?$allocator@D@2@@std@@V12@U?$less@V?$basic_string@DU?$char_traits@D@std@@V?$allocator@D@2@@std@@@2@V?$allocator@U?$pair@$$CBV?$basic_string@DU?$char_traits@D@std@@V?$allocator@D@2@@std@@V12@@std@@@2@$0A@@std@@@std@@@2@V?$_Tree_const_iterator@V?$_Tree_val@V?$_Tmap_traits@V?$basic_string@DU?$char_traits@D@std@@V?$allocator@D@2@@std@@V12@U?$less@V?$basic_string@DU?$char_traits@D@std@@V?$allocator@D@2@@std@@@2@V?$allocator@U?$pair@$$CBV?$basic_string@DU?$char_traits@D@std@@V?$allocator@D@2@@std@@V12@@std@@@2@$0A@@std@@@std@@@2@0@Z 10041690 f i PlugInLib:PlugInShell.obj
 0001:00040760       ?_Copy@?$_Tree@V?$_Tmap_traits@V?$basic_string@DU?$char_traits@D@std@@V?$allocator@D@2@@std@@V12@U?$less@V?$basic_string@DU?$char_traits@D@std@@V?$allocator@D@2@@std@@@2@V?$allocator@U?$pair@$$CBV?$basic_string@DU?$char_traits@D@std@@V?$allocator@D@2@@std@@V12@@std@@@2@$0A@@std@@@std@@IAEPAU_Node@?$_Tree_nod@V?$_Tmap_traits@V?$basic_string@DU?$char_traits@D@std@@V?$allocator@D@2@@std@@V12@U?$less@V?$basic_string@DU?$char_traits@D@std@@V?$allocator@D@2@@std@@@2@V?$allocator@U?$pair@$$CBV?$basic_string@DU?$char_traits@D@std@@V?$allocator@D@2@@std@@V12@@std@@@2@$0A@@std@@@2@PAU342@0@Z 10041760 f i PlugInLib:PlugInShell.obj
 0001:00040810       ??$_Cons_val@V?$allocator@U?$pair@$$CBV?$basic_string@DU?$char_traits@D@std@@V?$allocator@D@2@@std@@V12@@std@@@std@@U?$pair@$$CBV?$basic_string@DU?$char_traits@D@std@@V?$allocator@D@2@@std@@V12@@2@U32@@std@@YAXAAV?$allocator@U?$pair@$$CBV?$basic_string@DU?$char_traits@D@std@@V?$allocator@D@2@@std@@V12@@std@@@0@PAU?$pair@$$CBV?$basic_string@DU?$char_traits@D@std@@V?$allocator@D@2@@std@@V12@@0@$$QAU20@@Z 10041810 f i PlugInLib:PlugInShell.obj
 0001:00040830       ??1?$list@UContextMenuAction@@V?$allocator@UContextMenuAction@@@std@@@std@@QAE@XZ 10041830 f i PlugInLib:PlugInShell.obj
 0001:00040850       ?_Tidy@?$_Tree@V?$_Tmap_traits@V?$basic_string@DU?$char_traits@D@std@@V?$allocator@D@2@@std@@V12@U?$less@V?$basic_string@DU?$char_traits@D@std@@V?$allocator@D@2@@std@@@2@V?$allocator@U?$pair@$$CBV?$basic_string@DU?$char_traits@D@std@@V?$allocator@D@2@@std@@V12@@std@@@2@$0A@@std@@@std@@IAEXXZ 10041850 f i PlugInLib:PlugInShell.obj
 0001:00040870       ?_Copy@?$_Tree@V?$_Tmap_traits@V?$basic_string@DU?$char_traits@D@std@@V?$allocator@D@2@@std@@V12@U?$less@V?$basic_string@DU?$char_traits@D@std@@V?$allocator@D@2@@std@@@2@V?$allocator@U?$pair@$$CBV?$basic_string@DU?$char_traits@D@std@@V?$allocator@D@2@@std@@V12@@std@@@2@$0A@@std@@@std@@IAEXABV12@@Z 10041870 f i PlugInLib:PlugInShell.obj
 0001:000408f0       ??$_Buynode@U?$pair@$$CBV?$basic_string@DU?$char_traits@D@std@@V?$allocator@D@2@@std@@V12@@std@@@?$_Tree_val@V?$_Tmap_traits@V?$basic_string@DU?$char_traits@D@std@@V?$allocator@D@2@@std@@V12@U?$less@V?$basic_string@DU?$char_traits@D@std@@V?$allocator@D@2@@std@@@2@V?$allocator@U?$pair@$$CBV?$basic_string@DU?$char_traits@D@std@@V?$allocator@D@2@@std@@V12@@std@@@2@$0A@@std@@@std@@QAEPAU_Node@?$_Tree_nod@V?$_Tmap_traits@V?$basic_string@DU?$char_traits@D@std@@V?$allocator@D@2@@std@@V12@U?$less@V?$basic_string@DU?$char_traits@D@std@@V?$allocator@D@2@@std@@@2@V?$allocator@U?$pair@$$CBV?$basic_string@DU?$char_traits@D@std@@V?$allocator@D@2@@std@@V12@@std@@@2@$0A@@std@@@1@$$QAU?$pair@$$CBV?$basic_string@DU?$char_traits@D@std@@V?$allocator@D@2@@std@@V12@@1@@Z 100418f0 f i PlugInLib:PlugInShell.obj
 0001:000409a0       ?getContextMenuActions@PlugInShell@@UBE?AV?$list@UContextMenuAction@@V?$allocator@UContextMenuAction@@@std@@@std@@XZ 100419a0 f   PlugInLib:PlugInShell.obj
 0001:000409c0       ?getPropertiesPages@PlugInShell@@UBE?AV?$vector@V?$basic_string@DU?$char_traits@D@std@@V?$allocator@D@2@@std@@V?$allocator@V?$basic_string@DU?$char_traits@D@std@@V?$allocator@D@2@@std@@@2@@std@@XZ 100419c0 f   PlugInLib:PlugInShell.obj
 0001:000409e0       ??1?$_Tree@V?$_Tmap_traits@V?$basic_string@DU?$char_traits@D@std@@V?$allocator@D@2@@std@@V12@U?$less@V?$basic_string@DU?$char_traits@D@std@@V?$allocator@D@2@@std@@@2@V?$allocator@U?$pair@$$CBV?$basic_string@DU?$char_traits@D@std@@V?$allocator@D@2@@std@@V12@@std@@@2@$0A@@std@@@std@@QAE@XZ 100419e0 f i PlugInLib:PlugInShell.obj
 0001:00040a40       ??0?$_Tree@V?$_Tmap_traits@V?$basic_string@DU?$char_traits@D@std@@V?$allocator@D@2@@std@@V12@U?$less@V?$basic_string@DU?$char_traits@D@std@@V?$allocator@D@2@@std@@@2@V?$allocator@U?$pair@$$CBV?$basic_string@DU?$char_traits@D@std@@V?$allocator@D@2@@std@@V12@@std@@@2@$0A@@std@@@std@@QAE@ABV01@@Z 10041a40 f i PlugInLib:PlugInShell.obj
 0001:00040b00       ??$insert@U?$pair@$$CBV?$basic_string@DU?$char_traits@D@std@@V?$allocator@D@2@@std@@V12@@std@@@?$_Tree@V?$_Tmap_traits@V?$basic_string@DU?$char_traits@D@std@@V?$allocator@D@2@@std@@V12@U?$less@V?$basic_string@DU?$char_traits@D@std@@V?$allocator@D@2@@std@@@2@V?$allocator@U?$pair@$$CBV?$basic_string@DU?$char_traits@D@std@@V?$allocator@D@2@@std@@V12@@std@@@2@$0A@@std@@@std@@QAE?AV?$_Tree_iterator@V?$_Tree_val@V?$_Tmap_traits@V?$basic_string@DU?$char_traits@D@std@@V?$allocator@D@2@@std@@V12@U?$less@V?$basic_string@DU?$char_traits@D@std@@V?$allocator@D@2@@std@@@2@V?$allocator@U?$pair@$$CBV?$basic_string@DU?$char_traits@D@std@@V?$allocator@D@2@@std@@V12@@std@@@2@$0A@@std@@@std@@@1@V?$_Tree_const_iterator@V?$_Tree_val@V?$_Tmap_traits@V?$basic_string@DU?$char_traits@D@std@@V?$allocator@D@2@@std@@V12@U?$less@V?$basic_string@DU?$char_traits@D@std@@V?$allocator@D@2@@std@@@2@V?$allocator@U?$pair@$$CBV?$basic_string@DU?$char_traits@D@std@@V?$allocator@D@2@@std@@V12@@std@@@2@$0A@@std@@@std@@@1@$$QAU?$pair@$$CBV?$basic_string@DU?$char_traits@D@std@@V?$allocator@D@2@@std@@V12@@1@@Z 10041b00 f i PlugInLib:PlugInShell.obj
 0001:00040b30       ??1?$map@V?$basic_string@DU?$char_traits@D@std@@V?$allocator@D@2@@std@@V12@U?$less@V?$basic_string@DU?$char_traits@D@std@@V?$allocator@D@2@@std@@@2@V?$allocator@U?$pair@$$CBV?$basic_string@DU?$char_traits@D@std@@V?$allocator@D@2@@std@@V12@@std@@@2@@std@@QAE@XZ 10041b30 f i PlugInLib:PlugInShell.obj
 0001:00040b90       ??1PlugInShell@@UAE@XZ     10041b90 f   PlugInLib:PlugInShell.obj
 0001:00040d80       ??0?$map@V?$basic_string@DU?$char_traits@D@std@@V?$allocator@D@2@@std@@V12@U?$less@V?$basic_string@DU?$char_traits@D@std@@V?$allocator@D@2@@std@@@2@V?$allocator@U?$pair@$$CBV?$basic_string@DU?$char_traits@D@std@@V?$allocator@D@2@@std@@V12@@std@@@2@@std@@QAE@XZ 10041d80 f i PlugInLib:PlugInShell.obj
 0001:00040df0       ??0?$map@V?$basic_string@DU?$char_traits@D@std@@V?$allocator@D@2@@std@@V12@U?$less@V?$basic_string@DU?$char_traits@D@std@@V?$allocator@D@2@@std@@@2@V?$allocator@U?$pair@$$CBV?$basic_string@DU?$char_traits@D@std@@V?$allocator@D@2@@std@@V12@@std@@@2@@std@@QAE@ABV01@@Z 10041df0 f i PlugInLib:PlugInShell.obj
 0001:00040e10       ??A?$map@V?$basic_string@DU?$char_traits@D@std@@V?$allocator@D@2@@std@@V12@U?$less@V?$basic_string@DU?$char_traits@D@std@@V?$allocator@D@2@@std@@@2@V?$allocator@U?$pair@$$CBV?$basic_string@DU?$char_traits@D@std@@V?$allocator@D@2@@std@@V12@@std@@@2@@std@@QAEAAV?$basic_string@DU?$char_traits@D@std@@V?$allocator@D@2@@1@ABV21@@Z 10041e10 f i PlugInLib:PlugInShell.obj
 0001:00040f50       ??0PlugInShell@@QAE@XZ     10041f50 f   PlugInLib:PlugInShell.obj
 0001:000410b0       ??_EPlugInShell@@UAEPAXI@Z 100420b0 f i PlugInLib:PlugInShell.obj
 0001:000410b0       ??_GPlugInShell@@UAEPAXI@Z 100420b0 f i PlugInLib:PlugInShell.obj
 0001:000410d0       ?getDependencyCopyright@PlugInShell@@UBE?AV?$map@V?$basic_string@DU?$char_traits@D@std@@V?$allocator@D@2@@std@@V12@U?$less@V?$basic_string@DU?$char_traits@D@std@@V?$allocator@D@2@@std@@@2@V?$allocator@U?$pair@$$CBV?$basic_string@DU?$char_traits@D@std@@V?$allocator@D@2@@std@@V12@@std@@@2@@std@@XZ 100420d0 f   PlugInLib:PlugInShell.obj
 0001:00041100       ?addDependencyCopyright@PlugInShell@@IAEXABV?$basic_string@DU?$char_traits@D@std@@V?$allocator@D@2@@std@@0@Z 10042100 f   PlugInLib:PlugInShell.obj
 0001:00041170       ??0ModuleManager@@IAE@XZ   10042170 f   PlugInLib:ModuleManagerCommon.obj
 0001:00041180       ??1ModuleManager@@IAE@XZ   10042180 f   PlugInLib:ModuleManagerCommon.obj
 0001:00041190       ?instance@ModuleManager@@SAPAV1@XZ 10042190 f   PlugInLib:ModuleManagerCommon.obj
 0001:000411c0       ??0logic_error@std@@QAE@PBD@Z 100421c0 f i PlugInUtilities:Service.obj
 0001:000411e0       ??1logic_error@std@@UAE@XZ 100421e0 f i PlugInUtilities:Service.obj
 0001:000411f0       ?getService@ModuleManager@@QAEPAVExternal@@XZ 100421f0 f i PlugInUtilities:Service.obj
 0001:00041200       ?get@?$Service@VApplicationServices@@@@QBEPAVApplicationServices@@XZ 10042200 f   PlugInUtilities:Service.obj
 0001:00041230       ?get@?$Service@VUtilityServices@@@@QBEPAVUtilityServices@@XZ 10042230 f   PlugInUtilities:Service.obj
 0001:00041260       ?get@?$Service@VModelServices@@@@QBEPAVModelServices@@XZ 10042260 f   PlugInUtilities:Service.obj
 0001:00041290       ?get@?$Service@VAnimationServices@@@@QBEPAVAnimationServices@@XZ 10042290 f   PlugInUtilities:Service.obj
 0001:000412c0       ?get@?$Service@VDesktopServices@@@@QBEPAVDesktopServices@@XZ 100422c0 f   PlugInUtilities:Service.obj
 0001:000412f0       ?get@?$Service@VPlugInManagerServices@@@@QBEPAVPlugInManagerServices@@XZ 100422f0 f   PlugInUtilities:Service.obj
 0001:00041320       ??C?$Service@VUtilityServices@@@@QBEPAVUtilityServices@@XZ 10042320 f i PlugInUtilities:Service.obj
 0001:00041350       ??0?$EnumWrapper@W4WindowTypeEnum@@@@QAE@ABW4WindowTypeEnum@@@Z 10042350 f i PlugInUtilities:Service.obj
 0001:00041370       ??1?$EnumWrapper@W4WindowTypeEnum@@@@QAE@XZ 10042370 f i PlugInUtilities:Service.obj
 0001:00041380       ??_Elogic_error@std@@UAEPAXI@Z 10042380 f i PlugInUtilities:Service.obj
 0001:00041380       ??_Glogic_error@std@@UAEPAXI@Z 10042380 f i PlugInUtilities:Service.obj
 0001:000413a0       ?get@?$Service@VSessionManager@@@@QBEPAVSessionManager@@XZ 100423a0 f   PlugInUtilities:Service.obj
 0001:000413d0       ?get@?$Service@VConfigurationSettings@@@@QBEPAVConfigurationSettings@@XZ 100423d0 f   PlugInUtilities:Service.obj
 0001:00041400       ?get@?$Service@VObjectFactory@@@@QBEPAVObjectFactory@@XZ 10042400 f   PlugInUtilities:Service.obj
 0001:00041430       ?get@?$Service@VDataVariantFactory@@@@QBEPAVDataVariantFactory@@XZ 10042430 f   PlugInUtilities:Service.obj
 0001:00041460       ?get@?$Service@VMessageLogMgr@@@@QBEPAVMessageLogMgr@@XZ 10042460 f   PlugInUtilities:Service.obj
 0001:00041490       ?get@?$Service@VSessionExplorer@@@@QBEPAVSessionExplorer@@XZ 10042490 f   PlugInUtilities:Service.obj
 0001:00041590       ??0logic_error@std@@QAE@ABV01@@Z 10042590 f i PlugInUtilities:Service.obj
 0001:000415b0       ??C?$Service@VMessageLogMgr@@@@QBEPAVMessageLogMgr@@XZ 100425b0 f i PlugInUtilities:AppVerify.obj
 0001:000415c0       ?_Tidy@?$basic_stringbuf@DU?$char_traits@D@std@@V?$allocator@D@2@@std@@IAEXXZ 100425c0 f i PlugInUtilities:AppVerify.obj
 0001:00041620       ?_Getstate@?$basic_stringbuf@DU?$char_traits@D@std@@V?$allocator@D@2@@std@@AAEHH@Z 10042620 f i PlugInUtilities:AppVerify.obj
 0001:00041650       ?capacity@?$basic_string@DU?$char_traits@D@std@@V?$allocator@D@2@@std@@QBEIXZ 10042650 f i PlugInUtilities:AppVerify.obj
 0001:00041660       ??1?$basic_stringbuf@DU?$char_traits@D@std@@V?$allocator@D@2@@std@@UAE@XZ 10042660 f i PlugInUtilities:AppVerify.obj
 0001:00041680       ?eq@?$char_traits@D@std@@SA_NABD0@Z 10042680 f i PlugInUtilities:AppVerify.obj
 0001:000416a0       ?to_char_type@?$char_traits@D@std@@SADABH@Z 100426a0 f i PlugInUtilities:AppVerify.obj
 0001:000416b0       ?to_int_type@?$char_traits@D@std@@SAHABD@Z 100426b0 f i PlugInUtilities:AppVerify.obj
 0001:000416c0       ?underflow@?$basic_stringbuf@DU?$char_traits@D@std@@V?$allocator@D@2@@std@@MAEHXZ 100426c0 f i PlugInUtilities:AppVerify.obj
 0001:00041730       ??0?$fpos@H@std@@QAE@_J@Z  10042730 f i PlugInUtilities:AppVerify.obj
 0001:00041750       ??B?$fpos@H@std@@QBE_JXZ   10042750 f i PlugInUtilities:AppVerify.obj
 0001:00041760       ?not_eof@?$char_traits@D@std@@SAHABH@Z 10042760 f i PlugInUtilities:AppVerify.obj
 0001:00041770       ?pbackfail@?$basic_stringbuf@DU?$char_traits@D@std@@V?$allocator@D@2@@std@@MAEHH@Z 10042770 f i PlugInUtilities:AppVerify.obj
 0001:000417c0       ?seekoff@?$basic_stringbuf@DU?$char_traits@D@std@@V?$allocator@D@2@@std@@MAE?AV?$fpos@H@2@_JHH@Z 100427c0 f i PlugInUtilities:AppVerify.obj
 0001:00041980       ?seekpos@?$basic_stringbuf@DU?$char_traits@D@std@@V?$allocator@D@2@@std@@MAE?AV?$fpos@H@2@V32@H@Z 10042980 f i PlugInUtilities:AppVerify.obj
 0001:00041aa0       ??_G?$basic_stringbuf@DU?$char_traits@D@std@@V?$allocator@D@2@@std@@UAEPAXI@Z 10042aa0 f i PlugInUtilities:AppVerify.obj
 0001:00041aa0       ??_E?$basic_stringbuf@DU?$char_traits@D@std@@V?$allocator@D@2@@std@@UAEPAXI@Z 10042aa0 f i PlugInUtilities:AppVerify.obj
 0001:00041ad0       ?_Init@?$basic_stringbuf@DU?$char_traits@D@std@@V?$allocator@D@2@@std@@IAEXPBDIH@Z 10042ad0 f i PlugInUtilities:AppVerify.obj
 0001:00041b80       ??1?$basic_stringstream@DU?$char_traits@D@std@@V?$allocator@D@2@@std@@UAE@XZ 10042b80 f i PlugInUtilities:AppVerify.obj
 0001:00041bf0       ?overflow@?$basic_stringbuf@DU?$char_traits@D@std@@V?$allocator@D@2@@std@@MAEHH@Z 10042bf0 f i PlugInUtilities:AppVerify.obj
 0001:00041db0       ??0?$basic_stringbuf@DU?$char_traits@D@std@@V?$allocator@D@2@@std@@QAE@H@Z 10042db0 f i PlugInUtilities:AppVerify.obj
 0001:00041e20       ??_D?$basic_stringstream@DU?$char_traits@D@std@@V?$allocator@D@2@@std@@QAEXXZ 10042e20 f i PlugInUtilities:AppVerify.obj
 0001:00041eb0       ??0?$basic_stringstream@DU?$char_traits@D@std@@V?$allocator@D@2@@std@@QAE@H@Z 10042eb0 f i PlugInUtilities:AppVerify.obj
 0001:00041f90       ??_G?$basic_stringstream@DU?$char_traits@D@std@@V?$allocator@D@2@@std@@UAEPAXI@Z 10042f90 f i PlugInUtilities:AppVerify.obj
 0001:00041f90       ??_E?$basic_stringstream@DU?$char_traits@D@std@@V?$allocator@D@2@@std@@UAEPAXI@Z 10042f90 f i PlugInUtilities:AppVerify.obj
 0001:00041fc0       ?insert@?$basic_string@DU?$char_traits@D@std@@V?$allocator@D@2@@std@@QAEAAV12@IABV12@II@Z 10042fc0 f i PlugInUtilities:AppVerify.obj
 0001:00042140       ?append@?$basic_string@DU?$char_traits@D@std@@V?$allocator@D@2@@std@@QAEAAV12@ABV12@II@Z 10043140 f i PlugInUtilities:AppVerify.obj
 0001:00042230       ?insert@?$basic_string@DU?$char_traits@D@std@@V?$allocator@D@2@@std@@QAEAAV12@IABV12@@Z 10043230 f i PlugInUtilities:AppVerify.obj
 0001:00042250       ?append@?$basic_string@DU?$char_traits@D@std@@V?$allocator@D@2@@std@@QAEAAV12@ABV12@@Z 10043250 f i PlugInUtilities:AppVerify.obj
 0001:00042270       ?append@?$basic_string@DU?$char_traits@D@std@@V?$allocator@D@2@@std@@QAEAAV12@PBDI@Z 10043270 f i PlugInUtilities:AppVerify.obj
 0001:00042390       ?append@?$basic_string@DU?$char_traits@D@std@@V?$allocator@D@2@@std@@QAEAAV12@PBD@Z 10043390 f i PlugInUtilities:AppVerify.obj
 0001:000423c0       ??0?$basic_string@DU?$char_traits@D@std@@V?$allocator@D@2@@std@@QAE@PBDI@Z 100433c0 f i PlugInUtilities:AppVerify.obj
 0001:000423f0       ?str@?$basic_stringbuf@DU?$char_traits@D@std@@V?$allocator@D@2@@std@@QBE?AV?$basic_string@DU?$char_traits@D@std@@V?$allocator@D@2@@2@XZ 100433f0 f i PlugInUtilities:AppVerify.obj
 0001:00042520       ??$?HDU?$char_traits@D@std@@V?$allocator@D@1@@std@@YA?AV?$basic_string@DU?$char_traits@D@std@@V?$allocator@D@2@@0@$$QAV10@PBD@Z 10043520 f i PlugInUtilities:AppVerify.obj
 0001:00042570       ??$?HDU?$char_traits@D@std@@V?$allocator@D@1@@std@@YA?AV?$basic_string@DU?$char_traits@D@std@@V?$allocator@D@2@@0@$$QAV10@0@Z 10043570 f i PlugInUtilities:AppVerify.obj
 0001:000425e0       ?str@?$basic_stringstream@DU?$char_traits@D@std@@V?$allocator@D@2@@std@@QBE?AV?$basic_string@DU?$char_traits@D@std@@V?$allocator@D@2@@2@XZ 100435e0 f i PlugInUtilities:AppVerify.obj
 0001:00042600       ?LogVerificationErrorProc@@YAXPBD0I0@Z 10043600 f   PlugInUtilities:AppVerify.obj
 0001:00042cf0       ??$toString@_N@TypeConverter@@YAPBDXZ 10043cf0 f   PlugInUtilities:TypeConverter.obj
 0001:00042d00       ??$toString@V?$vector@PA_NV?$allocator@PA_N@std@@@std@@@TypeConverter@@YAPBDXZ 10043d00 f   PlugInUtilities:TypeConverter.obj
 0001:00042d10       ??$toString@V?$vector@_NV?$allocator@_N@std@@@std@@@TypeConverter@@YAPBDXZ 10043d10 f   PlugInUtilities:TypeConverter.obj
 0001:00042d20       ??$toString@D@TypeConverter@@YAPBDXZ 10043d20 f   PlugInUtilities:TypeConverter.obj
 0001:00042d30       ??$toString@V?$vector@PADV?$allocator@PAD@std@@@std@@@TypeConverter@@YAPBDXZ 10043d30 f   PlugInUtilities:TypeConverter.obj
 0001:00042d40       ??$toString@V?$vector@DV?$allocator@D@std@@@std@@@TypeConverter@@YAPBDXZ 10043d40 f   PlugInUtilities:TypeConverter.obj
 0001:00042d50       ??$toString@E@TypeConverter@@YAPBDXZ 10043d50 f   PlugInUtilities:TypeConverter.obj
 0001:00042d60       ??$toString@V?$vector@PAEV?$allocator@PAE@std@@@std@@@TypeConverter@@YAPBDXZ 10043d60 f   PlugInUtilities:TypeConverter.obj
 0001:00042d70       ??$toString@V?$vector@EV?$allocator@E@std@@@std@@@TypeConverter@@YAPBDXZ 10043d70 f   PlugInUtilities:TypeConverter.obj
 0001:00042d80       ??$toString@C@TypeConverter@@YAPBDXZ 10043d80 f   PlugInUtilities:TypeConverter.obj
 0001:00042d90       ??$toString@V?$vector@PACV?$allocator@PAC@std@@@std@@@TypeConverter@@YAPBDXZ 10043d90 f   PlugInUtilities:TypeConverter.obj
 0001:00042da0       ??$toString@V?$vector@CV?$allocator@C@std@@@std@@@TypeConverter@@YAPBDXZ 10043da0 f   PlugInUtilities:TypeConverter.obj
 0001:00042db0       ??$toString@F@TypeConverter@@YAPBDXZ 10043db0 f   PlugInUtilities:TypeConverter.obj
 0001:00042dc0       ??$toString@V?$vector@PAFV?$allocator@PAF@std@@@std@@@TypeConverter@@YAPBDXZ 10043dc0 f   PlugInUtilities:TypeConverter.obj
 0001:00042dd0       ??$toString@V?$vector@FV?$allocator@F@std@@@std@@@TypeConverter@@YAPBDXZ 10043dd0 f   PlugInUtilities:TypeConverter.obj
 0001:00042de0       ??$toString@G@TypeConverter@@YAPBDXZ 10043de0 f   PlugInUtilities:TypeConverter.obj
 0001:00042df0       ??$toString@V?$vector@PAGV?$allocator@PAG@std@@@std@@@TypeConverter@@YAPBDXZ 10043df0 f   PlugInUtilities:TypeConverter.obj
 0001:00042e00       ??$toString@V?$vector@GV?$allocator@G@std@@@std@@@TypeConverter@@YAPBDXZ 10043e00 f   PlugInUtilities:TypeConverter.obj
 0001:00042e10       ??$toString@H@TypeConverter@@YAPBDXZ 10043e10 f   PlugInUtilities:TypeConverter.obj
 0001:00042e20       ??$toString@V?$vector@PAHV?$allocator@PAH@std@@@std@@@TypeConverter@@YAPBDXZ 10043e20 f   PlugInUtilities:TypeConverter.obj
 0001:00042e30       ??$toString@V?$vector@HV?$allocator@H@std@@@std@@@TypeConverter@@YAPBDXZ 10043e30 f   PlugInUtilities:TypeConverter.obj
 0001:00042e40       ??$toString@I@TypeConverter@@YAPBDXZ 10043e40 f   PlugInUtilities:TypeConverter.obj
 0001:00042e50       ??$toString@V?$vector@PAIV?$allocator@PAI@std@@@std@@@TypeConverter@@YAPBDXZ 10043e50 f   PlugInUtilities:TypeConverter.obj
 0001:00042e60       ??$toString@V?$vector@IV?$allocator@I@std@@@std@@@TypeConverter@@YAPBDXZ 10043e60 f   PlugInUtilities:TypeConverter.obj
 0001:00042e70       ??$toString@J@TypeConverter@@YAPBDXZ 10043e70 f   PlugInUtilities:TypeConverter.obj
 0001:00042e80       ??$toString@V?$vector@PAJV?$allocator@PAJ@std@@@std@@@TypeConverter@@YAPBDXZ 10043e80 f   PlugInUtilities:TypeConverter.obj
 0001:00042e90       ??$toString@V?$vector@JV?$allocator@J@std@@@std@@@TypeConverter@@YAPBDXZ 10043e90 f   PlugInUtilities:TypeConverter.obj
 0001:00042ea0       ??$toString@K@TypeConverter@@YAPBDXZ 10043ea0 f   PlugInUtilities:TypeConverter.obj
 0001:00042eb0       ??$toString@V?$vector@PAKV?$allocator@PAK@std@@@std@@@TypeConverter@@YAPBDXZ 10043eb0 f   PlugInUtilities:TypeConverter.obj
 0001:00042ec0       ??$toString@V?$vector@KV?$allocator@K@std@@@std@@@TypeConverter@@YAPBDXZ 10043ec0 f   PlugInUtilities:TypeConverter.obj
 0001:00042ed0       ??$toString@_J@TypeConverter@@YAPBDXZ 10043ed0 f   PlugInUtilities:TypeConverter.obj
 0001:00042ee0       ??$toString@V?$vector@PA_JV?$allocator@PA_J@std@@@std@@@TypeConverter@@YAPBDXZ 10043ee0 f   PlugInUtilities:TypeConverter.obj
 0001:00042ef0       ??$toString@V?$vector@_JV?$allocator@_J@std@@@std@@@TypeConverter@@YAPBDXZ 10043ef0 f   PlugInUtilities:TypeConverter.obj
 0001:00042f00       ??$toString@_K@TypeConverter@@YAPBDXZ 10043f00 f   PlugInUtilities:TypeConverter.obj
 0001:00042f10       ??$toString@V?$vector@PA_KV?$allocator@PA_K@std@@@std@@@TypeConverter@@YAPBDXZ 10043f10 f   PlugInUtilities:TypeConverter.obj
 0001:00042f20       ??$toString@V?$vector@_KV?$allocator@_K@std@@@std@@@TypeConverter@@YAPBDXZ 10043f20 f   PlugInUtilities:TypeConverter.obj
 0001:00042f30       ??$toString@M@TypeConverter@@YAPBDXZ 10043f30 f   PlugInUtilities:TypeConverter.obj
 0001:00042f40       ??$toString@V?$vector@PAMV?$allocator@PAM@std@@@std@@@TypeConverter@@YAPBDXZ 10043f40 f   PlugInUtilities:TypeConverter.obj
 0001:00042f50       ??$toString@V?$vector@MV?$allocator@M@std@@@std@@@TypeConverter@@YAPBDXZ 10043f50 f   PlugInUtilities:TypeConverter.obj
 0001:00042f60       ??$toString@N@TypeConverter@@YAPBDXZ 10043f60 f   PlugInUtilities:TypeConverter.obj
 0001:00042f70       ??$toString@V?$vector@PANV?$allocator@PAN@std@@@std@@@TypeConverter@@YAPBDXZ 10043f70 f   PlugInUtilities:TypeConverter.obj
 0001:00042f80       ??$toString@V?$vector@NV?$allocator@N@std@@@std@@@TypeConverter@@YAPBDXZ 10043f80 f   PlugInUtilities:TypeConverter.obj
 0001:00042f90       ??$toString@X@TypeConverter@@YAPBDXZ 10043f90 f   PlugInUtilities:TypeConverter.obj
 0001:00042fa0       ??$toString@V?$vector@PAXV?$allocator@PAX@std@@@std@@@TypeConverter@@YAPBDXZ 10043fa0 f   PlugInUtilities:TypeConverter.obj
 0001:00042fb0       ??$toString@V?$vector@XV?$allocator@X@std@@@std@@@TypeConverter@@YAPBDXZ 10043fb0 f   PlugInUtilities:TypeConverter.obj
 0001:00042fc0       ??$toString@V?$basic_string@DU?$char_traits@D@std@@V?$allocator@D@2@@std@@@TypeConverter@@YAPBDXZ 10043fc0 f   PlugInUtilities:TypeConverter.obj
 0001:00042fd0       ??$toString@V?$vector@PAV?$basic_string@DU?$char_traits@D@std@@V?$allocator@D@2@@std@@V?$allocator@PAV?$basic_string@DU?$char_traits@D@std@@V?$allocator@D@2@@std@@@2@@std@@@TypeConverter@@YAPBDXZ 10043fd0 f   PlugInUtilities:TypeConverter.obj
 0001:00042fe0       ??$toString@V?$vector@V?$basic_string@DU?$char_traits@D@std@@V?$allocator@D@2@@std@@V?$allocator@V?$basic_string@DU?$char_traits@D@std@@V?$allocator@D@2@@std@@@2@@std@@@TypeConverter@@YAPBDXZ 10043fe0 f   PlugInUtilities:TypeConverter.obj
 0001:00042ff0       ??$toString@V?$EnumWrapper@W4AnimationCycleEnum@@@@@TypeConverter@@YAPBDXZ 10043ff0 f   PlugInUtilities:TypeConverter.obj
 0001:00043000       ??$toString@V?$vector@PAV?$EnumWrapper@W4AnimationCycleEnum@@@@V?$allocator@PAV?$EnumWrapper@W4AnimationCycleEnum@@@@@std@@@std@@@TypeConverter@@YAPBDXZ 10044000 f   PlugInUtilities:TypeConverter.obj
 0001:00043010       ??$toString@V?$vector@V?$EnumWrapper@W4AnimationCycleEnum@@@@V?$allocator@V?$EnumWrapper@W4AnimationCycleEnum@@@@@std@@@std@@@TypeConverter@@YAPBDXZ 10044010 f   PlugInUtilities:TypeConverter.obj
 0001:00043020       ??$toString@V?$EnumWrapper@W4AnimationStateEnum@@@@@TypeConverter@@YAPBDXZ 10044020 f   PlugInUtilities:TypeConverter.obj
 0001:00043030       ??$toString@V?$vector@PAV?$EnumWrapper@W4AnimationStateEnum@@@@V?$allocator@PAV?$EnumWrapper@W4AnimationStateEnum@@@@@std@@@std@@@TypeConverter@@YAPBDXZ 10044030 f   PlugInUtilities:TypeConverter.obj
 0001:00043040       ??$toString@V?$vector@V?$EnumWrapper@W4AnimationStateEnum@@@@V?$allocator@V?$EnumWrapper@W4AnimationStateEnum@@@@@std@@@std@@@TypeConverter@@YAPBDXZ 10044040 f   PlugInUtilities:TypeConverter.obj
 0001:00043050       ??$toString@V?$EnumWrapper@W4ArcRegionEnum@@@@@TypeConverter@@YAPBDXZ 10044050 f   PlugInUtilities:TypeConverter.obj
 0001:00043060       ??$toString@V?$vector@PAV?$EnumWrapper@W4ArcRegionEnum@@@@V?$allocator@PAV?$EnumWrapper@W4ArcRegionEnum@@@@@std@@@std@@@TypeConverter@@YAPBDXZ 10044060 f   PlugInUtilities:TypeConverter.obj
 0001:00043070       ??$toString@V?$vector@V?$EnumWrapper@W4ArcRegionEnum@@@@V?$allocator@V?$EnumWrapper@W4ArcRegionEnum@@@@@std@@@std@@@TypeConverter@@YAPBDXZ 10044070 f   PlugInUtilities:TypeConverter.obj
 0001:00043080       ??$toString@V?$EnumWrapper@W4ComplexComponentEnum@@@@@TypeConverter@@YAPBDXZ 10044080 f   PlugInUtilities:TypeConverter.obj
 0001:00043090       ??$toString@V?$vector@PAV?$EnumWrapper@W4ComplexComponentEnum@@@@V?$allocator@PAV?$EnumWrapper@W4ComplexComponentEnum@@@@@std@@@std@@@TypeConverter@@YAPBDXZ 10044090 f   PlugInUtilities:TypeConverter.obj
 0001:000430a0       ??$toString@V?$vector@V?$EnumWrapper@W4ComplexComponentEnum@@@@V?$allocator@V?$EnumWrapper@W4ComplexComponentEnum@@@@@std@@@std@@@TypeConverter@@YAPBDXZ 100440a0 f   PlugInUtilities:TypeConverter.obj
 0001:000430b0       ??$toString@V?$EnumWrapper@W4DataOriginEnum@@@@@TypeConverter@@YAPBDXZ 100440b0 f   PlugInUtilities:TypeConverter.obj
 0001:000430c0       ??$toString@V?$vector@PAV?$EnumWrapper@W4DataOriginEnum@@@@V?$allocator@PAV?$EnumWrapper@W4DataOriginEnum@@@@@std@@@std@@@TypeConverter@@YAPBDXZ 100440c0 f   PlugInUtilities:TypeConverter.obj
 0001:000430d0       ??$toString@V?$vector@V?$EnumWrapper@W4DataOriginEnum@@@@V?$allocator@V?$EnumWrapper@W4DataOriginEnum@@@@@std@@@std@@@TypeConverter@@YAPBDXZ 100440d0 f   PlugInUtilities:TypeConverter.obj
 0001:000430e0       ??$toString@V?$EnumWrapper@W4DisplayModeEnum@@@@@TypeConverter@@YAPBDXZ 100440e0 f   PlugInUtilities:TypeConverter.obj
 0001:000430f0       ??$toString@V?$vector@PAV?$EnumWrapper@W4DisplayModeEnum@@@@V?$allocator@PAV?$EnumWrapper@W4DisplayModeEnum@@@@@std@@@std@@@TypeConverter@@YAPBDXZ 100440f0 f   PlugInUtilities:TypeConverter.obj
 0001:00043100       ??$toString@V?$vector@V?$EnumWrapper@W4DisplayModeEnum@@@@V?$allocator@V?$EnumWrapper@W4DisplayModeEnum@@@@@std@@@std@@@TypeConverter@@YAPBDXZ 10044100 f   PlugInUtilities:TypeConverter.obj
 0001:00043110       ??$toString@V?$EnumWrapper@W4DistanceUnitsEnum@@@@@TypeConverter@@YAPBDXZ 10044110 f   PlugInUtilities:TypeConverter.obj
 0001:00043120       ??$toString@V?$vector@PAV?$EnumWrapper@W4DistanceUnitsEnum@@@@V?$allocator@PAV?$EnumWrapper@W4DistanceUnitsEnum@@@@@std@@@std@@@TypeConverter@@YAPBDXZ 10044120 f   PlugInUtilities:TypeConverter.obj
 0001:00043130       ??$toString@V?$vector@V?$EnumWrapper@W4DistanceUnitsEnum@@@@V?$allocator@V?$EnumWrapper@W4DistanceUnitsEnum@@@@@std@@@std@@@TypeConverter@@YAPBDXZ 10044130 f   PlugInUtilities:TypeConverter.obj
 0001:00043140       ??$toString@V?$EnumWrapper@W4DmsFormatTypeEnum@@@@@TypeConverter@@YAPBDXZ 10044140 f   PlugInUtilities:TypeConverter.obj
 0001:00043150       ??$toString@V?$vector@PAV?$EnumWrapper@W4DmsFormatTypeEnum@@@@V?$allocator@PAV?$EnumWrapper@W4DmsFormatTypeEnum@@@@@std@@@std@@@TypeConverter@@YAPBDXZ 10044150 f   PlugInUtilities:TypeConverter.obj
 0001:00043160       ??$toString@V?$vector@V?$EnumWrapper@W4DmsFormatTypeEnum@@@@V?$allocator@V?$EnumWrapper@W4DmsFormatTypeEnum@@@@@std@@@std@@@TypeConverter@@YAPBDXZ 10044160 f   PlugInUtilities:TypeConverter.obj
 0001:00043170       ??$toString@V?$EnumWrapper@W4EncodingTypeEnum@@@@@TypeConverter@@YAPBDXZ 10044170 f   PlugInUtilities:TypeConverter.obj
 0001:00043180       ??$toString@V?$vector@PAV?$EnumWrapper@W4EncodingTypeEnum@@@@V?$allocator@PAV?$EnumWrapper@W4EncodingTypeEnum@@@@@std@@@std@@@TypeConverter@@YAPBDXZ 10044180 f   PlugInUtilities:TypeConverter.obj
 0001:00043190       ??$toString@V?$vector@V?$EnumWrapper@W4EncodingTypeEnum@@@@V?$allocator@V?$EnumWrapper@W4EncodingTypeEnum@@@@@std@@@std@@@TypeConverter@@YAPBDXZ 10044190 f   PlugInUtilities:TypeConverter.obj
 0001:000431a0       ??$toString@V?$EnumWrapper@W4EndianTypeEnum@@@@@TypeConverter@@YAPBDXZ 100441a0 f   PlugInUtilities:TypeConverter.obj
 0001:000431b0       ??$toString@V?$vector@PAV?$EnumWrapper@W4EndianTypeEnum@@@@V?$allocator@PAV?$EnumWrapper@W4EndianTypeEnum@@@@@std@@@std@@@TypeConverter@@YAPBDXZ 100441b0 f   PlugInUtilities:TypeConverter.obj
 0001:000431c0       ??$toString@V?$vector@V?$EnumWrapper@W4EndianTypeEnum@@@@V?$allocator@V?$EnumWrapper@W4EndianTypeEnum@@@@@std@@@std@@@TypeConverter@@YAPBDXZ 100441c0 f   PlugInUtilities:TypeConverter.obj
 0001:000431d0       ??$toString@V?$EnumWrapper@W4FillStyleEnum@@@@@TypeConverter@@YAPBDXZ 100441d0 f   PlugInUtilities:TypeConverter.obj
 0001:000431e0       ??$toString@V?$vector@PAV?$EnumWrapper@W4FillStyleEnum@@@@V?$allocator@PAV?$EnumWrapper@W4FillStyleEnum@@@@@std@@@std@@@TypeConverter@@YAPBDXZ 100441e0 f   PlugInUtilities:TypeConverter.obj
 0001:000431f0       ??$toString@V?$vector@V?$EnumWrapper@W4FillStyleEnum@@@@V?$allocator@V?$EnumWrapper@W4FillStyleEnum@@@@@std@@@std@@@TypeConverter@@YAPBDXZ 100441f0 f   PlugInUtilities:TypeConverter.obj
 0001:00043200       ??$toString@V?$EnumWrapper@W4InsetZoomModeEnum@@@@@TypeConverter@@YAPBDXZ 10044200 f   PlugInUtilities:TypeConverter.obj
 0001:00043210       ??$toString@V?$vector@PAV?$EnumWrapper@W4InsetZoomModeEnum@@@@V?$allocator@PAV?$EnumWrapper@W4InsetZoomModeEnum@@@@@std@@@std@@@TypeConverter@@YAPBDXZ 10044210 f   PlugInUtilities:TypeConverter.obj
 0001:00043220       ??$toString@V?$vector@V?$EnumWrapper@W4InsetZoomModeEnum@@@@V?$allocator@V?$EnumWrapper@W4InsetZoomModeEnum@@@@@std@@@std@@@TypeConverter@@YAPBDXZ 10044220 f   PlugInUtilities:TypeConverter.obj
 0001:00043230       ??$toString@V?$EnumWrapper@W4InterleaveFormatTypeEnum@@@@@TypeConverter@@YAPBDXZ 10044230 f   PlugInUtilities:TypeConverter.obj
 0001:00043240       ??$toString@V?$vector@PAV?$EnumWrapper@W4InterleaveFormatTypeEnum@@@@V?$allocator@PAV?$EnumWrapper@W4InterleaveFormatTypeEnum@@@@@std@@@std@@@TypeConverter@@YAPBDXZ 10044240 f   PlugInUtilities:TypeConverter.obj
 0001:00043250       ??$toString@V?$vector@V?$EnumWrapper@W4InterleaveFormatTypeEnum@@@@V?$allocator@V?$EnumWrapper@W4InterleaveFormatTypeEnum@@@@@std@@@std@@@TypeConverter@@YAPBDXZ 10044250 f   PlugInUtilities:TypeConverter.obj
 0001:00043260       ??$toString@V?$EnumWrapper@W4InterpolationTypeEnum@@@@@TypeConverter@@YAPBDXZ 10044260 f   PlugInUtilities:TypeConverter.obj
 0001:00043270       ??$toString@V?$vector@PAV?$EnumWrapper@W4InterpolationTypeEnum@@@@V?$allocator@PAV?$EnumWrapper@W4InterpolationTypeEnum@@@@@std@@@std@@@TypeConverter@@YAPBDXZ 10044270 f   PlugInUtilities:TypeConverter.obj
 0001:00043280       ??$toString@V?$vector@V?$EnumWrapper@W4InterpolationTypeEnum@@@@V?$allocator@V?$EnumWrapper@W4InterpolationTypeEnum@@@@@std@@@std@@@TypeConverter@@YAPBDXZ 10044280 f   PlugInUtilities:TypeConverter.obj
 0001:00043290       ??$toString@V?$EnumWrapper@W4GcpSymbolEnum@@@@@TypeConverter@@YAPBDXZ 10044290 f   PlugInUtilities:TypeConverter.obj
 0001:000432a0       ??$toString@V?$vector@PAV?$EnumWrapper@W4GcpSymbolEnum@@@@V?$allocator@PAV?$EnumWrapper@W4GcpSymbolEnum@@@@@std@@@std@@@TypeConverter@@YAPBDXZ 100442a0 f   PlugInUtilities:TypeConverter.obj
 0001:000432b0       ??$toString@V?$vector@V?$EnumWrapper@W4GcpSymbolEnum@@@@V?$allocator@V?$EnumWrapper@W4GcpSymbolEnum@@@@@std@@@std@@@TypeConverter@@YAPBDXZ 100442b0 f   PlugInUtilities:TypeConverter.obj
 0001:000432c0       ??$toString@V?$EnumWrapper@W4GeocoordTypeEnum@@@@@TypeConverter@@YAPBDXZ 100442c0 f   PlugInUtilities:TypeConverter.obj
 0001:000432d0       ??$toString@V?$vector@PAV?$EnumWrapper@W4GeocoordTypeEnum@@@@V?$allocator@PAV?$EnumWrapper@W4GeocoordTypeEnum@@@@@std@@@std@@@TypeConverter@@YAPBDXZ 100442d0 f   PlugInUtilities:TypeConverter.obj
 0001:000432e0       ??$toString@V?$vector@V?$EnumWrapper@W4GeocoordTypeEnum@@@@V?$allocator@V?$EnumWrapper@W4GeocoordTypeEnum@@@@@std@@@std@@@TypeConverter@@YAPBDXZ 100442e0 f   PlugInUtilities:TypeConverter.obj
 0001:000432f0       ??$toString@V?$EnumWrapper@W4GraphicObjectTypeEnum@@@@@TypeConverter@@YAPBDXZ 100442f0 f   PlugInUtilities:TypeConverter.obj
 0001:00043300       ??$toString@V?$vector@PAV?$EnumWrapper@W4GraphicObjectTypeEnum@@@@V?$allocator@PAV?$EnumWrapper@W4GraphicObjectTypeEnum@@@@@std@@@std@@@TypeConverter@@YAPBDXZ 10044300 f   PlugInUtilities:TypeConverter.obj
 0001:00043310       ??$toString@V?$vector@V?$EnumWrapper@W4GraphicObjectTypeEnum@@@@V?$allocator@V?$EnumWrapper@W4GraphicObjectTypeEnum@@@@@std@@@std@@@TypeConverter@@YAPBDXZ 10044310 f   PlugInUtilities:TypeConverter.obj
 0001:00043320       ??$toString@V?$EnumWrapper@W4LatLonStyleEnum@@@@@TypeConverter@@YAPBDXZ 10044320 f   PlugInUtilities:TypeConverter.obj
 0001:00043330       ??$toString@V?$vector@PAV?$EnumWrapper@W4LatLonStyleEnum@@@@V?$allocator@PAV?$EnumWrapper@W4LatLonStyleEnum@@@@@std@@@std@@@TypeConverter@@YAPBDXZ 10044330 f   PlugInUtilities:TypeConverter.obj
 0001:00043340       ??$toString@V?$vector@V?$EnumWrapper@W4LatLonStyleEnum@@@@V?$allocator@V?$EnumWrapper@W4LatLonStyleEnum@@@@@std@@@std@@@TypeConverter@@YAPBDXZ 10044340 f   PlugInUtilities:TypeConverter.obj
 0001:00043350       ??$toString@V?$EnumWrapper@W4LayerTypeEnum@@@@@TypeConverter@@YAPBDXZ 10044350 f   PlugInUtilities:TypeConverter.obj
 0001:00043360       ??$toString@V?$vector@PAV?$EnumWrapper@W4LayerTypeEnum@@@@V?$allocator@PAV?$EnumWrapper@W4LayerTypeEnum@@@@@std@@@std@@@TypeConverter@@YAPBDXZ 10044360 f   PlugInUtilities:TypeConverter.obj
 0001:00043370       ??$toString@V?$vector@V?$EnumWrapper@W4LayerTypeEnum@@@@V?$allocator@V?$EnumWrapper@W4LayerTypeEnum@@@@@std@@@std@@@TypeConverter@@YAPBDXZ 10044370 f   PlugInUtilities:TypeConverter.obj
 0001:00043380       ??$toString@V?$EnumWrapper@W4LineStyleEnum@@@@@TypeConverter@@YAPBDXZ 10044380 f   PlugInUtilities:TypeConverter.obj
 0001:00043390       ??$toString@V?$vector@PAV?$EnumWrapper@W4LineStyleEnum@@@@V?$allocator@PAV?$EnumWrapper@W4LineStyleEnum@@@@@std@@@std@@@TypeConverter@@YAPBDXZ 10044390 f   PlugInUtilities:TypeConverter.obj
 0001:000433a0       ??$toString@V?$vector@V?$EnumWrapper@W4LineStyleEnum@@@@V?$allocator@V?$EnumWrapper@W4LineStyleEnum@@@@@std@@@std@@@TypeConverter@@YAPBDXZ 100443a0 f   PlugInUtilities:TypeConverter.obj
 0001:000433b0       ??$toString@V?$EnumWrapper@W4LinkTypeEnum@@@@@TypeConverter@@YAPBDXZ 100443b0 f   PlugInUtilities:TypeConverter.obj
 0001:000433c0       ??$toString@V?$vector@PAV?$EnumWrapper@W4LinkTypeEnum@@@@V?$allocator@PAV?$EnumWrapper@W4LinkTypeEnum@@@@@std@@@std@@@TypeConverter@@YAPBDXZ 100443c0 f   PlugInUtilities:TypeConverter.obj
 0001:000433d0       ??$toString@V?$vector@V?$EnumWrapper@W4LinkTypeEnum@@@@V?$allocator@V?$EnumWrapper@W4LinkTypeEnum@@@@@std@@@std@@@TypeConverter@@YAPBDXZ 100443d0 f   PlugInUtilities:TypeConverter.obj
 0001:000433e0       ??$toString@V?$EnumWrapper@W4PanLimitTypeEnum@@@@@TypeConverter@@YAPBDXZ 100443e0 f   PlugInUtilities:TypeConverter.obj
 0001:000433f0       ??$toString@V?$vector@PAV?$EnumWrapper@W4PanLimitTypeEnum@@@@V?$allocator@PAV?$EnumWrapper@W4PanLimitTypeEnum@@@@@std@@@std@@@TypeConverter@@YAPBDXZ 100443f0 f   PlugInUtilities:TypeConverter.obj
 0001:00043400       ??$toString@V?$vector@V?$EnumWrapper@W4PanLimitTypeEnum@@@@V?$allocator@V?$EnumWrapper@W4PanLimitTypeEnum@@@@@std@@@std@@@TypeConverter@@YAPBDXZ 10044400 f   PlugInUtilities:TypeConverter.obj
 0001:00043410       ??$toString@V?$EnumWrapper@W4PassAreaEnum@@@@@TypeConverter@@YAPBDXZ 10044410 f   PlugInUtilities:TypeConverter.obj
 0001:00043420       ??$toString@V?$vector@PAV?$EnumWrapper@W4PassAreaEnum@@@@V?$allocator@PAV?$EnumWrapper@W4PassAreaEnum@@@@@std@@@std@@@TypeConverter@@YAPBDXZ 10044420 f   PlugInUtilities:TypeConverter.obj
 0001:00043430       ??$toString@V?$vector@V?$EnumWrapper@W4PassAreaEnum@@@@V?$allocator@V?$EnumWrapper@W4PassAreaEnum@@@@@std@@@std@@@TypeConverter@@YAPBDXZ 10044430 f   PlugInUtilities:TypeConverter.obj
 0001:00043440       ??$toString@V?$EnumWrapper@W4PlotObjectTypeEnum@@@@@TypeConverter@@YAPBDXZ 10044440 f   PlugInUtilities:TypeConverter.obj
 0001:00043450       ??$toString@V?$vector@PAV?$EnumWrapper@W4PlotObjectTypeEnum@@@@V?$allocator@PAV?$EnumWrapper@W4PlotObjectTypeEnum@@@@@std@@@std@@@TypeConverter@@YAPBDXZ 10044450 f   PlugInUtilities:TypeConverter.obj
 0001:00043460       ??$toString@V?$vector@V?$EnumWrapper@W4PlotObjectTypeEnum@@@@V?$allocator@V?$EnumWrapper@W4PlotObjectTypeEnum@@@@@std@@@std@@@TypeConverter@@YAPBDXZ 10044460 f   PlugInUtilities:TypeConverter.obj
 0001:00043470       ??$toString@V?$EnumWrapper@W4PointSymbolTypeEnum@Point@@@@@TypeConverter@@YAPBDXZ 10044470 f   PlugInUtilities:TypeConverter.obj
 0001:00043480       ??$toString@V?$vector@PAV?$EnumWrapper@W4PointSymbolTypeEnum@Point@@@@V?$allocator@PAV?$EnumWrapper@W4PointSymbolTypeEnum@Point@@@@@std@@@std@@@TypeConverter@@YAPBDXZ 10044480 f   PlugInUtilities:TypeConverter.obj
 0001:00043490       ??$toString@V?$vector@V?$EnumWrapper@W4PointSymbolTypeEnum@Point@@@@V?$allocator@V?$EnumWrapper@W4PointSymbolTypeEnum@Point@@@@@std@@@std@@@TypeConverter@@YAPBDXZ 10044490 f   PlugInUtilities:TypeConverter.obj
 0001:000434a0       ??$toString@V?$EnumWrapper@W4PositionTypeEnum@@@@@TypeConverter@@YAPBDXZ 100444a0 f   PlugInUtilities:TypeConverter.obj
 0001:000434b0       ??$toString@V?$vector@PAV?$EnumWrapper@W4PositionTypeEnum@@@@V?$allocator@PAV?$EnumWrapper@W4PositionTypeEnum@@@@@std@@@std@@@TypeConverter@@YAPBDXZ 100444b0 f   PlugInUtilities:TypeConverter.obj
 0001:000434c0       ??$toString@V?$vector@V?$EnumWrapper@W4PositionTypeEnum@@@@V?$allocator@V?$EnumWrapper@W4PositionTypeEnum@@@@@std@@@std@@@TypeConverter@@YAPBDXZ 100444c0 f   PlugInUtilities:TypeConverter.obj
 0001:000434d0       ??$toString@V?$EnumWrapper@W4ProcessingLocationEnum@@@@@TypeConverter@@YAPBDXZ 100444d0 f   PlugInUtilities:TypeConverter.obj
 0001:000434e0       ??$toString@V?$vector@PAV?$EnumWrapper@W4ProcessingLocationEnum@@@@V?$allocator@PAV?$EnumWrapper@W4ProcessingLocationEnum@@@@@std@@@std@@@TypeConverter@@YAPBDXZ 100444e0 f   PlugInUtilities:TypeConverter.obj
 0001:000434f0       ??$toString@V?$vector@V?$EnumWrapper@W4ProcessingLocationEnum@@@@V?$allocator@V?$EnumWrapper@W4ProcessingLocationEnum@@@@@std@@@std@@@TypeConverter@@YAPBDXZ 100444f0 f   PlugInUtilities:TypeConverter.obj
 0001:00043500       ??$toString@V?$EnumWrapper@W4SessionSaveTypeEnum@@@@@TypeConverter@@YAPBDXZ 10044500 f   PlugInUtilities:TypeConverter.obj
 0001:00043510       ??$toString@V?$vector@PAV?$EnumWrapper@W4SessionSaveTypeEnum@@@@V?$allocator@PAV?$EnumWrapper@W4SessionSaveTypeEnum@@@@@std@@@std@@@TypeConverter@@YAPBDXZ 10044510 f   PlugInUtilities:TypeConverter.obj
 0001:00043520       ??$toString@V?$vector@V?$EnumWrapper@W4SessionSaveTypeEnum@@@@V?$allocator@V?$EnumWrapper@W4SessionSaveTypeEnum@@@@@std@@@std@@@TypeConverter@@YAPBDXZ 10044520 f   PlugInUtilities:TypeConverter.obj
 0001:00043530       ??$toString@V?$EnumWrapper@W4RasterChannelTypeEnum@@@@@TypeConverter@@YAPBDXZ 10044530 f   PlugInUtilities:TypeConverter.obj
 0001:00043540       ??$toString@V?$vector@PAV?$EnumWrapper@W4RasterChannelTypeEnum@@@@V?$allocator@PAV?$EnumWrapper@W4RasterChannelTypeEnum@@@@@std@@@std@@@TypeConverter@@YAPBDXZ 10044540 f   PlugInUtilities:TypeConverter.obj
 0001:00043550       ??$toString@V?$vector@V?$EnumWrapper@W4RasterChannelTypeEnum@@@@V?$allocator@V?$EnumWrapper@W4RasterChannelTypeEnum@@@@@std@@@std@@@TypeConverter@@YAPBDXZ 10044550 f   PlugInUtilities:TypeConverter.obj
 0001:00043560       ??$toString@V?$EnumWrapper@W4ReleaseTypeEnum@@@@@TypeConverter@@YAPBDXZ 10044560 f   PlugInUtilities:TypeConverter.obj
 0001:00043570       ??$toString@V?$vector@PAV?$EnumWrapper@W4ReleaseTypeEnum@@@@V?$allocator@PAV?$EnumWrapper@W4ReleaseTypeEnum@@@@@std@@@std@@@TypeConverter@@YAPBDXZ 10044570 f   PlugInUtilities:TypeConverter.obj
 0001:00043580       ??$toString@V?$vector@V?$EnumWrapper@W4ReleaseTypeEnum@@@@V?$allocator@V?$EnumWrapper@W4ReleaseTypeEnum@@@@@std@@@std@@@TypeConverter@@YAPBDXZ 10044580 f   PlugInUtilities:TypeConverter.obj
 0001:00043590       ??$toString@V?$EnumWrapper@W4StretchTypeEnum@@@@@TypeConverter@@YAPBDXZ 10044590 f   PlugInUtilities:TypeConverter.obj
 0001:000435a0       ??$toString@V?$vector@PAV?$EnumWrapper@W4StretchTypeEnum@@@@V?$allocator@PAV?$EnumWrapper@W4StretchTypeEnum@@@@@std@@@std@@@TypeConverter@@YAPBDXZ 100445a0 f   PlugInUtilities:TypeConverter.obj
 0001:000435b0       ??$toString@V?$vector@V?$EnumWrapper@W4StretchTypeEnum@@@@V?$allocator@V?$EnumWrapper@W4StretchTypeEnum@@@@@std@@@std@@@TypeConverter@@YAPBDXZ 100445b0 f   PlugInUtilities:TypeConverter.obj
 0001:000435c0       ??$toString@V?$EnumWrapper@W4SymbolTypeEnum@@@@@TypeConverter@@YAPBDXZ 100445c0 f   PlugInUtilities:TypeConverter.obj
 0001:000435d0       ??$toString@V?$vector@PAV?$EnumWrapper@W4SymbolTypeEnum@@@@V?$allocator@PAV?$EnumWrapper@W4SymbolTypeEnum@@@@@std@@@std@@@TypeConverter@@YAPBDXZ 100445d0 f   PlugInUtilities:TypeConverter.obj
 0001:000435e0       ??$toString@V?$vector@V?$EnumWrapper@W4SymbolTypeEnum@@@@V?$allocator@V?$EnumWrapper@W4SymbolTypeEnum@@@@@std@@@std@@@TypeConverter@@YAPBDXZ 100445e0 f   PlugInUtilities:TypeConverter.obj
 0001:000435f0       ??$toString@V?$EnumWrapper@W4RegionUnitsEnum@@@@@TypeConverter@@YAPBDXZ 100445f0 f   PlugInUtilities:TypeConverter.obj
 0001:00043600       ??$toString@V?$vector@PAV?$EnumWrapper@W4RegionUnitsEnum@@@@V?$allocator@PAV?$EnumWrapper@W4RegionUnitsEnum@@@@@std@@@std@@@TypeConverter@@YAPBDXZ 10044600 f   PlugInUtilities:TypeConverter.obj
 0001:00043610       ??$toString@V?$vector@V?$EnumWrapper@W4RegionUnitsEnum@@@@V?$allocator@V?$EnumWrapper@W4RegionUnitsEnum@@@@@std@@@std@@@TypeConverter@@YAPBDXZ 10044610 f   PlugInUtilities:TypeConverter.obj
 0001:00043620       ??$toString@V?$EnumWrapper@W4UnitSystemEnum@@@@@TypeConverter@@YAPBDXZ 10044620 f   PlugInUtilities:TypeConverter.obj
 0001:00043630       ??$toString@V?$vector@PAV?$EnumWrapper@W4UnitSystemEnum@@@@V?$allocator@PAV?$EnumWrapper@W4UnitSystemEnum@@@@@std@@@std@@@TypeConverter@@YAPBDXZ 10044630 f   PlugInUtilities:TypeConverter.obj
 0001:00043640       ??$toString@V?$vector@V?$EnumWrapper@W4UnitSystemEnum@@@@V?$allocator@V?$EnumWrapper@W4UnitSystemEnum@@@@@std@@@std@@@TypeConverter@@YAPBDXZ 10044640 f   PlugInUtilities:TypeConverter.obj
 0001:00043650       ??$toString@V?$EnumWrapper@W4UnitTypeEnum@@@@@TypeConverter@@YAPBDXZ 10044650 f   PlugInUtilities:TypeConverter.obj
 0001:00043660       ??$toString@V?$vector@PAV?$EnumWrapper@W4UnitTypeEnum@@@@V?$allocator@PAV?$EnumWrapper@W4UnitTypeEnum@@@@@std@@@std@@@TypeConverter@@YAPBDXZ 10044660 f   PlugInUtilities:TypeConverter.obj
 0001:00043670       ??$toString@V?$vector@V?$EnumWrapper@W4UnitTypeEnum@@@@V?$allocator@V?$EnumWrapper@W4UnitTypeEnum@@@@@std@@@std@@@TypeConverter@@YAPBDXZ 10044670 f   PlugInUtilities:TypeConverter.obj
 0001:00043680       ??$toString@V?$EnumWrapper@W4WavelengthUnitsTypeEnum@@@@@TypeConverter@@YAPBDXZ 10044680 f   PlugInUtilities:TypeConverter.obj
 0001:00043690       ??$toString@V?$vector@PAV?$EnumWrapper@W4WavelengthUnitsTypeEnum@@@@V?$allocator@PAV?$EnumWrapper@W4WavelengthUnitsTypeEnum@@@@@std@@@std@@@TypeConverter@@YAPBDXZ 10044690 f   PlugInUtilities:TypeConverter.obj
 0001:000436a0       ??$toString@V?$vector@V?$EnumWrapper@W4WavelengthUnitsTypeEnum@@@@V?$allocator@V?$EnumWrapper@W4WavelengthUnitsTypeEnum@@@@@std@@@std@@@TypeConverter@@YAPBDXZ 100446a0 f   PlugInUtilities:TypeConverter.obj
 0001:000436b0       ??$toString@V?$EnumWrapper@W4WindowSizeTypeEnum@@@@@TypeConverter@@YAPBDXZ 100446b0 f   PlugInUtilities:TypeConverter.obj
 0001:000436c0       ??$toString@V?$vector@PAV?$EnumWrapper@W4WindowSizeTypeEnum@@@@V?$allocator@PAV?$EnumWrapper@W4WindowSizeTypeEnum@@@@@std@@@std@@@TypeConverter@@YAPBDXZ 100446c0 f   PlugInUtilities:TypeConverter.obj
 0001:000436d0       ??$toString@V?$vector@V?$EnumWrapper@W4WindowSizeTypeEnum@@@@V?$allocator@V?$EnumWrapper@W4WindowSizeTypeEnum@@@@@std@@@std@@@TypeConverter@@YAPBDXZ 100446d0 f   PlugInUtilities:TypeConverter.obj
 0001:000436e0       ??$toString@V?$EnumWrapper@W4WindowTypeEnum@@@@@TypeConverter@@YAPBDXZ 100446e0 f   PlugInUtilities:TypeConverter.obj
 0001:000436f0       ??$toString@V?$vector@PAV?$EnumWrapper@W4WindowTypeEnum@@@@V?$allocator@PAV?$EnumWrapper@W4WindowTypeEnum@@@@@std@@@std@@@TypeConverter@@YAPBDXZ 100446f0 f   PlugInUtilities:TypeConverter.obj
 0001:00043700       ??$toString@V?$vector@V?$EnumWrapper@W4WindowTypeEnum@@@@V?$allocator@V?$EnumWrapper@W4WindowTypeEnum@@@@@std@@@std@@@TypeConverter@@YAPBDXZ 10044700 f   PlugInUtilities:TypeConverter.obj
 0001:00043710       ??$toString@VAebInstallTransaction@@@TypeConverter@@YAPBDXZ 10044710 f   PlugInUtilities:TypeConverter.obj
 0001:00043720       ??$toString@V?$vector@PAVAebInstallTransaction@@V?$allocator@PAVAebInstallTransaction@@@std@@@std@@@TypeConverter@@YAPBDXZ 10044720 f   PlugInUtilities:TypeConverter.obj
 0001:00043730       ??$toString@V?$vector@VAebInstallTransaction@@V?$allocator@VAebInstallTransaction@@@std@@@std@@@TypeConverter@@YAPBDXZ 10044730 f   PlugInUtilities:TypeConverter.obj
 0001:00043740       ??$toString@PAVAebInstallTransaction@@@TypeConverter@@YAPBDXZ 10044740 f   PlugInUtilities:TypeConverter.obj
 0001:00043750       ??$toString@VApplicationWindow@@@TypeConverter@@YAPBDXZ 10044750 f   PlugInUtilities:TypeConverter.obj
 0001:00043760       ??$toString@V?$vector@PAVApplicationWindow@@V?$allocator@PAVApplicationWindow@@@std@@@std@@@TypeConverter@@YAPBDXZ 10044760 f   PlugInUtilities:TypeConverter.obj
 0001:00043770       ??$toString@V?$vector@VApplicationWindow@@V?$allocator@VApplicationWindow@@@std@@@std@@@TypeConverter@@YAPBDXZ 10044770 f   PlugInUtilities:TypeConverter.obj
 0001:00043780       ??$toString@PAVApplicationWindow@@@TypeConverter@@YAPBDXZ 10044780 f   PlugInUtilities:TypeConverter.obj
 0001:00043790       ??$toString@VAnimation@@@TypeConverter@@YAPBDXZ 10044790 f   PlugInUtilities:TypeConverter.obj
 0001:000437a0       ??$toString@V?$vector@PAVAnimation@@V?$allocator@PAVAnimation@@@std@@@std@@@TypeConverter@@YAPBDXZ 100447a0 f   PlugInUtilities:TypeConverter.obj
 0001:000437b0       ??$toString@V?$vector@VAnimation@@V?$allocator@VAnimation@@@std@@@std@@@TypeConverter@@YAPBDXZ 100447b0 f   PlugInUtilities:TypeConverter.obj
 0001:000437c0       ??$toString@PAVAnimation@@@TypeConverter@@YAPBDXZ 100447c0 f   PlugInUtilities:TypeConverter.obj
 0001:000437d0       ??$toString@VAnimationController@@@TypeConverter@@YAPBDXZ 100447d0 f   PlugInUtilities:TypeConverter.obj
 0001:000437e0       ??$toString@V?$vector@PAVAnimationController@@V?$allocator@PAVAnimationController@@@std@@@std@@@TypeConverter@@YAPBDXZ 100447e0 f   PlugInUtilities:TypeConverter.obj
 0001:000437f0       ??$toString@V?$vector@VAnimationController@@V?$allocator@VAnimationController@@@std@@@std@@@TypeConverter@@YAPBDXZ 100447f0 f   PlugInUtilities:TypeConverter.obj
 0001:00043800       ??$toString@PAVAnimationController@@@TypeConverter@@YAPBDXZ 10044800 f   PlugInUtilities:TypeConverter.obj
 0001:00043810       ??$toString@VAnnotationElement@@@TypeConverter@@YAPBDXZ 10044810 f   PlugInUtilities:TypeConverter.obj
 0001:00043820       ??$toString@V?$vector@PAVAnnotationElement@@V?$allocator@PAVAnnotationElement@@@std@@@std@@@TypeConverter@@YAPBDXZ 10044820 f   PlugInUtilities:TypeConverter.obj
 0001:00043830       ??$toString@V?$vector@VAnnotationElement@@V?$allocator@VAnnotationElement@@@std@@@std@@@TypeConverter@@YAPBDXZ 10044830 f   PlugInUtilities:TypeConverter.obj
 0001:00043840       ??$toString@PAVAnnotationElement@@@TypeConverter@@YAPBDXZ 10044840 f   PlugInUtilities:TypeConverter.obj
 0001:00043850       ??$toString@VAnnotationLayer@@@TypeConverter@@YAPBDXZ 10044850 f   PlugInUtilities:TypeConverter.obj
 0001:00043860       ??$toString@V?$vector@PAVAnnotationLayer@@V?$allocator@PAVAnnotationLayer@@@std@@@std@@@TypeConverter@@YAPBDXZ 10044860 f   PlugInUtilities:TypeConverter.obj
 0001:00043870       ??$toString@V?$vector@VAnnotationLayer@@V?$allocator@VAnnotationLayer@@@std@@@std@@@TypeConverter@@YAPBDXZ 10044870 f   PlugInUtilities:TypeConverter.obj
 0001:00043880       ??$toString@PAVAnnotationLayer@@@TypeConverter@@YAPBDXZ 10044880 f   PlugInUtilities:TypeConverter.obj
 0001:00043890       ??$toString@VAny@@@TypeConverter@@YAPBDXZ 10044890 f   PlugInUtilities:TypeConverter.obj
 0001:000438a0       ??$toString@V?$vector@PAVAny@@V?$allocator@PAVAny@@@std@@@std@@@TypeConverter@@YAPBDXZ 100448a0 f   PlugInUtilities:TypeConverter.obj
 0001:000438b0       ??$toString@V?$vector@VAny@@V?$allocator@VAny@@@std@@@std@@@TypeConverter@@YAPBDXZ 100448b0 f   PlugInUtilities:TypeConverter.obj
 0001:000438c0       ??$toString@PAVAny@@@TypeConverter@@YAPBDXZ 100448c0 f   PlugInUtilities:TypeConverter.obj
 0001:000438d0       ??$toString@VAoiElement@@@TypeConverter@@YAPBDXZ 100448d0 f   PlugInUtilities:TypeConverter.obj
 0001:000438e0       ??$toString@V?$vector@PAVAoiElement@@V?$allocator@PAVAoiElement@@@std@@@std@@@TypeConverter@@YAPBDXZ 100448e0 f   PlugInUtilities:TypeConverter.obj
 0001:000438f0       ??$toString@V?$vector@VAoiElement@@V?$allocator@VAoiElement@@@std@@@std@@@TypeConverter@@YAPBDXZ 100448f0 f   PlugInUtilities:TypeConverter.obj
 0001:00043900       ??$toString@PAVAoiElement@@@TypeConverter@@YAPBDXZ 10044900 f   PlugInUtilities:TypeConverter.obj
 0001:00043910       ??$toString@VAoiLayer@@@TypeConverter@@YAPBDXZ 10044910 f   PlugInUtilities:TypeConverter.obj
 0001:00043920       ??$toString@V?$vector@PAVAoiLayer@@V?$allocator@PAVAoiLayer@@@std@@@std@@@TypeConverter@@YAPBDXZ 10044920 f   PlugInUtilities:TypeConverter.obj
 0001:00043930       ??$toString@V?$vector@VAoiLayer@@V?$allocator@VAoiLayer@@@std@@@std@@@TypeConverter@@YAPBDXZ 10044930 f   PlugInUtilities:TypeConverter.obj
 0001:00043940       ??$toString@PAVAoiLayer@@@TypeConverter@@YAPBDXZ 10044940 f   PlugInUtilities:TypeConverter.obj
 0001:00043950       ??$toString@VBadValues@@@TypeConverter@@YAPBDXZ 10044950 f   PlugInUtilities:TypeConverter.obj
 0001:00043960       ??$toString@V?$vector@PAVBadValues@@V?$allocator@PAVBadValues@@@std@@@std@@@TypeConverter@@YAPBDXZ 10044960 f   PlugInUtilities:TypeConverter.obj
 0001:00043970       ??$toString@V?$vector@VBadValues@@V?$allocator@VBadValues@@@std@@@std@@@TypeConverter@@YAPBDXZ 10044970 f   PlugInUtilities:TypeConverter.obj
 0001:00043980       ??$toString@PAVBadValues@@@TypeConverter@@YAPBDXZ 10044980 f   PlugInUtilities:TypeConverter.obj
 0001:00043990       ??$toString@VBitMask@@@TypeConverter@@YAPBDXZ 10044990 f   PlugInUtilities:TypeConverter.obj
 0001:000439a0       ??$toString@V?$vector@PAVBitMask@@V?$allocator@PAVBitMask@@@std@@@std@@@TypeConverter@@YAPBDXZ 100449a0 f   PlugInUtilities:TypeConverter.obj
 0001:000439b0       ??$toString@V?$vector@VBitMask@@V?$allocator@VBitMask@@@std@@@std@@@TypeConverter@@YAPBDXZ 100449b0 f   PlugInUtilities:TypeConverter.obj
 0001:000439c0       ??$toString@PAVBitMask@@@TypeConverter@@YAPBDXZ 100449c0 f   PlugInUtilities:TypeConverter.obj
 0001:000439d0       ??$toString@VBlob@@@TypeConverter@@YAPBDXZ 100449d0 f   PlugInUtilities:TypeConverter.obj
 0001:000439e0       ??$toString@V?$vector@PAVBlob@@V?$allocator@PAVBlob@@@std@@@std@@@TypeConverter@@YAPBDXZ 100449e0 f   PlugInUtilities:TypeConverter.obj
 0001:000439f0       ??$toString@V?$vector@VBlob@@V?$allocator@VBlob@@@std@@@std@@@TypeConverter@@YAPBDXZ 100449f0 f   PlugInUtilities:TypeConverter.obj
 0001:00043a00       ??$toString@PAVBlob@@@TypeConverter@@YAPBDXZ 10044a00 f   PlugInUtilities:TypeConverter.obj
 0001:00043a10       ??$toString@VCartesianPlot@@@TypeConverter@@YAPBDXZ 10044a10 f   PlugInUtilities:TypeConverter.obj
 0001:00043a20       ??$toString@V?$vector@PAVCartesianPlot@@V?$allocator@PAVCartesianPlot@@@std@@@std@@@TypeConverter@@YAPBDXZ 10044a20 f   PlugInUtilities:TypeConverter.obj
 0001:00043a30       ??$toString@V?$vector@VCartesianPlot@@V?$allocator@VCartesianPlot@@@std@@@std@@@TypeConverter@@YAPBDXZ 10044a30 f   PlugInUtilities:TypeConverter.obj
 0001:00043a40       ??$toString@PAVCartesianPlot@@@TypeConverter@@YAPBDXZ 10044a40 f   PlugInUtilities:TypeConverter.obj
 0001:00043a50       ??$toString@VClassification@@@TypeConverter@@YAPBDXZ 10044a50 f   PlugInUtilities:TypeConverter.obj
 0001:00043a60       ??$toString@V?$vector@PAVClassification@@V?$allocator@PAVClassification@@@std@@@std@@@TypeConverter@@YAPBDXZ 10044a60 f   PlugInUtilities:TypeConverter.obj
 0001:00043a70       ??$toString@V?$vector@VClassification@@V?$allocator@VClassification@@@std@@@std@@@TypeConverter@@YAPBDXZ 10044a70 f   PlugInUtilities:TypeConverter.obj
 0001:00043a80       ??$toString@PAVClassification@@@TypeConverter@@YAPBDXZ 10044a80 f   PlugInUtilities:TypeConverter.obj
 0001:00043a90       ??$toString@VClassificationLayer@@@TypeConverter@@YAPBDXZ 10044a90 f   PlugInUtilities:TypeConverter.obj
 0001:00043aa0       ??$toString@V?$vector@PAVClassificationLayer@@V?$allocator@PAVClassificationLayer@@@std@@@std@@@TypeConverter@@YAPBDXZ 10044aa0 f   PlugInUtilities:TypeConverter.obj
 0001:00043ab0       ??$toString@V?$vector@VClassificationLayer@@V?$allocator@VClassificationLayer@@@std@@@std@@@TypeConverter@@YAPBDXZ 10044ab0 f   PlugInUtilities:TypeConverter.obj
 0001:00043ac0       ??$toString@PAVClassificationLayer@@@TypeConverter@@YAPBDXZ 10044ac0 f   PlugInUtilities:TypeConverter.obj
 0001:00043ad0       ??$toString@VColorType@@@TypeConverter@@YAPBDXZ 10044ad0 f   PlugInUtilities:TypeConverter.obj
 0001:00043ae0       ??$toString@V?$vector@PAVColorType@@V?$allocator@PAVColorType@@@std@@@std@@@TypeConverter@@YAPBDXZ 10044ae0 f   PlugInUtilities:TypeConverter.obj
 0001:00043af0       ??$toString@V?$vector@VColorType@@V?$allocator@VColorType@@@std@@@std@@@TypeConverter@@YAPBDXZ 10044af0 f   PlugInUtilities:TypeConverter.obj
 0001:00043b00       ??$toString@PAVColorType@@@TypeConverter@@YAPBDXZ 10044b00 f   PlugInUtilities:TypeConverter.obj
 0001:00043b10       ??$toString@VCustomLayer@@@TypeConverter@@YAPBDXZ 10044b10 f   PlugInUtilities:TypeConverter.obj
 0001:00043b20       ??$toString@V?$vector@PAVCustomLayer@@V?$allocator@PAVCustomLayer@@@std@@@std@@@TypeConverter@@YAPBDXZ 10044b20 f   PlugInUtilities:TypeConverter.obj
 0001:00043b30       ??$toString@V?$vector@VCustomLayer@@V?$allocator@VCustomLayer@@@std@@@std@@@TypeConverter@@YAPBDXZ 10044b30 f   PlugInUtilities:TypeConverter.obj
 0001:00043b40       ??$toString@PAVCustomLayer@@@TypeConverter@@YAPBDXZ 10044b40 f   PlugInUtilities:TypeConverter.obj
 0001:00043b50       ??$toString@VDataDescriptor@@@TypeConverter@@YAPBDXZ 10044b50 f   PlugInUtilities:TypeConverter.obj
 0001:00043b60       ??$toString@V?$vector@PAVDataDescriptor@@V?$allocator@PAVDataDescriptor@@@std@@@std@@@TypeConverter@@YAPBDXZ 10044b60 f   PlugInUtilities:TypeConverter.obj
 0001:00043b70       ??$toString@V?$vector@VDataDescriptor@@V?$allocator@VDataDescriptor@@@std@@@std@@@TypeConverter@@YAPBDXZ 10044b70 f   PlugInUtilities:TypeConverter.obj
 0001:00043b80       ??$toString@PAVDataDescriptor@@@TypeConverter@@YAPBDXZ 10044b80 f   PlugInUtilities:TypeConverter.obj
 0001:00043b90       ??$toString@VDataElement@@@TypeConverter@@YAPBDXZ 10044b90 f   PlugInUtilities:TypeConverter.obj
 0001:00043ba0       ??$toString@V?$vector@PAVDataElement@@V?$allocator@PAVDataElement@@@std@@@std@@@TypeConverter@@YAPBDXZ 10044ba0 f   PlugInUtilities:TypeConverter.obj
 0001:00043bb0       ??$toString@V?$vector@VDataElement@@V?$allocator@VDataElement@@@std@@@std@@@TypeConverter@@YAPBDXZ 10044bb0 f   PlugInUtilities:TypeConverter.obj
 0001:00043bc0       ??$toString@PAVDataElement@@@TypeConverter@@YAPBDXZ 10044bc0 f   PlugInUtilities:TypeConverter.obj
 0001:00043bd0       ??$toString@VDataElementGroup@@@TypeConverter@@YAPBDXZ 10044bd0 f   PlugInUtilities:TypeConverter.obj
 0001:00043be0       ??$toString@V?$vector@PAVDataElementGroup@@V?$allocator@PAVDataElementGroup@@@std@@@std@@@TypeConverter@@YAPBDXZ 10044be0 f   PlugInUtilities:TypeConverter.obj
 0001:00043bf0       ??$toString@V?$vector@VDataElementGroup@@V?$allocator@VDataElementGroup@@@std@@@std@@@TypeConverter@@YAPBDXZ 10044bf0 f   PlugInUtilities:TypeConverter.obj
 0001:00043c00       ??$toString@PAVDataElementGroup@@@TypeConverter@@YAPBDXZ 10044c00 f   PlugInUtilities:TypeConverter.obj
 0001:00043c10       ??$toString@VDataRequest@@@TypeConverter@@YAPBDXZ 10044c10 f   PlugInUtilities:TypeConverter.obj
 0001:00043c20       ??$toString@V?$vector@PAVDataRequest@@V?$allocator@PAVDataRequest@@@std@@@std@@@TypeConverter@@YAPBDXZ 10044c20 f   PlugInUtilities:TypeConverter.obj
 0001:00043c30       ??$toString@V?$vector@VDataRequest@@V?$allocator@VDataRequest@@@std@@@std@@@TypeConverter@@YAPBDXZ 10044c30 f   PlugInUtilities:TypeConverter.obj
 0001:00043c40       ??$toString@PAVDataRequest@@@TypeConverter@@YAPBDXZ 10044c40 f   PlugInUtilities:TypeConverter.obj
 0001:00043c50       ??$toString@VDataVariantAnyData@@@TypeConverter@@YAPBDXZ 10044c50 f   PlugInUtilities:TypeConverter.obj
 0001:00043c60       ??$toString@V?$vector@PAVDataVariantAnyData@@V?$allocator@PAVDataVariantAnyData@@@std@@@std@@@TypeConverter@@YAPBDXZ 10044c60 f   PlugInUtilities:TypeConverter.obj
 0001:00043c70       ??$toString@V?$vector@VDataVariantAnyData@@V?$allocator@VDataVariantAnyData@@@std@@@std@@@TypeConverter@@YAPBDXZ 10044c70 f   PlugInUtilities:TypeConverter.obj
 0001:00043c80       ??$toString@PAVDataVariantAnyData@@@TypeConverter@@YAPBDXZ 10044c80 f   PlugInUtilities:TypeConverter.obj
 0001:00043c90       ??$toString@VDateTime@@@TypeConverter@@YAPBDXZ 10044c90 f   PlugInUtilities:TypeConverter.obj
 0001:00043ca0       ??$toString@V?$vector@PAVDateTime@@V?$allocator@PAVDateTime@@@std@@@std@@@TypeConverter@@YAPBDXZ 10044ca0 f   PlugInUtilities:TypeConverter.obj
 0001:00043cb0       ??$toString@V?$vector@VDateTime@@V?$allocator@VDateTime@@@std@@@std@@@TypeConverter@@YAPBDXZ 10044cb0 f   PlugInUtilities:TypeConverter.obj
 0001:00043cc0       ??$toString@PAVDateTime@@@TypeConverter@@YAPBDXZ 10044cc0 f   PlugInUtilities:TypeConverter.obj
 0001:00043cd0       ??$toString@VDimensionDescriptor@@@TypeConverter@@YAPBDXZ 10044cd0 f   PlugInUtilities:TypeConverter.obj
 0001:00043ce0       ??$toString@V?$vector@PAVDimensionDescriptor@@V?$allocator@PAVDimensionDescriptor@@@std@@@std@@@TypeConverter@@YAPBDXZ 10044ce0 f   PlugInUtilities:TypeConverter.obj
 0001:00043cf0       ??$toString@V?$vector@VDimensionDescriptor@@V?$allocator@VDimensionDescriptor@@@std@@@std@@@TypeConverter@@YAPBDXZ 10044cf0 f   PlugInUtilities:TypeConverter.obj
 0001:00043d00       ??$toString@PAVDimensionDescriptor@@@TypeConverter@@YAPBDXZ 10044d00 f   PlugInUtilities:TypeConverter.obj
 0001:00043d10       ??$toString@VDynamicObject@@@TypeConverter@@YAPBDXZ 10044d10 f   PlugInUtilities:TypeConverter.obj
 0001:00043d20       ??$toString@V?$vector@PAVDynamicObject@@V?$allocator@PAVDynamicObject@@@std@@@std@@@TypeConverter@@YAPBDXZ 10044d20 f   PlugInUtilities:TypeConverter.obj
 0001:00043d30       ??$toString@V?$vector@VDynamicObject@@V?$allocator@VDynamicObject@@@std@@@std@@@TypeConverter@@YAPBDXZ 10044d30 f   PlugInUtilities:TypeConverter.obj
 0001:00043d40       ??$toString@PAVDynamicObject@@@TypeConverter@@YAPBDXZ 10044d40 f   PlugInUtilities:TypeConverter.obj
 0001:00043d50       ??$toString@VExecutableAgent@@@TypeConverter@@YAPBDXZ 10044d50 f   PlugInUtilities:TypeConverter.obj
 0001:00043d60       ??$toString@V?$vector@PAVExecutableAgent@@V?$allocator@PAVExecutableAgent@@@std@@@std@@@TypeConverter@@YAPBDXZ 10044d60 f   PlugInUtilities:TypeConverter.obj
 0001:00043d70       ??$toString@V?$vector@VExecutableAgent@@V?$allocator@VExecutableAgent@@@std@@@std@@@TypeConverter@@YAPBDXZ 10044d70 f   PlugInUtilities:TypeConverter.obj
 0001:00043d80       ??$toString@PAVExecutableAgent@@@TypeConverter@@YAPBDXZ 10044d80 f   PlugInUtilities:TypeConverter.obj
 0001:00043d90       ??$toString@VExportAgent@@@TypeConverter@@YAPBDXZ 10044d90 f   PlugInUtilities:TypeConverter.obj
 0001:00043da0       ??$toString@V?$vector@PAVExportAgent@@V?$allocator@PAVExportAgent@@@std@@@std@@@TypeConverter@@YAPBDXZ 10044da0 f   PlugInUtilities:TypeConverter.obj
 0001:00043db0       ??$toString@V?$vector@VExportAgent@@V?$allocator@VExportAgent@@@std@@@std@@@TypeConverter@@YAPBDXZ 10044db0 f   PlugInUtilities:TypeConverter.obj
 0001:00043dc0       ??$toString@PAVExportAgent@@@TypeConverter@@YAPBDXZ 10044dc0 f   PlugInUtilities:TypeConverter.obj
 0001:00043dd0       ??$toString@VFileDescriptor@@@TypeConverter@@YAPBDXZ 10044dd0 f   PlugInUtilities:TypeConverter.obj
 0001:00043de0       ??$toString@V?$vector@PAVFileDescriptor@@V?$allocator@PAVFileDescriptor@@@std@@@std@@@TypeConverter@@YAPBDXZ 10044de0 f   PlugInUtilities:TypeConverter.obj
 0001:00043df0       ??$toString@V?$vector@VFileDescriptor@@V?$allocator@VFileDescriptor@@@std@@@std@@@TypeConverter@@YAPBDXZ 10044df0 f   PlugInUtilities:TypeConverter.obj
 0001:00043e00       ??$toString@PAVFileDescriptor@@@TypeConverter@@YAPBDXZ 10044e00 f   PlugInUtilities:TypeConverter.obj
 0001:00043e10       ??$toString@VFileFinder@@@TypeConverter@@YAPBDXZ 10044e10 f   PlugInUtilities:TypeConverter.obj
 0001:00043e20       ??$toString@V?$vector@PAVFileFinder@@V?$allocator@PAVFileFinder@@@std@@@std@@@TypeConverter@@YAPBDXZ 10044e20 f   PlugInUtilities:TypeConverter.obj
 0001:00043e30       ??$toString@V?$vector@VFileFinder@@V?$allocator@VFileFinder@@@std@@@std@@@TypeConverter@@YAPBDXZ 10044e30 f   PlugInUtilities:TypeConverter.obj
 0001:00043e40       ??$toString@PAVFileFinder@@@TypeConverter@@YAPBDXZ 10044e40 f   PlugInUtilities:TypeConverter.obj
 0001:00043e50       ??$toString@VFilename@@@TypeConverter@@YAPBDXZ 10044e50 f   PlugInUtilities:TypeConverter.obj
 0001:00043e60       ??$toString@V?$vector@PAVFilename@@V?$allocator@PAVFilename@@@std@@@std@@@TypeConverter@@YAPBDXZ 10044e60 f   PlugInUtilities:TypeConverter.obj
 0001:00043e70       ??$toString@V?$vector@VFilename@@V?$allocator@VFilename@@@std@@@std@@@TypeConverter@@YAPBDXZ 10044e70 f   PlugInUtilities:TypeConverter.obj
 0001:00043e80       ??$toString@PAVFilename@@@TypeConverter@@YAPBDXZ 10044e80 f   PlugInUtilities:TypeConverter.obj
 0001:00043e90       ??$toString@VFloatComplex@@@TypeConverter@@YAPBDXZ 10044e90 f   PlugInUtilities:TypeConverter.obj
 0001:00043ea0       ??$toString@V?$vector@PAVFloatComplex@@V?$allocator@PAVFloatComplex@@@std@@@std@@@TypeConverter@@YAPBDXZ 10044ea0 f   PlugInUtilities:TypeConverter.obj
 0001:00043eb0       ??$toString@V?$vector@VFloatComplex@@V?$allocator@VFloatComplex@@@std@@@std@@@TypeConverter@@YAPBDXZ 10044eb0 f   PlugInUtilities:TypeConverter.obj
 0001:00043ec0       ??$toString@PAVFloatComplex@@@TypeConverter@@YAPBDXZ 10044ec0 f   PlugInUtilities:TypeConverter.obj
 0001:00043ed0       ??$toString@VFont@@@TypeConverter@@YAPBDXZ 10044ed0 f   PlugInUtilities:TypeConverter.obj
 0001:00043ee0       ??$toString@V?$vector@PAVFont@@V?$allocator@PAVFont@@@std@@@std@@@TypeConverter@@YAPBDXZ 10044ee0 f   PlugInUtilities:TypeConverter.obj
 0001:00043ef0       ??$toString@V?$vector@VFont@@V?$allocator@VFont@@@std@@@std@@@TypeConverter@@YAPBDXZ 10044ef0 f   PlugInUtilities:TypeConverter.obj
 0001:00043f00       ??$toString@PAVFont@@@TypeConverter@@YAPBDXZ 10044f00 f   PlugInUtilities:TypeConverter.obj
 0001:00043f10       ??$toString@VGcpLayer@@@TypeConverter@@YAPBDXZ 10044f10 f   PlugInUtilities:TypeConverter.obj
 0001:00043f20       ??$toString@V?$vector@PAVGcpLayer@@V?$allocator@PAVGcpLayer@@@std@@@std@@@TypeConverter@@YAPBDXZ 10044f20 f   PlugInUtilities:TypeConverter.obj
 0001:00043f30       ??$toString@V?$vector@VGcpLayer@@V?$allocator@VGcpLayer@@@std@@@std@@@TypeConverter@@YAPBDXZ 10044f30 f   PlugInUtilities:TypeConverter.obj
 0001:00043f40       ??$toString@PAVGcpLayer@@@TypeConverter@@YAPBDXZ 10044f40 f   PlugInUtilities:TypeConverter.obj
 0001:00043f50       ??$toString@VGcpList@@@TypeConverter@@YAPBDXZ 10044f50 f   PlugInUtilities:TypeConverter.obj
 0001:00043f60       ??$toString@V?$vector@PAVGcpList@@V?$allocator@PAVGcpList@@@std@@@std@@@TypeConverter@@YAPBDXZ 10044f60 f   PlugInUtilities:TypeConverter.obj
 0001:00043f70       ??$toString@V?$vector@VGcpList@@V?$allocator@VGcpList@@@std@@@std@@@TypeConverter@@YAPBDXZ 10044f70 f   PlugInUtilities:TypeConverter.obj
 0001:00043f80       ??$toString@PAVGcpList@@@TypeConverter@@YAPBDXZ 10044f80 f   PlugInUtilities:TypeConverter.obj
 0001:00043f90       ??$toString@VGeoreferenceDescriptor@@@TypeConverter@@YAPBDXZ 10044f90 f   PlugInUtilities:TypeConverter.obj
 0001:00043fa0       ??$toString@V?$vector@PAVGeoreferenceDescriptor@@V?$allocator@PAVGeoreferenceDescriptor@@@std@@@std@@@TypeConverter@@YAPBDXZ 10044fa0 f   PlugInUtilities:TypeConverter.obj
 0001:00043fb0       ??$toString@V?$vector@VGeoreferenceDescriptor@@V?$allocator@VGeoreferenceDescriptor@@@std@@@std@@@TypeConverter@@YAPBDXZ 10044fb0 f   PlugInUtilities:TypeConverter.obj
 0001:00043fc0       ??$toString@PAVGeoreferenceDescriptor@@@TypeConverter@@YAPBDXZ 10044fc0 f   PlugInUtilities:TypeConverter.obj
 0001:00043fd0       ??$toString@VGraphicElement@@@TypeConverter@@YAPBDXZ 10044fd0 f   PlugInUtilities:TypeConverter.obj
 0001:00043fe0       ??$toString@V?$vector@PAVGraphicElement@@V?$allocator@PAVGraphicElement@@@std@@@std@@@TypeConverter@@YAPBDXZ 10044fe0 f   PlugInUtilities:TypeConverter.obj
 0001:00043ff0       ??$toString@V?$vector@VGraphicElement@@V?$allocator@VGraphicElement@@@std@@@std@@@TypeConverter@@YAPBDXZ 10044ff0 f   PlugInUtilities:TypeConverter.obj
 0001:00044000       ??$toString@PAVGraphicElement@@@TypeConverter@@YAPBDXZ 10045000 f   PlugInUtilities:TypeConverter.obj
 0001:00044010       ??$toString@VGraphicLayer@@@TypeConverter@@YAPBDXZ 10045010 f   PlugInUtilities:TypeConverter.obj
 0001:00044020       ??$toString@V?$vector@PAVGraphicLayer@@V?$allocator@PAVGraphicLayer@@@std@@@std@@@TypeConverter@@YAPBDXZ 10045020 f   PlugInUtilities:TypeConverter.obj
 0001:00044030       ??$toString@V?$vector@VGraphicLayer@@V?$allocator@VGraphicLayer@@@std@@@std@@@TypeConverter@@YAPBDXZ 10045030 f   PlugInUtilities:TypeConverter.obj
 0001:00044040       ??$toString@PAVGraphicLayer@@@TypeConverter@@YAPBDXZ 10045040 f   PlugInUtilities:TypeConverter.obj
 0001:00044050       ??$toString@VHistogramPlot@@@TypeConverter@@YAPBDXZ 10045050 f   PlugInUtilities:TypeConverter.obj
 0001:00044060       ??$toString@V?$vector@PAVHistogramPlot@@V?$allocator@PAVHistogramPlot@@@std@@@std@@@TypeConverter@@YAPBDXZ 10045060 f   PlugInUtilities:TypeConverter.obj
 0001:00044070       ??$toString@V?$vector@VHistogramPlot@@V?$allocator@VHistogramPlot@@@std@@@std@@@TypeConverter@@YAPBDXZ 10045070 f   PlugInUtilities:TypeConverter.obj
 0001:00044080       ??$toString@PAVHistogramPlot@@@TypeConverter@@YAPBDXZ 10045080 f   PlugInUtilities:TypeConverter.obj
 0001:00044090       ??$toString@VImportAgent@@@TypeConverter@@YAPBDXZ 10045090 f   PlugInUtilities:TypeConverter.obj
 0001:000440a0       ??$toString@V?$vector@PAVImportAgent@@V?$allocator@PAVImportAgent@@@std@@@std@@@TypeConverter@@YAPBDXZ 100450a0 f   PlugInUtilities:TypeConverter.obj
 0001:000440b0       ??$toString@V?$vector@VImportAgent@@V?$allocator@VImportAgent@@@std@@@std@@@TypeConverter@@YAPBDXZ 100450b0 f   PlugInUtilities:TypeConverter.obj
 0001:000440c0       ??$toString@PAVImportAgent@@@TypeConverter@@YAPBDXZ 100450c0 f   PlugInUtilities:TypeConverter.obj
 0001:000440d0       ??$toString@VIntegerComplex@@@TypeConverter@@YAPBDXZ 100450d0 f   PlugInUtilities:TypeConverter.obj
 0001:000440e0       ??$toString@V?$vector@PAVIntegerComplex@@V?$allocator@PAVIntegerComplex@@@std@@@std@@@TypeConverter@@YAPBDXZ 100450e0 f   PlugInUtilities:TypeConverter.obj
 0001:000440f0       ??$toString@V?$vector@VIntegerComplex@@V?$allocator@VIntegerComplex@@@std@@@std@@@TypeConverter@@YAPBDXZ 100450f0 f   PlugInUtilities:TypeConverter.obj
 0001:00044100       ??$toString@PAVIntegerComplex@@@TypeConverter@@YAPBDXZ 10045100 f   PlugInUtilities:TypeConverter.obj
 0001:00044110       ??$toString@VInt64@@@TypeConverter@@YAPBDXZ 10045110 f   PlugInUtilities:TypeConverter.obj
 0001:00044120       ??$toString@V?$vector@PAVInt64@@V?$allocator@PAVInt64@@@std@@@std@@@TypeConverter@@YAPBDXZ 10045120 f   PlugInUtilities:TypeConverter.obj
 0001:00044130       ??$toString@V?$vector@VInt64@@V?$allocator@VInt64@@@std@@@std@@@TypeConverter@@YAPBDXZ 10045130 f   PlugInUtilities:TypeConverter.obj
 0001:00044140       ??$toString@VLatLonLayer@@@TypeConverter@@YAPBDXZ 10045140 f   PlugInUtilities:TypeConverter.obj
 0001:00044150       ??$toString@V?$vector@PAVLatLonLayer@@V?$allocator@PAVLatLonLayer@@@std@@@std@@@TypeConverter@@YAPBDXZ 10045150 f   PlugInUtilities:TypeConverter.obj
 0001:00044160       ??$toString@V?$vector@VLatLonLayer@@V?$allocator@VLatLonLayer@@@std@@@std@@@TypeConverter@@YAPBDXZ 10045160 f   PlugInUtilities:TypeConverter.obj
 0001:00044170       ??$toString@PAVLatLonLayer@@@TypeConverter@@YAPBDXZ 10045170 f   PlugInUtilities:TypeConverter.obj
 0001:00044180       ??$toString@VLayer@@@TypeConverter@@YAPBDXZ 10045180 f   PlugInUtilities:TypeConverter.obj
 0001:00044190       ??$toString@V?$vector@PAVLayer@@V?$allocator@PAVLayer@@@std@@@std@@@TypeConverter@@YAPBDXZ 10045190 f   PlugInUtilities:TypeConverter.obj
 0001:000441a0       ??$toString@V?$vector@VLayer@@V?$allocator@VLayer@@@std@@@std@@@TypeConverter@@YAPBDXZ 100451a0 f   PlugInUtilities:TypeConverter.obj
 0001:000441b0       ??$toString@PAVLayer@@@TypeConverter@@YAPBDXZ 100451b0 f   PlugInUtilities:TypeConverter.obj
 0001:000441c0       ??$toString@V?$Location@N$01@Opticks@@@TypeConverter@@YAPBDXZ 100451c0 f   PlugInUtilities:TypeConverter.obj
 0001:000441d0       ??$toString@V?$vector@PAV?$Location@N$01@Opticks@@V?$allocator@PAV?$Location@N$01@Opticks@@@std@@@std@@@TypeConverter@@YAPBDXZ 100451d0 f   PlugInUtilities:TypeConverter.obj
 0001:000441e0       ??$toString@V?$vector@V?$Location@N$01@Opticks@@V?$allocator@V?$Location@N$01@Opticks@@@std@@@std@@@TypeConverter@@YAPBDXZ 100451e0 f   PlugInUtilities:TypeConverter.obj
 0001:000441f0       ??$toString@VMeasurementLayer@@@TypeConverter@@YAPBDXZ 100451f0 f   PlugInUtilities:TypeConverter.obj
 0001:00044200       ??$toString@V?$vector@PAVMeasurementLayer@@V?$allocator@PAVMeasurementLayer@@@std@@@std@@@TypeConverter@@YAPBDXZ 10045200 f   PlugInUtilities:TypeConverter.obj
 0001:00044210       ??$toString@V?$vector@VMeasurementLayer@@V?$allocator@VMeasurementLayer@@@std@@@std@@@TypeConverter@@YAPBDXZ 10045210 f   PlugInUtilities:TypeConverter.obj
 0001:00044220       ??$toString@PAVMeasurementLayer@@@TypeConverter@@YAPBDXZ 10045220 f   PlugInUtilities:TypeConverter.obj
 0001:00044230       ??$toString@VOrthographicView@@@TypeConverter@@YAPBDXZ 10045230 f   PlugInUtilities:TypeConverter.obj
 0001:00044240       ??$toString@V?$vector@PAVOrthographicView@@V?$allocator@PAVOrthographicView@@@std@@@std@@@TypeConverter@@YAPBDXZ 10045240 f   PlugInUtilities:TypeConverter.obj
 0001:00044250       ??$toString@V?$vector@VOrthographicView@@V?$allocator@VOrthographicView@@@std@@@std@@@TypeConverter@@YAPBDXZ 10045250 f   PlugInUtilities:TypeConverter.obj
 0001:00044260       ??$toString@PAVOrthographicView@@@TypeConverter@@YAPBDXZ 10045260 f   PlugInUtilities:TypeConverter.obj
 0001:00044270       ??$toString@VPerspectiveView@@@TypeConverter@@YAPBDXZ 10045270 f   PlugInUtilities:TypeConverter.obj
 0001:00044280       ??$toString@V?$vector@PAVPerspectiveView@@V?$allocator@PAVPerspectiveView@@@std@@@std@@@TypeConverter@@YAPBDXZ 10045280 f   PlugInUtilities:TypeConverter.obj
 0001:00044290       ??$toString@V?$vector@VPerspectiveView@@V?$allocator@VPerspectiveView@@@std@@@std@@@TypeConverter@@YAPBDXZ 10045290 f   PlugInUtilities:TypeConverter.obj
 0001:000442a0       ??$toString@PAVPerspectiveView@@@TypeConverter@@YAPBDXZ 100452a0 f   PlugInUtilities:TypeConverter.obj
 0001:000442b0       ??$toString@V?$Location@H$01@Opticks@@@TypeConverter@@YAPBDXZ 100452b0 f   PlugInUtilities:TypeConverter.obj
 0001:000442c0       ??$toString@V?$vector@PAV?$Location@H$01@Opticks@@V?$allocator@PAV?$Location@H$01@Opticks@@@std@@@std@@@TypeConverter@@YAPBDXZ 100452c0 f   PlugInUtilities:TypeConverter.obj
 0001:000442d0       ??$toString@V?$vector@V?$Location@H$01@Opticks@@V?$allocator@V?$Location@H$01@Opticks@@@std@@@std@@@TypeConverter@@YAPBDXZ 100452d0 f   PlugInUtilities:TypeConverter.obj
 0001:000442e0       ??$toString@VPlotView@@@TypeConverter@@YAPBDXZ 100452e0 f   PlugInUtilities:TypeConverter.obj
 0001:000442f0       ??$toString@V?$vector@PAVPlotView@@V?$allocator@PAVPlotView@@@std@@@std@@@TypeConverter@@YAPBDXZ 100452f0 f   PlugInUtilities:TypeConverter.obj
 0001:00044300       ??$toString@V?$vector@VPlotView@@V?$allocator@VPlotView@@@std@@@std@@@TypeConverter@@YAPBDXZ 10045300 f   PlugInUtilities:TypeConverter.obj
 0001:00044310       ??$toString@PAVPlotView@@@TypeConverter@@YAPBDXZ 10045310 f   PlugInUtilities:TypeConverter.obj
 0001:00044320       ??$toString@VPlotWidget@@@TypeConverter@@YAPBDXZ 10045320 f   PlugInUtilities:TypeConverter.obj
 0001:00044330       ??$toString@V?$vector@PAVPlotWidget@@V?$allocator@PAVPlotWidget@@@std@@@std@@@TypeConverter@@YAPBDXZ 10045330 f   PlugInUtilities:TypeConverter.obj
 0001:00044340       ??$toString@V?$vector@VPlotWidget@@V?$allocator@VPlotWidget@@@std@@@std@@@TypeConverter@@YAPBDXZ 10045340 f   PlugInUtilities:TypeConverter.obj
 0001:00044350       ??$toString@PAVPlotWidget@@@TypeConverter@@YAPBDXZ 10045350 f   PlugInUtilities:TypeConverter.obj
 0001:00044360       ??$toString@VPolarPlot@@@TypeConverter@@YAPBDXZ 10045360 f   PlugInUtilities:TypeConverter.obj
 0001:00044370       ??$toString@V?$vector@PAVPolarPlot@@V?$allocator@PAVPolarPlot@@@std@@@std@@@TypeConverter@@YAPBDXZ 10045370 f   PlugInUtilities:TypeConverter.obj
 0001:00044380       ??$toString@V?$vector@VPolarPlot@@V?$allocator@VPolarPlot@@@std@@@std@@@TypeConverter@@YAPBDXZ 10045380 f   PlugInUtilities:TypeConverter.obj
 0001:00044390       ??$toString@PAVPolarPlot@@@TypeConverter@@YAPBDXZ 10045390 f   PlugInUtilities:TypeConverter.obj
 0001:000443a0       ??$toString@VProductView@@@TypeConverter@@YAPBDXZ 100453a0 f   PlugInUtilities:TypeConverter.obj
 0001:000443b0       ??$toString@V?$vector@PAVProductView@@V?$allocator@PAVProductView@@@std@@@std@@@TypeConverter@@YAPBDXZ 100453b0 f   PlugInUtilities:TypeConverter.obj
 0001:000443c0       ??$toString@V?$vector@VProductView@@V?$allocator@VProductView@@@std@@@std@@@TypeConverter@@YAPBDXZ 100453c0 f   PlugInUtilities:TypeConverter.obj
 0001:000443d0       ??$toString@PAVProductView@@@TypeConverter@@YAPBDXZ 100453d0 f   PlugInUtilities:TypeConverter.obj
 0001:000443e0       ??$toString@VProductWindow@@@TypeConverter@@YAPBDXZ 100453e0 f   PlugInUtilities:TypeConverter.obj
 0001:000443f0       ??$toString@V?$vector@PAVProductWindow@@V?$allocator@PAVProductWindow@@@std@@@std@@@TypeConverter@@YAPBDXZ 100453f0 f   PlugInUtilities:TypeConverter.obj
 0001:00044400       ??$toString@V?$vector@VProductWindow@@V?$allocator@VProductWindow@@@std@@@std@@@TypeConverter@@YAPBDXZ 10045400 f   PlugInUtilities:TypeConverter.obj
 0001:00044410       ??$toString@PAVProductWindow@@@TypeConverter@@YAPBDXZ 10045410 f   PlugInUtilities:TypeConverter.obj
 0001:00044420       ??$toString@VProgress@@@TypeConverter@@YAPBDXZ 10045420 f   PlugInUtilities:TypeConverter.obj
 0001:00044430       ??$toString@V?$vector@PAVProgress@@V?$allocator@PAVProgress@@@std@@@std@@@TypeConverter@@YAPBDXZ 10045430 f   PlugInUtilities:TypeConverter.obj
 0001:00044440       ??$toString@V?$vector@VProgress@@V?$allocator@VProgress@@@std@@@std@@@TypeConverter@@YAPBDXZ 10045440 f   PlugInUtilities:TypeConverter.obj
 0001:00044450       ??$toString@PAVProgress@@@TypeConverter@@YAPBDXZ 10045450 f   PlugInUtilities:TypeConverter.obj
 0001:00044460       ??$toString@VPseudocolorLayer@@@TypeConverter@@YAPBDXZ 10045460 f   PlugInUtilities:TypeConverter.obj
 0001:00044470       ??$toString@V?$vector@PAVPseudocolorLayer@@V?$allocator@PAVPseudocolorLayer@@@std@@@std@@@TypeConverter@@YAPBDXZ 10045470 f   PlugInUtilities:TypeConverter.obj
 0001:00044480       ??$toString@V?$vector@VPseudocolorLayer@@V?$allocator@VPseudocolorLayer@@@std@@@std@@@TypeConverter@@YAPBDXZ 10045480 f   PlugInUtilities:TypeConverter.obj
 0001:00044490       ??$toString@PAVPseudocolorLayer@@@TypeConverter@@YAPBDXZ 10045490 f   PlugInUtilities:TypeConverter.obj
 0001:000444a0       ??$toString@VRasterDataDescriptor@@@TypeConverter@@YAPBDXZ 100454a0 f   PlugInUtilities:TypeConverter.obj
 0001:000444b0       ??$toString@V?$vector@PAVRasterDataDescriptor@@V?$allocator@PAVRasterDataDescriptor@@@std@@@std@@@TypeConverter@@YAPBDXZ 100454b0 f   PlugInUtilities:TypeConverter.obj
 0001:000444c0       ??$toString@V?$vector@VRasterDataDescriptor@@V?$allocator@VRasterDataDescriptor@@@std@@@std@@@TypeConverter@@YAPBDXZ 100454c0 f   PlugInUtilities:TypeConverter.obj
 0001:000444d0       ??$toString@PAVRasterDataDescriptor@@@TypeConverter@@YAPBDXZ 100454d0 f   PlugInUtilities:TypeConverter.obj
 0001:000444e0       ??$toString@VRasterElement@@@TypeConverter@@YAPBDXZ 100454e0 f   PlugInUtilities:TypeConverter.obj
 0001:000444f0       ??$toString@V?$vector@PAVRasterElement@@V?$allocator@PAVRasterElement@@@std@@@std@@@TypeConverter@@YAPBDXZ 100454f0 f   PlugInUtilities:TypeConverter.obj
 0001:00044500       ??$toString@V?$vector@VRasterElement@@V?$allocator@VRasterElement@@@std@@@std@@@TypeConverter@@YAPBDXZ 10045500 f   PlugInUtilities:TypeConverter.obj
 0001:00044510       ??$toString@PAVRasterElement@@@TypeConverter@@YAPBDXZ 10045510 f   PlugInUtilities:TypeConverter.obj
 0001:00044520       ??$toString@VRasterFileDescriptor@@@TypeConverter@@YAPBDXZ 10045520 f   PlugInUtilities:TypeConverter.obj
 0001:00044530       ??$toString@V?$vector@PAVRasterFileDescriptor@@V?$allocator@PAVRasterFileDescriptor@@@std@@@std@@@TypeConverter@@YAPBDXZ 10045530 f   PlugInUtilities:TypeConverter.obj
 0001:00044540       ??$toString@V?$vector@VRasterFileDescriptor@@V?$allocator@VRasterFileDescriptor@@@std@@@std@@@TypeConverter@@YAPBDXZ 10045540 f   PlugInUtilities:TypeConverter.obj
 0001:00044550       ??$toString@PAVRasterFileDescriptor@@@TypeConverter@@YAPBDXZ 10045550 f   PlugInUtilities:TypeConverter.obj
 0001:00044560       ??$toString@VRasterLayer@@@TypeConverter@@YAPBDXZ 10045560 f   PlugInUtilities:TypeConverter.obj
 0001:00044570       ??$toString@V?$vector@PAVRasterLayer@@V?$allocator@PAVRasterLayer@@@std@@@std@@@TypeConverter@@YAPBDXZ 10045570 f   PlugInUtilities:TypeConverter.obj
 0001:00044580       ??$toString@V?$vector@VRasterLayer@@V?$allocator@VRasterLayer@@@std@@@std@@@TypeConverter@@YAPBDXZ 10045580 f   PlugInUtilities:TypeConverter.obj
 0001:00044590       ??$toString@PAVRasterLayer@@@TypeConverter@@YAPBDXZ 10045590 f   PlugInUtilities:TypeConverter.obj
 0001:000445a0       ??$toString@VSessionItem@@@TypeConverter@@YAPBDXZ 100455a0 f   PlugInUtilities:TypeConverter.obj
 0001:000445b0       ??$toString@V?$vector@PAVSessionItem@@V?$allocator@PAVSessionItem@@@std@@@std@@@TypeConverter@@YAPBDXZ 100455b0 f   PlugInUtilities:TypeConverter.obj
 0001:000445c0       ??$toString@V?$vector@VSessionItem@@V?$allocator@VSessionItem@@@std@@@std@@@TypeConverter@@YAPBDXZ 100455c0 f   PlugInUtilities:TypeConverter.obj
 0001:000445d0       ??$toString@PAVSessionItem@@@TypeConverter@@YAPBDXZ 100455d0 f   PlugInUtilities:TypeConverter.obj
 0001:000445e0       ??$toString@VSettableSessionItem@@@TypeConverter@@YAPBDXZ 100455e0 f   PlugInUtilities:TypeConverter.obj
 0001:000445f0       ??$toString@V?$vector@PAVSettableSessionItem@@V?$allocator@PAVSettableSessionItem@@@std@@@std@@@TypeConverter@@YAPBDXZ 100455f0 f   PlugInUtilities:TypeConverter.obj
 0001:00044600       ??$toString@V?$vector@VSettableSessionItem@@V?$allocator@VSettableSessionItem@@@std@@@std@@@TypeConverter@@YAPBDXZ 10045600 f   PlugInUtilities:TypeConverter.obj
 0001:00044610       ??$toString@PAVSettableSessionItem@@@TypeConverter@@YAPBDXZ 10045610 f   PlugInUtilities:TypeConverter.obj
 0001:00044620       ??$toString@VSignature@@@TypeConverter@@YAPBDXZ 10045620 f   PlugInUtilities:TypeConverter.obj
 0001:00044630       ??$toString@V?$vector@PAVSignature@@V?$allocator@PAVSignature@@@std@@@std@@@TypeConverter@@YAPBDXZ 10045630 f   PlugInUtilities:TypeConverter.obj
 0001:00044640       ??$toString@V?$vector@VSignature@@V?$allocator@VSignature@@@std@@@std@@@TypeConverter@@YAPBDXZ 10045640 f   PlugInUtilities:TypeConverter.obj
 0001:00044650       ??$toString@PAVSignature@@@TypeConverter@@YAPBDXZ 10045650 f   PlugInUtilities:TypeConverter.obj
 0001:00044660       ??$toString@VSignatureDataDescriptor@@@TypeConverter@@YAPBDXZ 10045660 f   PlugInUtilities:TypeConverter.obj
 0001:00044670       ??$toString@V?$vector@PAVSignatureDataDescriptor@@V?$allocator@PAVSignatureDataDescriptor@@@std@@@std@@@TypeConverter@@YAPBDXZ 10045670 f   PlugInUtilities:TypeConverter.obj
 0001:00044680       ??$toString@V?$vector@VSignatureDataDescriptor@@V?$allocator@VSignatureDataDescriptor@@@std@@@std@@@TypeConverter@@YAPBDXZ 10045680 f   PlugInUtilities:TypeConverter.obj
 0001:00044690       ??$toString@PAVSignatureDataDescriptor@@@TypeConverter@@YAPBDXZ 10045690 f   PlugInUtilities:TypeConverter.obj
 0001:000446a0       ??$toString@VSignatureFileDescriptor@@@TypeConverter@@YAPBDXZ 100456a0 f   PlugInUtilities:TypeConverter.obj
 0001:000446b0       ??$toString@V?$vector@PAVSignatureFileDescriptor@@V?$allocator@PAVSignatureFileDescriptor@@@std@@@std@@@TypeConverter@@YAPBDXZ 100456b0 f   PlugInUtilities:TypeConverter.obj
 0001:000446c0       ??$toString@V?$vector@VSignatureFileDescriptor@@V?$allocator@VSignatureFileDescriptor@@@std@@@std@@@TypeConverter@@YAPBDXZ 100456c0 f   PlugInUtilities:TypeConverter.obj
 0001:000446d0       ??$toString@PAVSignatureFileDescriptor@@@TypeConverter@@YAPBDXZ 100456d0 f   PlugInUtilities:TypeConverter.obj
 0001:000446e0       ??$toString@VSignatureLibrary@@@TypeConverter@@YAPBDXZ 100456e0 f   PlugInUtilities:TypeConverter.obj
 0001:000446f0       ??$toString@V?$vector@PAVSignatureLibrary@@V?$allocator@PAVSignatureLibrary@@@std@@@std@@@TypeConverter@@YAPBDXZ 100456f0 f   PlugInUtilities:TypeConverter.obj
 0001:00044700       ??$toString@V?$vector@VSignatureLibrary@@V?$allocator@VSignatureLibrary@@@std@@@std@@@TypeConverter@@YAPBDXZ 10045700 f   PlugInUtilities:TypeConverter.obj
 0001:00044710       ??$toString@PAVSignatureLibrary@@@TypeConverter@@YAPBDXZ 10045710 f   PlugInUtilities:TypeConverter.obj
 0001:00044720       ??$toString@VSignaturePlot@@@TypeConverter@@YAPBDXZ 10045720 f   PlugInUtilities:TypeConverter.obj
 0001:00044730       ??$toString@V?$vector@PAVSignaturePlot@@V?$allocator@PAVSignaturePlot@@@std@@@std@@@TypeConverter@@YAPBDXZ 10045730 f   PlugInUtilities:TypeConverter.obj
 0001:00044740       ??$toString@V?$vector@VSignaturePlot@@V?$allocator@VSignaturePlot@@@std@@@std@@@TypeConverter@@YAPBDXZ 10045740 f   PlugInUtilities:TypeConverter.obj
 0001:00044750       ??$toString@PAVSignaturePlot@@@TypeConverter@@YAPBDXZ 10045750 f   PlugInUtilities:TypeConverter.obj
 0001:00044760       ??$toString@VSignatureSet@@@TypeConverter@@YAPBDXZ 10045760 f   PlugInUtilities:TypeConverter.obj
 0001:00044770       ??$toString@V?$vector@PAVSignatureSet@@V?$allocator@PAVSignatureSet@@@std@@@std@@@TypeConverter@@YAPBDXZ 10045770 f   PlugInUtilities:TypeConverter.obj
 0001:00044780       ??$toString@V?$vector@VSignatureSet@@V?$allocator@VSignatureSet@@@std@@@std@@@TypeConverter@@YAPBDXZ 10045780 f   PlugInUtilities:TypeConverter.obj
 0001:00044790       ??$toString@PAVSignatureSet@@@TypeConverter@@YAPBDXZ 10045790 f   PlugInUtilities:TypeConverter.obj
 0001:000447a0       ??$toString@VSpatialDataView@@@TypeConverter@@YAPBDXZ 100457a0 f   PlugInUtilities:TypeConverter.obj
 0001:000447b0       ??$toString@V?$vector@PAVSpatialDataView@@V?$allocator@PAVSpatialDataView@@@std@@@std@@@TypeConverter@@YAPBDXZ 100457b0 f   PlugInUtilities:TypeConverter.obj
 0001:000447c0       ??$toString@V?$vector@VSpatialDataView@@V?$allocator@VSpatialDataView@@@std@@@std@@@TypeConverter@@YAPBDXZ 100457c0 f   PlugInUtilities:TypeConverter.obj
 0001:000447d0       ??$toString@PAVSpatialDataView@@@TypeConverter@@YAPBDXZ 100457d0 f   PlugInUtilities:TypeConverter.obj
 0001:000447e0       ??$toString@VSpatialDataWindow@@@TypeConverter@@YAPBDXZ 100457e0 f   PlugInUtilities:TypeConverter.obj
 0001:000447f0       ??$toString@V?$vector@PAVSpatialDataWindow@@V?$allocator@PAVSpatialDataWindow@@@std@@@std@@@TypeConverter@@YAPBDXZ 100457f0 f   PlugInUtilities:TypeConverter.obj
 0001:00044800       ??$toString@V?$vector@VSpatialDataWindow@@V?$allocator@VSpatialDataWindow@@@std@@@std@@@TypeConverter@@YAPBDXZ 10045800 f   PlugInUtilities:TypeConverter.obj
 0001:00044810       ??$toString@PAVSpatialDataWindow@@@TypeConverter@@YAPBDXZ 10045810 f   PlugInUtilities:TypeConverter.obj
 0001:00044820       ??$toString@VThresholdLayer@@@TypeConverter@@YAPBDXZ 10045820 f   PlugInUtilities:TypeConverter.obj
 0001:00044830       ??$toString@V?$vector@PAVThresholdLayer@@V?$allocator@PAVThresholdLayer@@@std@@@std@@@TypeConverter@@YAPBDXZ 10045830 f   PlugInUtilities:TypeConverter.obj
 0001:00044840       ??$toString@V?$vector@VThresholdLayer@@V?$allocator@VThresholdLayer@@@std@@@std@@@TypeConverter@@YAPBDXZ 10045840 f   PlugInUtilities:TypeConverter.obj
 0001:00044850       ??$toString@PAVThresholdLayer@@@TypeConverter@@YAPBDXZ 10045850 f   PlugInUtilities:TypeConverter.obj
 0001:00044860       ??$toString@VTiePointLayer@@@TypeConverter@@YAPBDXZ 10045860 f   PlugInUtilities:TypeConverter.obj
 0001:00044870       ??$toString@V?$vector@PAVTiePointLayer@@V?$allocator@PAVTiePointLayer@@@std@@@std@@@TypeConverter@@YAPBDXZ 10045870 f   PlugInUtilities:TypeConverter.obj
 0001:00044880       ??$toString@V?$vector@VTiePointLayer@@V?$allocator@VTiePointLayer@@@std@@@std@@@TypeConverter@@YAPBDXZ 10045880 f   PlugInUtilities:TypeConverter.obj
 0001:00044890       ??$toString@PAVTiePointLayer@@@TypeConverter@@YAPBDXZ 10045890 f   PlugInUtilities:TypeConverter.obj
 0001:000448a0       ??$toString@VTiePointList@@@TypeConverter@@YAPBDXZ 100458a0 f   PlugInUtilities:TypeConverter.obj
 0001:000448b0       ??$toString@V?$vector@PAVTiePointList@@V?$allocator@PAVTiePointList@@@std@@@std@@@TypeConverter@@YAPBDXZ 100458b0 f   PlugInUtilities:TypeConverter.obj
 0001:000448c0       ??$toString@V?$vector@VTiePointList@@V?$allocator@VTiePointList@@@std@@@std@@@TypeConverter@@YAPBDXZ 100458c0 f   PlugInUtilities:TypeConverter.obj
 0001:000448d0       ??$toString@PAVTiePointList@@@TypeConverter@@YAPBDXZ 100458d0 f   PlugInUtilities:TypeConverter.obj
 0001:000448e0       ??$toString@VUInt64@@@TypeConverter@@YAPBDXZ 100458e0 f   PlugInUtilities:TypeConverter.obj
 0001:000448f0       ??$toString@V?$vector@PAVUInt64@@V?$allocator@PAVUInt64@@@std@@@std@@@TypeConverter@@YAPBDXZ 100458f0 f   PlugInUtilities:TypeConverter.obj
 0001:00044900       ??$toString@V?$vector@VUInt64@@V?$allocator@VUInt64@@@std@@@std@@@TypeConverter@@YAPBDXZ 10045900 f   PlugInUtilities:TypeConverter.obj
 0001:00044910       ??$toString@VUnits@@@TypeConverter@@YAPBDXZ 10045910 f   PlugInUtilities:TypeConverter.obj
 0001:00044920       ??$toString@V?$vector@PAVUnits@@V?$allocator@PAVUnits@@@std@@@std@@@TypeConverter@@YAPBDXZ 10045920 f   PlugInUtilities:TypeConverter.obj
 0001:00044930       ??$toString@V?$vector@VUnits@@V?$allocator@VUnits@@@std@@@std@@@TypeConverter@@YAPBDXZ 10045930 f   PlugInUtilities:TypeConverter.obj
 0001:00044940       ??$toString@PAVUnits@@@TypeConverter@@YAPBDXZ 10045940 f   PlugInUtilities:TypeConverter.obj
 0001:00044950       ??$toString@VView@@@TypeConverter@@YAPBDXZ 10045950 f   PlugInUtilities:TypeConverter.obj
 0001:00044960       ??$toString@V?$vector@PAVView@@V?$allocator@PAVView@@@std@@@std@@@TypeConverter@@YAPBDXZ 10045960 f   PlugInUtilities:TypeConverter.obj
 0001:00044970       ??$toString@V?$vector@VView@@V?$allocator@VView@@@std@@@std@@@TypeConverter@@YAPBDXZ 10045970 f   PlugInUtilities:TypeConverter.obj
 0001:00044980       ??$toString@PAVView@@@TypeConverter@@YAPBDXZ 10045980 f   PlugInUtilities:TypeConverter.obj
 0001:00044990       ??$toString@VWavelengths@@@TypeConverter@@YAPBDXZ 10045990 f   PlugInUtilities:TypeConverter.obj
 0001:000449a0       ??$toString@V?$vector@PAVWavelengths@@V?$allocator@PAVWavelengths@@@std@@@std@@@TypeConverter@@YAPBDXZ 100459a0 f   PlugInUtilities:TypeConverter.obj
 0001:000449b0       ??$toString@V?$vector@VWavelengths@@V?$allocator@VWavelengths@@@std@@@std@@@TypeConverter@@YAPBDXZ 100459b0 f   PlugInUtilities:TypeConverter.obj
 0001:000449c0       ??$toString@PAVWavelengths@@@TypeConverter@@YAPBDXZ 100459c0 f   PlugInUtilities:TypeConverter.obj
 0001:000449d0       ??$toString@VWindow@@@TypeConverter@@YAPBDXZ 100459d0 f   PlugInUtilities:TypeConverter.obj
 0001:000449e0       ??$toString@V?$vector@PAVWindow@@V?$allocator@PAVWindow@@@std@@@std@@@TypeConverter@@YAPBDXZ 100459e0 f   PlugInUtilities:TypeConverter.obj
 0001:000449f0       ??$toString@V?$vector@VWindow@@V?$allocator@VWindow@@@std@@@std@@@TypeConverter@@YAPBDXZ 100459f0 f   PlugInUtilities:TypeConverter.obj
 0001:00044a00       ??$toString@PAVWindow@@@TypeConverter@@YAPBDXZ 10045a00 f   PlugInUtilities:TypeConverter.obj
 0001:00044a10       ??$toString@VWizardObject@@@TypeConverter@@YAPBDXZ 10045a10 f   PlugInUtilities:TypeConverter.obj
 0001:00044a20       ??$toString@V?$vector@PAVWizardObject@@V?$allocator@PAVWizardObject@@@std@@@std@@@TypeConverter@@YAPBDXZ 10045a20 f   PlugInUtilities:TypeConverter.obj
 0001:00044a30       ??$toString@V?$vector@VWizardObject@@V?$allocator@VWizardObject@@@std@@@std@@@TypeConverter@@YAPBDXZ 10045a30 f   PlugInUtilities:TypeConverter.obj
 0001:00044a40       ??$toString@PAVWizardObject@@@TypeConverter@@YAPBDXZ 10045a40 f   PlugInUtilities:TypeConverter.obj
 0001:00044a50       ??$toString@VWorkspaceWindow@@@TypeConverter@@YAPBDXZ 10045a50 f   PlugInUtilities:TypeConverter.obj
 0001:00044a60       ??$toString@V?$vector@PAVWorkspaceWindow@@V?$allocator@PAVWorkspaceWindow@@@std@@@std@@@TypeConverter@@YAPBDXZ 10045a60 f   PlugInUtilities:TypeConverter.obj
 0001:00044a70       ??$toString@V?$vector@VWorkspaceWindow@@V?$allocator@VWorkspaceWindow@@@std@@@std@@@TypeConverter@@YAPBDXZ 10045a70 f   PlugInUtilities:TypeConverter.obj
 0001:00044a80       ??$toString@PAVWorkspaceWindow@@@TypeConverter@@YAPBDXZ 10045a80 f   PlugInUtilities:TypeConverter.obj
 0001:00044a86       ?_Xout_of_range@std@@YAXPBD@Z 10045a86 f   msvcprt:MSVCP100.dll
 0001:00044a8c       ?_Xlength_error@std@@YAXPBD@Z 10045a8c f   msvcprt:MSVCP100.dll
 0001:00044a92       ?flush@?$basic_ostream@DU?$char_traits@D@std@@@std@@QAEAAV12@XZ 10045a92 f   msvcprt:MSVCP100.dll
 0001:00044a98       ?_Osfx@?$basic_ostream@DU?$char_traits@D@std@@@std@@QAEXXZ 10045a98 f   msvcprt:MSVCP100.dll
 0001:00044a9e       ?uncaught_exception@std@@YA_NXZ 10045a9e f   msvcprt:MSVCP100.dll
 0001:00044aa4       ?setstate@?$basic_ios@DU?$char_traits@D@std@@@std@@QAEXH_N@Z 10045aa4 f   msvcprt:MSVCP100.dll
 0001:00044aaa       ?sputn@?$basic_streambuf@DU?$char_traits@D@std@@@std@@QAE_JPBD_J@Z 10045aaa f   msvcprt:MSVCP100.dll
 0001:00044ab0       ?sputc@?$basic_streambuf@DU?$char_traits@D@std@@@std@@QAEHD@Z 10045ab0 f   msvcprt:MSVCP100.dll
 0001:00044ab6       ??6?$basic_ostream@DU?$char_traits@D@std@@@std@@QAEAAV01@P6AAAV01@AAV01@@Z@Z 10045ab6 f   msvcprt:MSVCP100.dll
 0001:00044abc       ?endl@std@@YAAAV?$basic_ostream@DU?$char_traits@D@std@@@1@AAV21@@Z 10045abc f   msvcprt:MSVCP100.dll
 0001:00044ac2       ??1_Container_base12@std@@QAE@XZ 10045ac2 f   msvcprt:MSVCP100.dll
 0001:00044ac8       ??6?$basic_ostream@DU?$char_traits@D@std@@@std@@QAEAAV01@H@Z 10045ac8 f   msvcprt:MSVCP100.dll
 0001:00044ace       ??_U@YAPAXI@Z              10045ace f   msvcprt:newaop_s.obj
 0001:00044ada       ?_Swap_all@_Container_base0@std@@QAEXAAU12@@Z 10045ada f   msvcprt:MSVCP100.dll
 0001:00044ae0       ?_Orphan_all@_Container_base0@std@@QAEXXZ 10045ae0 f   msvcprt:MSVCP100.dll
 0001:00044ae6       ??6?$basic_ostream@DU?$char_traits@D@std@@@std@@QAEAAV01@M@Z 10045ae6 f   msvcprt:MSVCP100.dll
 0001:00044aec       ??6?$basic_ostream@DU?$char_traits@D@std@@@std@@QAEAAV01@_N@Z 10045aec f   msvcprt:MSVCP100.dll
 0001:00044af2       ??1?$basic_streambuf@DU?$char_traits@D@std@@@std@@UAE@XZ 10045af2 f   msvcprt:MSVCP100.dll
 0001:00044af8       ?_Lock@?$basic_streambuf@DU?$char_traits@D@std@@@std@@UAEXXZ 10045af8 f   msvcprt:MSVCP100.dll
 0001:00044afe       ?_Unlock@?$basic_streambuf@DU?$char_traits@D@std@@@std@@UAEXXZ 10045afe f   msvcprt:MSVCP100.dll
 0001:00044b04       ?showmanyc@?$basic_streambuf@DU?$char_traits@D@std@@@std@@MAE_JXZ 10045b04 f   msvcprt:MSVCP100.dll
 0001:00044b0a       ?uflow@?$basic_streambuf@DU?$char_traits@D@std@@@std@@MAEHXZ 10045b0a f   msvcprt:MSVCP100.dll
 0001:00044b10       ?xsgetn@?$basic_streambuf@DU?$char_traits@D@std@@@std@@MAE_JPAD_J@Z 10045b10 f   msvcprt:MSVCP100.dll
 0001:00044b16       ?xsputn@?$basic_streambuf@DU?$char_traits@D@std@@@std@@MAE_JPBD_J@Z 10045b16 f   msvcprt:MSVCP100.dll
 0001:00044b1c       ?setbuf@?$basic_streambuf@DU?$char_traits@D@std@@@std@@MAEPAV12@PAD_J@Z 10045b1c f   msvcprt:MSVCP100.dll
 0001:00044b22       ?sync@?$basic_streambuf@DU?$char_traits@D@std@@@std@@MAEHXZ 10045b22 f   msvcprt:MSVCP100.dll
 0001:00044b28       ?imbue@?$basic_streambuf@DU?$char_traits@D@std@@@std@@MAEXABVlocale@2@@Z 10045b28 f   msvcprt:MSVCP100.dll
 0001:00044b2e       ??1?$basic_iostream@DU?$char_traits@D@std@@@std@@UAE@XZ 10045b2e f   msvcprt:MSVCP100.dll
 0001:00044b34       ?_Pninc@?$basic_streambuf@DU?$char_traits@D@std@@@std@@IAEPADXZ 10045b34 f   msvcprt:MSVCP100.dll
 0001:00044b3a       ??0?$basic_streambuf@DU?$char_traits@D@std@@@std@@IAE@XZ 10045b3a f   msvcprt:MSVCP100.dll
 0001:00044b40       ?_Ios_base_dtor@ios_base@std@@CAXPAV12@@Z 10045b40 f   msvcprt:MSVCP100.dll
 0001:00044b46       ??1?$basic_ios@DU?$char_traits@D@std@@@std@@UAE@XZ 10045b46 f   msvcprt:MSVCP100.dll
 0001:00044b4c       ??0?$basic_iostream@DU?$char_traits@D@std@@@std@@QAE@PAV?$basic_streambuf@DU?$char_traits@D@std@@@1@@Z 10045b4c f   msvcprt:MSVCP100.dll
 0001:00044b52       ??6?$basic_ostream@DU?$char_traits@D@std@@@std@@QAEAAV01@I@Z 10045b52 f   msvcprt:MSVCP100.dll
 0001:00044b58       ??0?$basic_ios@DU?$char_traits@D@std@@@std@@IAE@XZ 10045b58 f   msvcprt:MSVCP100.dll
 0001:00044b5e       ??0exception@std@@QAE@ABQBD@Z 10045b5e f   MSVCRT:MSVCR100.dll
 0001:00044b64       ??0type_info@@AAE@ABV0@@Z  10045b64 f   MSVCRT:ti_inst.obj
 0001:00044b6f       ??_Etype_info@@UAEPAXI@Z   10045b6f f i MSVCRT:ti_inst.obj
 0001:00044bbb       ??4type_info@@AAEAAV0@ABV0@@Z 10045bbb f   MSVCRT:ti_inst.obj
 0001:00044bc0       ?what@exception@std@@UBEPBDXZ 10045bc0 f   MSVCRT:MSVCR100.dll
 0001:00044bc6       ??1exception@std@@UAE@XZ   10045bc6 f   MSVCRT:MSVCR100.dll
 0001:00044bcc       ??3@YAXPAX@Z               10045bcc f   MSVCRT:MSVCR100.dll
 0001:00044bd2       _memcpy                    10045bd2 f   MSVCRT:MSVCR100.dll
 0001:00044bd8       _memmove                   10045bd8 f   MSVCRT:MSVCR100.dll
 0001:00044bde       ___CxxFrameHandler3        10045bde f   MSVCRT:MSVCR100.dll
 0001:00044bf0       ??2@YAPAXI@Z               10045bf0 f   MSVCRT:MSVCR100.dll
 0001:00044bf6       __CxxThrowException@8      10045bf6 f   MSVCRT:MSVCR100.dll
 0001:00044bfc       ??0exception@std@@QAE@ABV01@@Z 10045bfc f   MSVCRT:MSVCR100.dll
 0001:00044c02       _free                      10045c02 f   MSVCRT:MSVCR100.dll
 0001:00044c08       _malloc                    10045c08 f   MSVCRT:MSVCR100.dll
 0001:00044c0e       __purecall                 10045c0e f   MSVCRT:MSVCR100.dll
 0001:00044c14       __onexit                   10045c14 f   MSVCRT:atonexit.obj
 0001:00044cb5       _atexit                    10045cb5 f   MSVCRT:atonexit.obj
 0001:00044ccc       _floor                     10045ccc f   MSVCRT:MSVCR100.dll
 0001:00044cd2       __CIsqrt                   10045cd2 f   MSVCRT:MSVCR100.dll
 0001:00044cd8       _fread                     10045cd8 f   MSVCRT:MSVCR100.dll
 0001:00044cde       _exit                      10045cde f   MSVCRT:MSVCR100.dll
 0001:00044ce4       _fprintf                   10045ce4 f   MSVCRT:MSVCR100.dll
 0001:00044cea       ___iob_func                10045cea f   MSVCRT:MSVCR100.dll
 0001:00044cf0       _fwrite                    10045cf0 f   MSVCRT:MSVCR100.dll
 0001:00044cf6       _fclose                    10045cf6 f   MSVCRT:MSVCR100.dll
 0001:00044cfc       _ungetc                    10045cfc f   MSVCRT:MSVCR100.dll
 0001:00044d02       _fgets                     10045d02 f   MSVCRT:MSVCR100.dll
 0001:00044d08       _isspace                   10045d08 f   MSVCRT:MSVCR100.dll
 0001:00044d0e       _fgetc                     10045d0e f   MSVCRT:MSVCR100.dll
 0001:00044d14       _strncmp                   10045d14 f   MSVCRT:MSVCR100.dll
 0001:00044d1a       _fscanf                    10045d1a f   MSVCRT:MSVCR100.dll
 0001:00044d20       _printf                    10045d20 f   MSVCRT:MSVCR100.dll
 0001:00044d26       _fopen                     10045d26 f   MSVCRT:MSVCR100.dll
 0001:00044d2c       ??_V@YAXPAX@Z              10045d2c f   MSVCRT:MSVCR100.dll
 0001:00044d44       ?__ArrayUnwind@@YGXPAXIHP6EX0@Z@Z 10045d44 f   MSVCRT:ehvecdtr.obj
 0001:00044da2       ??_M@YGXPAXIHP6EX0@Z@Z     10045da2 f   MSVCRT:ehvecdtr.obj
 0001:00044e10       __ftol2_sse                10045e10 f   MSVCRT:ftol2.obj
 0001:00044e19       __ftol2_pentium4           10045e19 f   MSVCRT:ftol2.obj
 0001:00044e2c       __ftol2_sse_excpt          10045e2c f   MSVCRT:ftol2.obj
 0001:00044e46       __ftol2                    10045e46 f   MSVCRT:ftol2.obj
 0001:00044ebc       __CIatan2                  10045ebc f   MSVCRT:MSVCR100.dll
 0001:00044ec2       __CIpow                    10045ec2 f   MSVCRT:MSVCR100.dll
 0001:00044ec8       ??_L@YGXPAXIHP6EX0@Z1@Z    10045ec8 f   MSVCRT:ehvecctr.obj
 0001:00044f2e       __popen                    10045f2e f   MSVCRT:MSVCR100.dll
 0001:00044f34       _atof                      10045f34 f   MSVCRT:MSVCR100.dll
 0001:00044f3a       _memset                    10045f3a f   MSVCRT:MSVCR100.dll
 0001:00044f40       _atoi                      10045f40 f   MSVCRT:MSVCR100.dll
 0001:00044f46       _NtCurrentTeb              10045f46 f i MSVCRT:crtdll.obj
 0001:00044f9e       __CRT_INIT@12              10045f9e f   MSVCRT:crtdll.obj
 0001:000452be       __DllMainCRTStartup@12     100462be f   MSVCRT:crtdll.obj
 0001:000452e2       ___RTDynamicCast           100462e2 f   MSVCRT:MSVCR100.dll
 0001:000452e8       ??8type_info@@QBE_NABV0@@Z 100462e8 f   MSVCRT:MSVCR100.dll
 0001:000452ee       _getenv                    100462ee f   MSVCRT:MSVCR100.dll
 0001:000452f4       __unlock                   100462f4 f   MSVCRT:MSVCR100.dll
 0001:000452fa       ___dllonexit               100462fa f   MSVCRT:MSVCR100.dll
 0001:00045300       __lock                     10046300 f   MSVCRT:MSVCR100.dll
 0001:00045310       __SEH_prolog4              10046310 f   MSVCRT:sehprolg4.obj
 0001:00045355       __SEH_epilog4              10046355 f   MSVCRT:sehprolg4.obj
 0001:00045369       __except_handler4          10046369 f   MSVCRT:chandler4gs.obj
 0001:0004538e       ?terminate@@YAXXZ          1004638e f   MSVCRT:MSVCR100.dll
 0001:00045394       ___sse2_available_init     10046394 f   MSVCRT:cpu_disp.obj
 0001:000453a4       ___clean_type_info_names   100463a4 f   MSVCRT:tncleanup.obj
 0001:000453b0       __RTC_Initialize           100463b0 f   MSVCRT:_initsect_.obj
 0001:000453d6       __RTC_Terminate            100463d6 f   MSVCRT:_initsect_.obj
 0001:000453fc       __malloc_crt               100463fc f   MSVCRT:MSVCR100.dll
 0001:00045402       __encoded_null             10046402 f   MSVCRT:MSVCR100.dll
 0001:00045410       __ValidateImageBase        10046410 f   MSVCRT:pesect.obj
 0001:00045450       __FindPESection            10046450 f   MSVCRT:pesect.obj
 0001:000454a0       __IsNonwritableInCurrentImage 100464a0 f   MSVCRT:pesect.obj
 0001:0004555c       __initterm                 1004655c f   MSVCRT:MSVCR100.dll
 0001:00045562       __initterm_e               10046562 f   MSVCRT:MSVCR100.dll
 0001:00045568       __amsg_exit                10046568 f   MSVCRT:MSVCR100.dll
 0001:0004556e       ___CppXcptFilter           1004656e f   MSVCRT:MSVCR100.dll
 0001:00045574       _DllMain@12                10046574 f   MSVCRT:dllmain.obj
 0001:00045598       ___security_init_cookie    10046598 f   MSVCRT:gs_support.obj
 0001:00045634       ??1type_info@@UAE@XZ       10046634 f   MSVCRT:MSVCR100.dll
 0001:00045634       ?_type_info_dtor_internal_method@type_info@@QAEXXZ 10046634 f   MSVCRT:MSVCR100.dll
 0001:0004563a       @__security_check_cookie@4 1004663a f   MSVCRT:secchk.obj
 0001:0004564a       __except_handler4_common   1004664a f   MSVCRT:MSVCR100.dll
 0001:00045650       ___clean_type_info_names_internal 10046650 f   MSVCRT:MSVCR100.dll
 0001:00045656       ___report_gsfailure        10046656 f   MSVCRT:gs_report.obj
 0001:0004575c       __crt_debugger_hook        1004675c f   MSVCRT:MSVCR100.dll
 0001:00045762       ?hide@QWidget@@QAEXXZ      10046762 f   QtGui4:QtGui4.dll
 0001:00045768       _EncodePointer@4           10046768 f   kernel32:KERNEL32.dll
 0001:0004576e       _DecodePointer@4           1004676e f   kernel32:KERNEL32.dll
 0001:00045774       _InterlockedExchange@8     10046774 f   kernel32:KERNEL32.dll
 0001:0004577a       _Sleep@4                   1004677a f   kernel32:KERNEL32.dll
 0001:00045780       _InterlockedCompareExchange@12 10046780 f   kernel32:KERNEL32.dll
 0001:00045786       _IsProcessorFeaturePresent@4 10046786 f   kernel32:KERNEL32.dll
 0001:0004578c       _DisableThreadLibraryCalls@4 1004678c f   kernel32:KERNEL32.dll
 0001:00045792       _QueryPerformanceCounter@4 10046792 f   kernel32:KERNEL32.dll
 0001:00045798       _GetTickCount@0            10046798 f   kernel32:KERNEL32.dll
 0001:0004579e       _GetCurrentThreadId@0      1004679e f   kernel32:KERNEL32.dll
 0001:000457a4       _GetCurrentProcessId@0     100467a4 f   kernel32:KERNEL32.dll
 0001:000457aa       _GetSystemTimeAsFileTime@4 100467aa f   kernel32:KERNEL32.dll
 0001:000457b0       _TerminateProcess@8        100467b0 f   kernel32:KERNEL32.dll
 0001:000457b6       _GetCurrentProcess@0       100467b6 f   kernel32:KERNEL32.dll
 0001:000457bc       _UnhandledExceptionFilter@4 100467bc f   kernel32:KERNEL32.dll
 0001:000457c2       _SetUnhandledExceptionFilter@4 100467c2 f   kernel32:KERNEL32.dll
 0001:000457c8       _IsDebuggerPresent@0       100467c8 f   kernel32:KERNEL32.dll
 0001:0004b3a0       ??__FsignalName@?1??signalDeleted@Subject@@SAABV?$basic_string@DU?$char_traits@D@std@@V?$allocator@D@2@@std@@XZ@YAXXZ 1004c3a0 f i PlugInLib:ViewerShell.obj
 0001:0004b3d0       ??__FsignalName@?1??signalSessionClosed@ApplicationServices@@SAABV?$basic_string@DU?$char_traits@D@std@@V?$allocator@D@2@@std@@XZ@YAXXZ 1004c3d0 f i PlugInLib:ViewerShell.obj
 0002:00000000       __imp__SetUnhandledExceptionFilter@4 1004d000     kernel32:KERNEL32.dll
 0002:00000004       __imp__UnhandledExceptionFilter@4 1004d004     kernel32:KERNEL32.dll
 0002:00000008       __imp__GetCurrentProcess@0 1004d008     kernel32:KERNEL32.dll
 0002:0000000c       __imp__TerminateProcess@8  1004d00c     kernel32:KERNEL32.dll
 0002:00000010       __imp__GetSystemTimeAsFileTime@4 1004d010     kernel32:KERNEL32.dll
 0002:00000014       __imp__GetCurrentProcessId@0 1004d014     kernel32:KERNEL32.dll
 0002:00000018       __imp__GetCurrentThreadId@0 1004d018     kernel32:KERNEL32.dll
 0002:0000001c       __imp__GetTickCount@0      1004d01c     kernel32:KERNEL32.dll
 0002:00000020       __imp__QueryPerformanceCounter@4 1004d020     kernel32:KERNEL32.dll
 0002:00000024       __imp__DisableThreadLibraryCalls@4 1004d024     kernel32:KERNEL32.dll
 0002:00000028       __imp__IsProcessorFeaturePresent@4 1004d028     kernel32:KERNEL32.dll
 0002:0000002c       __imp__InterlockedCompareExchange@12 1004d02c     kernel32:KERNEL32.dll
 0002:00000030       __imp__Sleep@4             1004d030     kernel32:KERNEL32.dll
 0002:00000034       __imp__InterlockedExchange@8 1004d034     kernel32:KERNEL32.dll
 0002:00000038       __imp__DecodePointer@4     1004d038     kernel32:KERNEL32.dll
 0002:0000003c       __imp__EncodePointer@4     1004d03c     kernel32:KERNEL32.dll
 0002:00000040       __imp__IsDebuggerPresent@0 1004d040     kernel32:KERNEL32.dll
 0002:00000044       \177KERNEL32_NULL_THUNK_DATA 1004d044     kernel32:KERNEL32.dll
 0002:00000048       __imp_?_Lock@?$basic_streambuf@DU?$char_traits@D@std@@@std@@UAEXXZ 1004d048     msvcprt:MSVCP100.dll
 0002:0000004c       __imp_?_Unlock@?$basic_streambuf@DU?$char_traits@D@std@@@std@@UAEXXZ 1004d04c     msvcprt:MSVCP100.dll
 0002:00000050       __imp_?showmanyc@?$basic_streambuf@DU?$char_traits@D@std@@@std@@MAE_JXZ 1004d050     msvcprt:MSVCP100.dll
 0002:00000054       __imp_?uflow@?$basic_streambuf@DU?$char_traits@D@std@@@std@@MAEHXZ 1004d054     msvcprt:MSVCP100.dll
 0002:00000058       __imp_?xsgetn@?$basic_streambuf@DU?$char_traits@D@std@@@std@@MAE_JPAD_J@Z 1004d058     msvcprt:MSVCP100.dll
 0002:0000005c       __imp_?xsputn@?$basic_streambuf@DU?$char_traits@D@std@@@std@@MAE_JPBD_J@Z 1004d05c     msvcprt:MSVCP100.dll
 0002:00000060       __imp_?setbuf@?$basic_streambuf@DU?$char_traits@D@std@@@std@@MAEPAV12@PAD_J@Z 1004d060     msvcprt:MSVCP100.dll
 0002:00000064       __imp_?sync@?$basic_streambuf@DU?$char_traits@D@std@@@std@@MAEHXZ 1004d064     msvcprt:MSVCP100.dll
 0002:00000068       __imp_?imbue@?$basic_streambuf@DU?$char_traits@D@std@@@std@@MAEXABVlocale@2@@Z 1004d068     msvcprt:MSVCP100.dll
 0002:0000006c       __imp_?_BADOFF@std@@3_JB   1004d06c     msvcprt:MSVCP100.dll
 0002:00000070       __imp_??1?$basic_streambuf@DU?$char_traits@D@std@@@std@@UAE@XZ 1004d070     msvcprt:MSVCP100.dll
 0002:00000074       __imp_?_Pninc@?$basic_streambuf@DU?$char_traits@D@std@@@std@@IAEPADXZ 1004d074     msvcprt:MSVCP100.dll
 0002:00000078       __imp_??0?$basic_streambuf@DU?$char_traits@D@std@@@std@@IAE@XZ 1004d078     msvcprt:MSVCP100.dll
 0002:0000007c       __imp_?_Ios_base_dtor@ios_base@std@@CAXPAV12@@Z 1004d07c     msvcprt:MSVCP100.dll
 0002:00000080       __imp_??_7ios_base@std@@6B@ 1004d080     msvcprt:MSVCP100.dll
 0002:00000084       __imp_??_7?$basic_ios@DU?$char_traits@D@std@@@std@@6B@ 1004d084     msvcprt:MSVCP100.dll
 0002:00000088       __imp_??1?$basic_ios@DU?$char_traits@D@std@@@std@@UAE@XZ 1004d088     msvcprt:MSVCP100.dll
 0002:0000008c       __imp_??0?$basic_iostream@DU?$char_traits@D@std@@@std@@QAE@PAV?$basic_streambuf@DU?$char_traits@D@std@@@1@@Z 1004d08c     msvcprt:MSVCP100.dll
 0002:00000090       __imp_??6?$basic_ostream@DU?$char_traits@D@std@@@std@@QAEAAV01@I@Z 1004d090     msvcprt:MSVCP100.dll
 0002:00000094       __imp_??0?$basic_ios@DU?$char_traits@D@std@@@std@@IAE@XZ 1004d094     msvcprt:MSVCP100.dll
 0002:00000098       __imp_?_Xout_of_range@std@@YAXPBD@Z 1004d098     msvcprt:MSVCP100.dll
 0002:0000009c       __imp_??6?$basic_ostream@DU?$char_traits@D@std@@@std@@QAEAAV01@_N@Z 1004d09c     msvcprt:MSVCP100.dll
 0002:000000a0       __imp_??6?$basic_ostream@DU?$char_traits@D@std@@@std@@QAEAAV01@M@Z 1004d0a0     msvcprt:MSVCP100.dll
 0002:000000a4       __imp_?_Orphan_all@_Container_base0@std@@QAEXXZ 1004d0a4     msvcprt:MSVCP100.dll
 0002:000000a8       __imp_?_Swap_all@_Container_base0@std@@QAEXAAU12@@Z 1004d0a8     msvcprt:MSVCP100.dll
 0002:000000ac       __imp_??6?$basic_ostream@DU?$char_traits@D@std@@@std@@QAEAAV01@H@Z 1004d0ac     msvcprt:MSVCP100.dll
 0002:000000b0       __imp_??1_Container_base12@std@@QAE@XZ 1004d0b0     msvcprt:MSVCP100.dll
 0002:000000b4       __imp_?endl@std@@YAAAV?$basic_ostream@DU?$char_traits@D@std@@@1@AAV21@@Z 1004d0b4     msvcprt:MSVCP100.dll
 0002:000000b8       __imp_?cout@std@@3V?$basic_ostream@DU?$char_traits@D@std@@@1@A 1004d0b8     msvcprt:MSVCP100.dll
 0002:000000bc       __imp_??6?$basic_ostream@DU?$char_traits@D@std@@@std@@QAEAAV01@P6AAAV01@AAV01@@Z@Z 1004d0bc     msvcprt:MSVCP100.dll
 0002:000000c0       __imp_?sputc@?$basic_streambuf@DU?$char_traits@D@std@@@std@@QAEHD@Z 1004d0c0     msvcprt:MSVCP100.dll
 0002:000000c4       __imp_?sputn@?$basic_streambuf@DU?$char_traits@D@std@@@std@@QAE_JPBD_J@Z 1004d0c4     msvcprt:MSVCP100.dll
 0002:000000c8       __imp_?setstate@?$basic_ios@DU?$char_traits@D@std@@@std@@QAEXH_N@Z 1004d0c8     msvcprt:MSVCP100.dll
 0002:000000cc       __imp_?uncaught_exception@std@@YA_NXZ 1004d0cc     msvcprt:MSVCP100.dll
 0002:000000d0       __imp_?_Osfx@?$basic_ostream@DU?$char_traits@D@std@@@std@@QAEXXZ 1004d0d0     msvcprt:MSVCP100.dll
 0002:000000d4       __imp_?flush@?$basic_ostream@DU?$char_traits@D@std@@@std@@QAEAAV12@XZ 1004d0d4     msvcprt:MSVCP100.dll
 0002:000000d8       __imp_?_Xlength_error@std@@YAXPBD@Z 1004d0d8     msvcprt:MSVCP100.dll
 0002:000000dc       __imp_??1?$basic_iostream@DU?$char_traits@D@std@@@std@@UAE@XZ 1004d0dc     msvcprt:MSVCP100.dll
 0002:000000e0       \177MSVCP100_NULL_THUNK_DATA 1004d0e0     msvcprt:MSVCP100.dll
 0002:000000e4       __imp__fgetc               1004d0e4     MSVCRT:MSVCR100.dll
 0002:000000e8       __imp_??0exception@std@@QAE@ABQBD@Z 1004d0e8     MSVCRT:MSVCR100.dll
 0002:000000ec       __imp_?what@exception@std@@UBEPBDXZ 1004d0ec     MSVCRT:MSVCR100.dll
 0002:000000f0       __imp_??1exception@std@@UAE@XZ 1004d0f0     MSVCRT:MSVCR100.dll
 0002:000000f4       __imp_??3@YAXPAX@Z         1004d0f4     MSVCRT:MSVCR100.dll
 0002:000000f8       __imp__memcpy              1004d0f8     MSVCRT:MSVCR100.dll
 0002:000000fc       __imp__memmove             1004d0fc     MSVCRT:MSVCR100.dll
 0002:00000100       __imp____CxxFrameHandler3  1004d100     MSVCRT:MSVCR100.dll
 0002:00000104       __imp_??2@YAPAXI@Z         1004d104     MSVCRT:MSVCR100.dll
 0002:00000108       __imp___CxxThrowException@8 1004d108     MSVCRT:MSVCR100.dll
 0002:0000010c       __imp_??0exception@std@@QAE@ABV01@@Z 1004d10c     MSVCRT:MSVCR100.dll
 0002:00000110       __imp__free                1004d110     MSVCRT:MSVCR100.dll
 0002:00000114       __imp__malloc              1004d114     MSVCRT:MSVCR100.dll
 0002:00000118       __imp___purecall           1004d118     MSVCRT:MSVCR100.dll
 0002:0000011c       __imp__floor               1004d11c     MSVCRT:MSVCR100.dll
 0002:00000120       __imp___CIsqrt             1004d120     MSVCRT:MSVCR100.dll
 0002:00000124       __imp__fread               1004d124     MSVCRT:MSVCR100.dll
 0002:00000128       __imp__exit                1004d128     MSVCRT:MSVCR100.dll
 0002:0000012c       __imp__fprintf             1004d12c     MSVCRT:MSVCR100.dll
 0002:00000130       __imp____iob_func          1004d130     MSVCRT:MSVCR100.dll
 0002:00000134       __imp__fwrite              1004d134     MSVCRT:MSVCR100.dll
 0002:00000138       __imp__fclose              1004d138     MSVCRT:MSVCR100.dll
 0002:0000013c       __imp__ungetc              1004d13c     MSVCRT:MSVCR100.dll
 0002:00000140       __imp__fgets               1004d140     MSVCRT:MSVCR100.dll
 0002:00000144       __imp__isspace             1004d144     MSVCRT:MSVCR100.dll
 0002:00000148       __imp____clean_type_info_names_internal 1004d148     MSVCRT:MSVCR100.dll
 0002:0000014c       __imp__strncmp             1004d14c     MSVCRT:MSVCR100.dll
 0002:00000150       __imp__fscanf              1004d150     MSVCRT:MSVCR100.dll
 0002:00000154       __imp__printf              1004d154     MSVCRT:MSVCR100.dll
 0002:00000158       __imp__fopen               1004d158     MSVCRT:MSVCR100.dll
 0002:0000015c       __imp_??_V@YAXPAX@Z        1004d15c     MSVCRT:MSVCR100.dll
 0002:00000160       __imp___CIatan2            1004d160     MSVCRT:MSVCR100.dll
 0002:00000164       __imp___CIpow              1004d164     MSVCRT:MSVCR100.dll
 0002:00000168       __imp___popen              1004d168     MSVCRT:MSVCR100.dll
 0002:0000016c       __imp___crt_debugger_hook  1004d16c     MSVCRT:MSVCR100.dll
 0002:00000170       __imp__atof                1004d170     MSVCRT:MSVCR100.dll
 0002:00000174       __imp___except_handler4_common 1004d174     MSVCRT:MSVCR100.dll
 0002:00000178       __imp_?_type_info_dtor_internal_method@type_info@@QAEXXZ 1004d178     MSVCRT:MSVCR100.dll
 0002:0000017c       __imp____CppXcptFilter     1004d17c     MSVCRT:MSVCR100.dll
 0002:00000180       __imp___amsg_exit          1004d180     MSVCRT:MSVCR100.dll
 0002:00000184       __imp___initterm_e         1004d184     MSVCRT:MSVCR100.dll
 0002:00000188       __imp___initterm           1004d188     MSVCRT:MSVCR100.dll
 0002:0000018c       __imp___encoded_null       1004d18c     MSVCRT:MSVCR100.dll
 0002:00000190       __imp___malloc_crt         1004d190     MSVCRT:MSVCR100.dll
 0002:00000194       __imp_?terminate@@YAXXZ    1004d194     MSVCRT:MSVCR100.dll
 0002:00000198       __imp___onexit             1004d198     MSVCRT:MSVCR100.dll
 0002:0000019c       __imp___lock               1004d19c     MSVCRT:MSVCR100.dll
 0002:000001a0       __imp____dllonexit         1004d1a0     MSVCRT:MSVCR100.dll
 0002:000001a4       __imp___unlock             1004d1a4     MSVCRT:MSVCR100.dll
 0002:000001a8       __imp__getenv              1004d1a8     MSVCRT:MSVCR100.dll
 0002:000001ac       __imp_??8type_info@@QBE_NABV0@@Z 1004d1ac     MSVCRT:MSVCR100.dll
 0002:000001b0       __imp____RTDynamicCast     1004d1b0     MSVCRT:MSVCR100.dll
 0002:000001b4       __imp__atoi                1004d1b4     MSVCRT:MSVCR100.dll
 0002:000001b8       __imp__memset              1004d1b8     MSVCRT:MSVCR100.dll
 0002:000001bc       \177MSVCR100_NULL_THUNK_DATA 1004d1bc     MSVCRT:MSVCR100.dll
 0002:000001c0       __imp_?setRunnable@QFutureInterfaceBase@@QAEXPAVQRunnable@@@Z 1004d1c0     QtCore4:QtCore4.dll
 0002:000001c4       __imp_?reportFinished@QFutureInterfaceBase@@QAEXXZ 1004d1c4     QtCore4:QtCore4.dll
 0002:000001c8       __imp_?isCanceled@QFutureInterfaceBase@@QBE_NXZ 1004d1c8     QtCore4:QtCore4.dll
 0002:000001cc       __imp_?tr@QMetaObject@@QBE?AVQString@@PBD0@Z 1004d1cc     QtCore4:QtCore4.dll
 0002:000001d0       __imp_?append@QString@@QAEAAV1@PBD@Z 1004d1d0     QtCore4:QtCore4.dll
 0002:000001d4       __imp_??0QString@@QAE@ABV0@@Z 1004d1d4     QtCore4:QtCore4.dll
 0002:000001d8       __imp_?detach@QListData@@QAEPAUData@1@H@Z 1004d1d8     QtCore4:QtCore4.dll
 0002:000001dc       __imp_?qt_assert@@YAXPBD0H@Z 1004d1dc     QtCore4:QtCore4.dll
 0002:000001e0       __imp_??1QFile@@UAE@XZ     1004d1e0     QtCore4:QtCore4.dll
 0002:000001e4       __imp_??1QTextStream@@UAE@XZ 1004d1e4     QtCore4:QtCore4.dll
 0002:000001e8       __imp_?append@QString@@QAEAAV1@ABV1@@Z 1004d1e8     QtCore4:QtCore4.dll
 0002:000001ec       __imp_?close@QFile@@UAEXXZ 1004d1ec     QtCore4:QtCore4.dll
 0002:000001f0       __imp_??6QTextStream@@QAEAAV0@ABVQString@@@Z 1004d1f0     QtCore4:QtCore4.dll
 0002:000001f4       __imp_??6QTextStream@@QAEAAV0@PBD@Z 1004d1f4     QtCore4:QtCore4.dll
 0002:000001f8       __imp_?atEnd@QTextStream@@QBE_NXZ 1004d1f8     QtCore4:QtCore4.dll
 0002:000001fc       __imp_?readLine@QTextStream@@QAE?AVQString@@_J@Z 1004d1fc     QtCore4:QtCore4.dll
 0002:00000200       __imp_??0QTextStream@@QAE@PAVQIODevice@@@Z 1004d200     QtCore4:QtCore4.dll
 0002:00000204       __imp_?open@QFile@@UAE_NV?$QFlags@W4OpenModeFlag@QIODevice@@@@@Z 1004d204     QtCore4:QtCore4.dll
 0002:00000208       __imp_?staticMetaObject@QObject@@2UQMetaObject@@B 1004d208     QtCore4:QtCore4.dll
 0002:0000020c       __imp_?qt_metacall@QObject@@UAEHW4Call@QMetaObject@@HPAPAX@Z 1004d20c     QtCore4:QtCore4.dll
 0002:00000210       __imp_?qt_metacast@QObject@@UAEPAXPBD@Z 1004d210     QtCore4:QtCore4.dll
 0002:00000214       __imp_??4QString@@QAEAAV0@PBD@Z 1004d214     QtCore4:QtCore4.dll
 0002:00000218       __imp_??0QChar@@QAE@UQLatin1Char@@@Z 1004d218     QtCore4:QtCore4.dll
 0002:0000021c       __imp_?arg@QString@@QBE?AV1@HHHABVQChar@@@Z 1004d21c     QtCore4:QtCore4.dll
 0002:00000220       __imp_?append@QListData@@QAEPAPAXXZ 1004d220     QtCore4:QtCore4.dll
 0002:00000224       __imp_?detach_grow@QListData@@QAEPAUData@1@PAHH@Z 1004d224     QtCore4:QtCore4.dll
 0002:00000228       __imp_?shared_null@QListData@@2UData@1@A 1004d228     QtCore4:QtCore4.dll
 0002:0000022c       __imp_?deref@QBasicAtomicInt@@QAE_NXZ 1004d22c     QtCore4:QtCore4.dll
 0002:00000230       __imp_?toStdString@QString@@QBE?AV?$basic_string@DU?$char_traits@D@std@@V?$allocator@D@2@@std@@XZ 1004d230     QtCore4:QtCore4.dll
 0002:00000234       __imp_??0QString@@QAE@PBD@Z 1004d234     QtCore4:QtCore4.dll
 0002:00000238       __imp_??0QRegExp@@QAE@ABVQString@@W4CaseSensitivity@Qt@@W4PatternSyntax@0@@Z 1004d238     QtCore4:QtCore4.dll
 0002:0000023c       __imp_?split@QString@@QBE?AVQStringList@@ABVQRegExp@@W4SplitBehavior@1@@Z 1004d23c     QtCore4:QtCore4.dll
 0002:00000240       __imp_??1QRegExp@@QAE@XZ   1004d240     QtCore4:QtCore4.dll
 0002:00000244       __imp_?reportStarted@QFutureInterfaceBase@@QAEXXZ 1004d244     QtCore4:QtCore4.dll
 0002:00000248       __imp_?globalInstance@QThreadPool@@SAPAV1@XZ 1004d248     QtCore4:QtCore4.dll
 0002:0000024c       __imp_?start@QThreadPool@@QAEXPAVQRunnable@@H@Z 1004d24c     QtCore4:QtCore4.dll
 0002:00000250       __imp_??4QFutureInterfaceBase@@QAEAAV0@ABV0@@Z 1004d250     QtCore4:QtCore4.dll
 0002:00000254       __imp_?waitForFinished@QFutureInterfaceBase@@QAEXXZ 1004d254     QtCore4:QtCore4.dll
 0002:00000258       __imp_??0QFutureInterfaceBase@@QAE@ABV0@@Z 1004d258     QtCore4:QtCore4.dll
 0002:0000025c       __imp_??1QFutureInterfaceBase@@UAE@XZ 1004d25c     QtCore4:QtCore4.dll
 0002:00000260       __imp_??0QFutureInterfaceBase@@QAE@W4State@0@@Z 1004d260     QtCore4:QtCore4.dll
 0002:00000264       __imp_??0QObject@@QAE@PAV0@@Z 1004d264     QtCore4:QtCore4.dll
 0002:00000268       __imp_?qFlagLocation@@YAPBDPBD@Z 1004d268     QtCore4:QtCore4.dll
 0002:0000026c       __imp_?connect@QObject@@SA_NPBV1@PBD01W4ConnectionType@Qt@@@Z 1004d26c     QtCore4:QtCore4.dll
 0002:00000270       __imp_??1QObject@@UAE@XZ   1004d270     QtCore4:QtCore4.dll
 0002:00000274       __imp_?number@QString@@SA?AV1@NDH@Z 1004d274     QtCore4:QtCore4.dll
 0002:00000278       __imp_?number@QString@@SA?AV1@HH@Z 1004d278     QtCore4:QtCore4.dll
 0002:0000027c       __imp_?toUtf8@QString@@QBE?AVQByteArray@@XZ 1004d27c     QtCore4:QtCore4.dll
 0002:00000280       __imp_?detach@QByteArray@@QAEXXZ 1004d280     QtCore4:QtCore4.dll
 0002:00000284       __imp_?qFree@@YAXPAX@Z     1004d284     QtCore4:QtCore4.dll
 0002:00000288       __imp_??1QByteArray@@QAE@XZ 1004d288     QtCore4:QtCore4.dll
 0002:0000028c       __imp_?fromAscii_helper@QString@@CAPAUData@1@PBDH@Z 1004d28c     QtCore4:QtCore4.dll
 0002:00000290       __imp_?event@QObject@@UAE_NPAVQEvent@@@Z 1004d290     QtCore4:QtCore4.dll
 0002:00000294       __imp_?disconnectNotify@QObject@@MAEXPBD@Z 1004d294     QtCore4:QtCore4.dll
 0002:00000298       __imp_?connectNotify@QObject@@MAEXPBD@Z 1004d298     QtCore4:QtCore4.dll
 0002:0000029c       __imp_?customEvent@QObject@@MAEXPAVQEvent@@@Z 1004d29c     QtCore4:QtCore4.dll
 0002:000002a0       __imp_?childEvent@QObject@@MAEXPAVQChildEvent@@@Z 1004d2a0     QtCore4:QtCore4.dll
 0002:000002a4       __imp_?timerEvent@QObject@@MAEXPAVQTimerEvent@@@Z 1004d2a4     QtCore4:QtCore4.dll
 0002:000002a8       __imp_?eventFilter@QObject@@UAE_NPAV1@PAVQEvent@@@Z 1004d2a8     QtCore4:QtCore4.dll
 0002:000002ac       __imp_?objectName@QObject@@QBE?AVQString@@XZ 1004d2ac     QtCore4:QtCore4.dll
 0002:000002b0       __imp_?fromUtf8@QString@@SA?AV1@PBDH@Z 1004d2b0     QtCore4:QtCore4.dll
 0002:000002b4       __imp_?setObjectName@QObject@@QAEXABVQString@@@Z 1004d2b4     QtCore4:QtCore4.dll
 0002:000002b8       __imp_?connectSlotsByName@QMetaObject@@SAXPAVQObject@@@Z 1004d2b8     QtCore4:QtCore4.dll
 0002:000002bc       __imp_?setNum@QString@@QAEAAV1@_JH@Z 1004d2bc     QtCore4:QtCore4.dll
 0002:000002c0       __imp_?setNum@QString@@QAEAAV1@NDH@Z 1004d2c0     QtCore4:QtCore4.dll
 0002:000002c4       __imp_??4QString@@QAEAAV0@ABV0@@Z 1004d2c4     QtCore4:QtCore4.dll
 0002:000002c8       __imp_?toFloat@QString@@QBEMPA_N@Z 1004d2c8     QtCore4:QtCore4.dll
 0002:000002cc       __imp_?toInt@QString@@QBEHPA_NH@Z 1004d2cc     QtCore4:QtCore4.dll
 0002:000002d0       __imp_?translate@QCoreApplication@@SA?AVQString@@PBD00W4Encoding@1@@Z 1004d2d0     QtCore4:QtCore4.dll
 0002:000002d4       __imp_?free@QString@@CAXPAUData@1@@Z 1004d2d4     QtCore4:QtCore4.dll
 0002:000002d8       __imp_?shared_null@QString@@0UData@1@A 1004d2d8     QtCore4:QtCore4.dll
 0002:000002dc       __imp_??0QFile@@QAE@ABVQString@@@Z 1004d2dc     QtCore4:QtCore4.dll
 0002:000002e0       __imp_??1QString@@QAE@XZ   1004d2e0     QtCore4:QtCore4.dll
 0002:000002e4       \177QtCore4_NULL_THUNK_DATA 1004d2e4     QtCore4:QtCore4.dll
 0002:000002e8       __imp_?metaObject@QHBoxLayout@@UBEPBUQMetaObject@@XZ 1004d2e8     QtGui4:QtGui4.dll
 0002:000002ec       __imp_?qt_metacast@QHBoxLayout@@UAEPAXPBD@Z 1004d2ec     QtGui4:QtGui4.dll
 0002:000002f0       __imp_?qt_metacall@QHBoxLayout@@UAEHW4Call@QMetaObject@@HPAPAX@Z 1004d2f0     QtGui4:QtGui4.dll
